gplink-1.3.1 (Jul  9 2013)
Listing File Generated: 2013-8-2  17:27:07
 
 
Address  Value    Disassembly              Source
-------  -----    -----------              ------
                                           ;--------------------------------------------------------
                                           ; File Created by SN-SDCC : ANSI-C Compiler
                                           ; Version 0.0.3 (Jul 18 2013) (MINGW32)
                                           ; This file was generated Fri Aug 02 17:27:05 2013
                                           ;--------------------------------------------------------
                                           ; MC3X port for the RISC core
                                           ;--------------------------------------------------------
                                           	.file	"main.c"
                                           	list	p=30p011
                                           	radix dec
                                           	include "mc30p011.inc"
                                           		LIST
                                           ;mc30p011.inc    Standard Header File, Version 1.00 by Sinomcu
                                           		NOLIST
                                           ;--------------------------------------------------------
                                           ; external declarations
                                           ;--------------------------------------------------------
                                           	extern	_i2cint
                                           	extern	_i2cout
                                           	extern	_i
                                           	extern	_j
                                           	extern	_n
                                           	extern	_table
                                           	extern	__gptrget1
                                           	extern	__sdcc_gsinit_startup
                                           ;--------------------------------------------------------
                                           ; global declarations
                                           ;--------------------------------------------------------
                                           	global	_main
                                           
                                           	global STK06
                                           	global STK05
                                           	global STK04
                                           	global STK03
                                           	global STK02
                                           	global STK01
                                           	global STK00
                                           
                                           sharebank udata_ovr 0x0010
                                           STK06	res 1
                                           STK05	res 1
                                           STK04	res 1
                                           STK03	res 1
                                           STK02	res 1
                                           STK01	res 1
                                           STK00	res 1
                                           
                                           ;--------------------------------------------------------
                                           ; global definitions
                                           ;--------------------------------------------------------
                                           ;--------------------------------------------------------
                                           ; absolute symbol definitions
                                           ;--------------------------------------------------------
                                           ;--------------------------------------------------------
                                           ; compiler-defined variables
                                           ;--------------------------------------------------------
                                           UDL_main_0	udata
                                           r0x1002	res	1
                                           r0x1003	res	1
                                           ;--------------------------------------------------------
                                           ; initialized data
                                           ;--------------------------------------------------------
                                           ;--------------------------------------------------------
                                           ; overlayable items in internal ram 
                                           ;--------------------------------------------------------
                                           ;	udata_ovr
                                           ;--------------------------------------------------------
                                           ; reset vector 
                                           ;--------------------------------------------------------
                                           STARTUP	code 0x0000
000000   2881     goto    0x81             	goto	__sdcc_gsinit_startup
                                           ;--------------------------------------------------------
                                           ; code
                                           ;--------------------------------------------------------
                                           code_main	code
                                           ;***
                                           ;  pBlock Stats: dbName = M
                                           ;***
                                           ;entry:  _main	;Function start
                                           ; 2 exit points
                                           ;has an exit
                                           ;functions called:
                                           ;   _i2cint
                                           ;   __gptrget1
                                           ;   _i2cout
                                           ;   _i2cint
                                           ;   __gptrget1
                                           ;   _i2cout
                                           ;4 compiler assigned registers:
                                           ;   r0x1002
                                           ;   r0x1003
                                           ;   STK01
                                           ;   STK00
                                           ;; Starting pCode block
                                           ;;; gen.c:2315:resultRemat *{*
                                           ;;; gen.c:2759:genLabel *{*
                                           ;; ***	genLabel  2762
                                           ;;; gen.c:2315:resultRemat *{*
                                           ;;; gen.c:2339:genFunction *{*
                                           ;; ***	genFunction  2341 curr label offset=0previous max_key=0 
                                           _main	;Function start
                                           ; 2 exit points
                                           ;;; gen.c:2315:resultRemat *{*
                                           ;;; gen.c:2085:genCall *{*
                                           ;; ***	genCall  2087
                                           ;;; gen.c:1800:saveRegisters *{*
                                           ;; ***	saveRegisters  1802
                                           ;; >>> gen.c:2174:genCall
                                           	.line	9; "main.c"	i2cint();     
00013f   213a     call    0x13a            	CALL	_i2cint
                                           ;;; gen.c:1844:unsaveRegisters *{*
                                           ;; ***	unsaveRegisters  1846
                                           ;;; gen.c:2315:resultRemat *{*
                                           ;;; gen.c:2759:genLabel *{*
                                           ;; ***	genLabel  2762
                                           ;;; gen.c:2315:resultRemat *{*
                                           ;;; gen.c:6910:genAssign *{*
                                           ;; ***	genAssign  6911
                                           ;; ***	aopForSym 315
                                           ;;	327 sym->rname = _i, size = 1
                                           ;; 	line = 6920 result AOP_DIR=_i, size=1, left -=-, size=0, right AOP_LIT=0x00, size=1
                                           ;; ***	genAssign  7006
                                           ;; >>> gen.c:7018:genAssign
                                           ;;	1009
                                           ;;	1028  _i   offset=0
                                           _00106_DS_
                                           	.line	12; "main.c"	for(i=0x00;i<=127;++i)
000140   1d87     clrr    0x7              	CLRR	_i
                                           ;;; gen.c:2315:resultRemat *{*
                                           ;;; gen.c:2315:resultRemat *{*
                                           ;;; gen.c:2759:genLabel *{*
                                           ;; ***	genLabel  2762
                                           ;;; gen.c:2315:resultRemat *{*
                                           ;;; gen.c:3546:genCmpGt *{*
                                           ;; ***	genCmpGt  3547
                                           ;; ***	aopForSym 315
                                           ;;	327 sym->rname = _i, size = 1
                                           ;;; gen.c:3293:genCmp *{*
                                           ;;swapping arguments (AOP_TYPEs 1/3)
                                           ;;unsigned compare: left >= lit(0x80=128), size=1
                                           ;; >>> gen.c:3264:pic14_mov2w_regOrLit
                                           _00108_DS_
000141   0b80     movai   0x80             	MOVAI	0x80
                                           ;; >>> gen.c:3431:genCmp
                                           ;;	1009
                                           ;;	1028  _i   offset=0
000142   1207     rsubar  0x7              	RSUBAR	_i
                                           ;;; gen.c:3236:genSkipc *{*
                                           ;; >>> gen.c:3241:genSkipc
000143   3403     jbclr   0x3, 0           	JBCLR	STATUS,0
                                           ;; >>> gen.c:3245:genSkipc
                                           ;; ***	popGetLabel  key=2, label offset 4
000144   2940     goto    0x140            	GOTO	_00106_DS_
                                           ;;genSkipc:3246: created from rifx:0022608C
                                           ;;; gen.c:2315:resultRemat *{*
                                           ;;; gen.c:2315:resultRemat *{*
                                           ;; ***	genPlus  576
                                           ;;; genarith.c:577:genPlus *{*
                                           ;;	613
                                           ;;	aopForRemat 392
                                           ;;	418: rname _table, val 0, const = 0
                                           ;; ***	aopForSym 315
                                           ;;	327 sym->rname = _i, size = 1
                                           ;;	694 register type nRegs=2
                                           ;;	833: aopGet AOP_PCODE type PO_IMMEDIATE
                                           ;;	_table
                                           ;; 	line = 583 result AOP_REG=r0x1002, size=2, left AOP_PCODE=_table, size=2, right AOP_DIR=_i, size=1
                                           ;;; genarith.c:142:genPlusIncr *{*
                                           ;; ***	genPlusIncr  144
                                           ;; 	result AOP_REG, left AOP_PCODE, right AOP_DIR
                                           ;; ***	genPlus  682
                                           ;;	833: aopGet AOP_PCODE type PO_IMMEDIATE
                                           ;;	_table
                                           ;; >>> genarith.c:691:genPlus
                                           ;;	1009
                                           ;;	1028  _i   offset=0
                                           	.line	14; "main.c"	j=table[i]; 
000145   1607     movar   0x7              	MOVAR	_i
                                           ;; >>> genarith.c:700:genPlus
000146   0e01     addai   0x1              	ADDAI	(_table + 0)
                                           ;; >>> genarith.c:701:genPlus
                                           ;;	1108 rIdx = r0x1002 
000147   15a3     movra   0x23             	MOVRA	r0x1002
                                           ;; >>> genarith.c:764:genPlus
000148   0b00     movai   0                	MOVAI	high (_table + 0)
                                           ;; >>> genarith.c:765:genPlus
000149   3403     jbclr   0x3, 0           	JBCLR	STATUS,0
                                           ;; >>> genarith.c:766:genPlus
00014a   0e01     addai   0x1              	ADDAI	0x01
                                           ;; >>> genarith.c:767:genPlus
                                           ;;	1108 rIdx = r0x1003 
00014b   15a4     movra   0x24             	MOVRA	r0x1003
                                           ;;; gen.c:2315:resultRemat *{*
                                           ;;; gen.c:6127:genPointerGet *{*
                                           ;; ***	genPointerGet  6128
                                           ;;; gen.c:6074:genConstPointerGet *{*
                                           ;; ***	genConstPointerGet  6075
                                           ;;	694 register type nRegs=2
                                           ;; ***	aopForSym 315
                                           ;;	327 sym->rname = _j, size = 1
                                           ;; 	line = 6079 result AOP_DIR=_j, size=1, left AOP_REG=r0x1002, size=2, right -=-, size=0
                                           ;; 	 6081 getting const pointer
                                           ;;; gen.c:1342:mov2w_op *{*
                                           ;; ***	mov2w  1380  offset=0
                                           ;; >>> gen.c:1385:mov2w
                                           ;;	1108 rIdx = r0x1002 
00014c   1623     movar   0x23             	MOVAR	r0x1002
                                           ;; >>> gen.c:6097:genConstPointerGet
                                           ;; ***	popRegFromIdx,1042  , rIdx=0x1e
00014d   1595     movra   0x15             	MOVRA	STK01
                                           ;;; gen.c:1342:mov2w_op *{*
                                           ;; ***	mov2w  1380  offset=1
                                           ;; >>> gen.c:1385:mov2w
                                           ;;	1108 rIdx = r0x1003 
00014e   1624     movar   0x24             	MOVAR	r0x1003
                                           ;; >>> gen.c:6099:genConstPointerGet
                                           ;; ***	popRegFromIdx,1042  , rIdx=0x1f
00014f   1596     movra   0x16             	MOVRA	STK00
                                           ;; >>> gen.c:6100:genConstPointerGet
000150   0b80     movai   0x80             	MOVAI	0x80
                                           ;; >>> gen.c:1434:call_libraryfunc
000151   20ef     call    0xef             	CALL	__gptrget1
                                           ;; >>> gen.c:1392:movwf
                                           ;;	1009
                                           ;;	1028  _j   offset=0
000152   15a5     movra   0x25             	MOVRA	_j
                                           ;;; gen.c:2315:resultRemat *{*
                                           ;;; gen.c:2085:genCall *{*
                                           ;; ***	genCall  2087
                                           ;;; gen.c:1800:saveRegisters *{*
                                           ;; ***	saveRegisters  1802
                                           ;; >>> gen.c:2174:genCall
                                           	.line	15; "main.c"	i2cout(); 
000153   2119     call    0x119            	CALL	_i2cout
                                           ;;; gen.c:1844:unsaveRegisters *{*
                                           ;; ***	unsaveRegisters  1846
                                           ;;; gen.c:2315:resultRemat *{*
                                           ;; ***	genPlus  576
                                           ;;; genarith.c:577:genPlus *{*
                                           ;; ***	aopForSym 315
                                           ;;	327 sym->rname = _i, size = 1
                                           ;; 	line = 583 result AOP_DIR=_i, size=1, left AOP_DIR=_i, size=1, right AOP_LIT=0x01, size=1
                                           ;;; genarith.c:142:genPlusIncr *{*
                                           ;; ***	genPlusIncr  144
                                           ;; 	result AOP_DIR, left AOP_DIR, right AOP_LIT
                                           ;; 	genPlusIncr  156
                                           ;; >>> genarith.c:168:genPlusIncr
                                           ;;	1009
                                           ;;	1028  _i   offset=0
                                           	.line	12; "main.c"	for(i=0x00;i<=127;++i)
000154   1987     incr    0x7              	INCR	_i
                                           ;;; gen.c:2315:resultRemat *{*
                                           ;;; gen.c:2777:genGoto *{*
                                           ;; >>> gen.c:2779:genGoto
                                           ;; ***	popGetLabel  key=4, label offset 4
000155   2941     goto    0x141            	GOTO	_00108_DS_
                                           ;;; gen.c:2315:resultRemat *{*
                                           ;;; gen.c:2759:genLabel *{*
                                           ;; ***	genLabel  2762
                                           ;;; gen.c:2315:resultRemat *{*
                                           ;;; gen.c:2523:genEndFunction *{*
                                           ;; ***	genEndFunction  2525
000156   000c     return                   	RETURN	
                                           ; exit point of _main
                                           
                                           
                                           ;	code size estimation:
                                           ;	   24+    0 =    24 instructions (   48 byte)
                                           
                                           	end
                                           ;--------------------------------------------------------
                                           ; File Created by SN-SDCC : ANSI-C Compiler
                                           ; Version 0.0.3 (Jul 18 2013) (MINGW32)
                                           ; This file was generated Fri Aug 02 17:27:04 2013
                                           ;--------------------------------------------------------
                                           ; MC3X port for the RISC core
                                           ;--------------------------------------------------------
                                           	.file	"fun.c"
                                           	list	p=30p011
                                           	radix dec
                                           	include "mc30p011.inc"
                                           		LIST
                                           ;mc30p011.inc    Standard Header File, Version 1.00 by Sinomcu
                                           		NOLIST
                                           ;--------------------------------------------------------
                                           ; external declarations
                                           ;--------------------------------------------------------
                                           	extern	_STATUSbits
                                           	extern	_P0bits
                                           	extern	_P1bits
                                           	extern	_MCRbits
                                           	extern	_KBIMbits
                                           	extern	_PDCONbits
                                           	extern	_ODCONbits
                                           	extern	_PUCONbits
                                           	extern	_INTECONbits
                                           	extern	_INTFLAGbits
                                           	extern	_T0CRbits
                                           	extern	_DDR0bits
                                           	extern	_DDR1bits
                                           	extern	_TMCRbits
                                           	extern	_T1CRbits
                                           	extern	_INDF
                                           	extern	_T0CNT
                                           	extern	_PCL
                                           	extern	_STATUS
                                           	extern	_FSR
                                           	extern	_P0
                                           	extern	_P1
                                           	extern	_MCR
                                           	extern	_KBIM
                                           	extern	_PCLATH
                                           	extern	_PDCON
                                           	extern	_ODCON
                                           	extern	_PUCON
                                           	extern	_INTECON
                                           	extern	_INTFLAG
                                           	extern	_T0CR
                                           	extern	_DDR0
                                           	extern	_DDR1
                                           	extern	_TMCR
                                           	extern	_T1CR
                                           	extern	_T1CNT
                                           	extern	_T1LOAD
                                           	extern	_T1DATA
                                           
                                           	extern STK06
                                           	extern STK05
                                           	extern STK04
                                           	extern STK03
                                           	extern STK02
                                           	extern STK01
                                           	extern STK00
                                           ;--------------------------------------------------------
                                           ; global declarations
                                           ;--------------------------------------------------------
                                           	global	_i2cint
                                           	global	_i2cout
                                           	global	_i
                                           	global	_j
                                           	global	_n
                                           	global	_table
                                           
                                           ;--------------------------------------------------------
                                           ; global definitions
                                           ;--------------------------------------------------------
                                           UD_fun_0	udata
                                           _i	res	1
                                           
                                           UD_fun_1	udata
                                           _j	res	1
                                           
                                           UD_fun_2	udata
                                           _n	res	1
                                           
                                           ;--------------------------------------------------------
                                           ; absolute symbol definitions
                                           ;--------------------------------------------------------
                                           ;--------------------------------------------------------
                                           ; compiler-defined variables
                                           ;--------------------------------------------------------
                                           ;--------------------------------------------------------
                                           ; initialized data
                                           ;--------------------------------------------------------
                                           
                                           ID_fun_0	code
                                           _table
000001   0a80     retai   0x80             	retai 0x80
000002   0a86     retai   0x86             	retai 0x86
000003   0a8d     retai   0x8d             	retai 0x8d
000004   0a93     retai   0x93             	retai 0x93
000005   0a99     retai   0x99             	retai 0x99
000006   0a9f     retai   0x9f             	retai 0x9f
000007   0aa5     retai   0xa5             	retai 0xa5
000008   0aab     retai   0xab             	retai 0xab
000009   0ab1     retai   0xb1             	retai 0xb1
00000a   0ab7     retai   0xb7             	retai 0xb7
00000b   0abc     retai   0xbc             	retai 0xbc
00000c   0ac2     retai   0xc2             	retai 0xc2
00000d   0ac7     retai   0xc7             	retai 0xc7
00000e   0acc     retai   0xcc             	retai 0xcc
00000f   0ad1     retai   0xd1             	retai 0xd1
000010   0ad6     retai   0xd6             	retai 0xd6
000011   0ada     retai   0xda             	retai 0xda
000012   0adf     retai   0xdf             	retai 0xdf
000013   0ae3     retai   0xe3             	retai 0xe3
000014   0ae7     retai   0xe7             	retai 0xe7
000015   0aea     retai   0xea             	retai 0xea
000016   0aee     retai   0xee             	retai 0xee
000017   0af1     retai   0xf1             	retai 0xf1
000018   0af4     retai   0xf4             	retai 0xf4
000019   0af6     retai   0xf6             	retai 0xf6
00001a   0af8     retai   0xf8             	retai 0xf8
00001b   0afa     retai   0xfa             	retai 0xfa
00001c   0afc     retai   0xfc             	retai 0xfc
00001d   0afd     retai   0xfd             	retai 0xfd
00001e   0aff     retai   0xff             	retai 0xff
00001f   0aff     retai   0xff             	retai 0xff
000020   0aff     retai   0xff             	retai 0xff
000021   0aff     retai   0xff             	retai 0xff
000022   0aff     retai   0xff             	retai 0xff
000023   0aff     retai   0xff             	retai 0xff
000024   0afe     retai   0xfe             	retai 0xfe
000025   0afd     retai   0xfd             	retai 0xfd
000026   0afb     retai   0xfb             	retai 0xfb
000027   0af9     retai   0xf9             	retai 0xf9
000028   0af7     retai   0xf7             	retai 0xf7
000029   0af5     retai   0xf5             	retai 0xf5
00002a   0af2     retai   0xf2             	retai 0xf2
00002b   0aef     retai   0xef             	retai 0xef
00002c   0aec     retai   0xec             	retai 0xec
00002d   0ae9     retai   0xe9             	retai 0xe9
00002e   0ae5     retai   0xe5             	retai 0xe5
00002f   0ae1     retai   0xe1             	retai 0xe1
000030   0add     retai   0xdd             	retai 0xdd
000031   0ad8     retai   0xd8             	retai 0xd8
000032   0ad4     retai   0xd4             	retai 0xd4
000033   0acf     retai   0xcf             	retai 0xcf
000034   0aca     retai   0xca             	retai 0xca
000035   0ac5     retai   0xc5             	retai 0xc5
000036   0abf     retai   0xbf             	retai 0xbf
000037   0aba     retai   0xba             	retai 0xba
000038   0ab4     retai   0xb4             	retai 0xb4
000039   0aae     retai   0xae             	retai 0xae
00003a   0aa8     retai   0xa8             	retai 0xa8
00003b   0aa2     retai   0xa2             	retai 0xa2
00003c   0a9c     retai   0x9c             	retai 0x9c
00003d   0a96     retai   0x96             	retai 0x96
00003e   0a90     retai   0x90             	retai 0x90
00003f   0a89     retai   0x89             	retai 0x89
000040   0a83     retai   0x83             	retai 0x83
000041   0a80     retai   0x80             	retai 0x80
000042   0a79     retai   0x79             	retai 0x79
000043   0a72     retai   0x72             	retai 0x72
000044   0a6c     retai   0x6c             	retai 0x6c
000045   0a66     retai   0x66             	retai 0x66
000046   0a60     retai   0x60             	retai 0x60
000047   0a5a     retai   0x5a             	retai 0x5a
000048   0a55     retai   0x55             	retai 0x55
000049   0a4e     retai   0x4e             	retai 0x4e
00004a   0a48     retai   0x48             	retai 0x48
00004b   0a43     retai   0x43             	retai 0x43
00004c   0a3d     retai   0x3d             	retai 0x3d
00004d   0a38     retai   0x38             	retai 0x38
00004e   0a33     retai   0x33             	retai 0x33
00004f   0a2e     retai   0x2e             	retai 0x2e
000050   0a29     retai   0x29             	retai 0x29
000051   0a25     retai   0x25             	retai 0x25
000052   0a20     retai   0x20             	retai 0x20
000053   0a1c     retai   0x1c             	retai 0x1c
000054   0a18     retai   0x18             	retai 0x18
000055   0a15     retai   0x15             	retai 0x15
000056   0a11     retai   0x11             	retai 0x11
000057   0a0e     retai   0xe              	retai 0x0e
000058   0a0b     retai   0xb              	retai 0x0b
000059   0a09     retai   0x9              	retai 0x09
00005a   0a07     retai   0x7              	retai 0x07
00005b   0a05     retai   0x5              	retai 0x05
00005c   0a03     retai   0x3              	retai 0x03
00005d   0a02     retai   0x2              	retai 0x02
00005e   0a00     retai   0                	retai 0x00
00005f   0a00     retai   0                	retai 0x00
000060   0a00     retai   0                	retai 0x00
000061   0a00     retai   0                	retai 0x00
000062   0a00     retai   0                	retai 0x00
000063   0a00     retai   0                	retai 0x00
000064   0a01     retai   0x1              	retai 0x01
000065   0a02     retai   0x2              	retai 0x02
000066   0a04     retai   0x4              	retai 0x04
000067   0a06     retai   0x6              	retai 0x06
000068   0a08     retai   0x8              	retai 0x08
000069   0a0a     retai   0xa              	retai 0x0a
00006a   0a0d     retai   0xd              	retai 0x0d
00006b   0a10     retai   0x10             	retai 0x10
00006c   0a13     retai   0x13             	retai 0x13
00006d   0a16     retai   0x16             	retai 0x16
00006e   0a1a     retai   0x1a             	retai 0x1a
00006f   0a1e     retai   0x1e             	retai 0x1e
000070   0a22     retai   0x22             	retai 0x22
000071   0a27     retai   0x27             	retai 0x27
000072   0a2b     retai   0x2b             	retai 0x2b
000073   0a30     retai   0x30             	retai 0x30
000074   0a35     retai   0x35             	retai 0x35
000075   0a3a     retai   0x3a             	retai 0x3a
000076   0a40     retai   0x40             	retai 0x40
000077   0a45     retai   0x45             	retai 0x45
000078   0a4c     retai   0x4c             	retai 0x4c
000079   0a51     retai   0x51             	retai 0x51
00007a   0a57     retai   0x57             	retai 0x57
00007b   0a5d     retai   0x5d             	retai 0x5d
00007c   0a63     retai   0x63             	retai 0x63
00007d   0a69     retai   0x69             	retai 0x69
00007e   0a6f     retai   0x6f             	retai 0x6f
00007f   0a76     retai   0x76             	retai 0x76
000080   0a7c     retai   0x7c             	retai 0x7c
                                           
                                           ;--------------------------------------------------------
                                           ; overlayable items in internal ram 
                                           ;--------------------------------------------------------
                                           ;	udata_ovr
                                           ;--------------------------------------------------------
                                           ; code
                                           ;--------------------------------------------------------
                                           code_fun	code
                                           ;***
                                           ;  pBlock Stats: dbName = C
                                           ;***
                                           ;entry:  _i2cout	;Function start
                                           ; 2 exit points
                                           ;has an exit
                                           ;; Starting pCode block
                                           ;;; gen.c:2315:resultRemat *{*
                                           ;;; gen.c:2759:genLabel *{*
                                           ;; ***	genLabel  2762
                                           ;;; gen.c:2315:resultRemat *{*
                                           ;;; gen.c:2339:genFunction *{*
                                           ;; ***	genFunction  2341 curr label offset=4previous max_key=0 
                                           _i2cout	;Function start
                                           ; 2 exit points
                                           ;;; gen.c:2315:resultRemat *{*
                                           ;;; gen.c:2315:resultRemat *{*
                                           ;;; gen.c:6669:genPointerSet *{*
                                           ;; ***	genPointerSet  6670
                                           ;;; gen.c:6488:genNearPointerSet *{*
                                           ;; ***	genNearPointerSet  6489
                                           ;;	613
                                           ;;	aopForRemat 392
                                           ;;	418: rname _INTECONbits, val 0, const = 0
                                           ;; ***	genNearPointerSet  6504
                                           ;;	833: aopGet AOP_PCODE type PO_IMMEDIATE
                                           ;;	_INTECONbits
                                           ;; 	line = 6506 result AOP_PCODE=_INTECONbits, size=2, left -=-, size=0, right AOP_LIT=0x01, size=1
                                           ;;; gen.c:6214:genPackBits *{*
                                           ;; ***	genPackBits  6215
                                           ;;	833: aopGet AOP_PCODE type PO_IMMEDIATE
                                           ;;	_INTECONbits
                                           ;; >>> gen.c:6240:genPackBits
                                           	.line	34; "fun.c"	GIE = 1;
000119   3b8e     bset    0xe, 0x7         	BSET	_INTECONbits,7
                                           ;;; gen.c:2315:resultRemat *{*
                                           ;;; gen.c:6910:genAssign *{*
                                           ;; ***	genAssign  6911
                                           ;; ***	aopForSym 315
                                           ;;	327 sym->rname = _n, size = 1
                                           ;; 	line = 6920 result AOP_DIR=_n, size=1, left -=-, size=0, right AOP_LIT=0x02, size=1
                                           ;; ***	genAssign  7006
                                           ;; >>> gen.c:7013:genAssign
                                           	.line	35; "fun.c"	for(n=0x02;--n;) continue;
00011a   0b02     movai   0x2              	MOVAI	0x02
                                           ;; >>> gen.c:7015:genAssign
                                           ;;	1009
                                           ;;	1028  _n   offset=0
00011b   15a6     movra   0x26             	MOVRA	_n
                                           ;;; gen.c:2315:resultRemat *{*
                                           ;;; gen.c:2759:genLabel *{*
                                           ;; ***	genLabel  2762
                                           ;;; gen.c:2315:resultRemat *{*
                                           ;;; gen.c:7300:genDjnz *{*
                                           ;; ***	genDjnz  7301
                                           ;;; genarith.c:861:genMinus *{*
                                           ;; ***	genMinus  862
                                           ;; ***	aopForSym 315
                                           ;;	327 sym->rname = _n, size = 1
                                           ;; 	result AOP_DIR, left AOP_DIR, right AOP_LIT
                                           ;;; genarith.c:269:genAddLit *{*
                                           ;; ***	genAddLit  270
                                           ;;; genarith.c:233:genAddLit2byte *{*
                                           ;; >>> genarith.c:242:genAddLit2byte
                                           ;;	1009
                                           ;;	1028  _n   offset=0
                                           _00109_DS_
00011c   1ba6     decr    0x26             	DECR	_n
                                           ;; ***	addSign  826
                                           ;;; genarith.c:827:addSign *{*
                                           ;;; gen.c:2315:resultRemat *{*
                                           ;;; gen.c:6742:genIfx *{*
                                           ;; ***	genIfx  6743
                                           ;; ***	aopForSym 315
                                           ;;	327 sym->rname = _n, size = 1
                                           ;; ***	pic14_toBoolean  1514
                                           ;; >>> gen.c:1521:pic14_toBoolean
00011d   0b00     movai   0                	MOVAI	0x00
                                           ;; >>> gen.c:1532:pic14_toBoolean
                                           ;;	1009
                                           ;;	1028  _n   offset=0
00011e   1726     orar    0x26             	ORAR	_n
                                           ;; >>> gen.c:6791:genIfx
00011f   3103     jbset   0x3, 0x2         	JBSET	STATUS,2
                                           ;; >>> gen.c:6792:genIfx
                                           ;; ***	popGetLabel  key=1, label offset 8
000120   291c     goto    0x11c            	GOTO	_00109_DS_
                                           ;;; gen.c:2315:resultRemat *{*
                                           ;;; gen.c:2759:genLabel *{*
                                           ;; ***	genLabel  2762
                                           ;;; gen.c:2315:resultRemat *{*
                                           ;;; gen.c:2315:resultRemat *{*
                                           ;;; gen.c:6669:genPointerSet *{*
                                           ;; ***	genPointerSet  6670
                                           ;;; gen.c:6488:genNearPointerSet *{*
                                           ;; ***	genNearPointerSet  6489
                                           ;;	613
                                           ;;	aopForRemat 392
                                           ;;	418: rname _P0bits, val 0, const = 0
                                           ;; ***	genNearPointerSet  6504
                                           ;;	833: aopGet AOP_PCODE type PO_IMMEDIATE
                                           ;;	_P0bits
                                           ;; 	line = 6506 result AOP_PCODE=_P0bits, size=2, left -=-, size=0, right AOP_LIT=0x01, size=1
                                           ;;; gen.c:6214:genPackBits *{*
                                           ;; ***	genPackBits  6215
                                           ;;	833: aopGet AOP_PCODE type PO_IMMEDIATE
                                           ;;	_P0bits
                                           ;; >>> gen.c:6240:genPackBits
                                           _00112_DS_
                                           	.line	38; "fun.c"	P00=1; 
000121   3805     bset    0x5, 0           	BSET	_P0bits,0
                                           ;;; gen.c:2315:resultRemat *{*
                                           ;;; gen.c:2315:resultRemat *{*
                                           ;;; gen.c:6127:genPointerGet *{*
                                           ;; ***	genPointerGet  6128
                                           ;;; gen.c:5909:genNearPointerGet *{*
                                           ;; ***	genNearPointerGet  5910
                                           ;;	613
                                           ;;	aopForRemat 392
                                           ;;	418: rname _P0bits, val 0, const = 0
                                           ;; ***	genNearPointerGet  5926
                                           ;;	694 register type nRegs=1
                                           ;;; gen.c:5743:genUnpackBits *{*
                                           ;; ***	genUnpackBits  5744
                                           ;;	833: aopGet AOP_PCODE type PO_IMMEDIATE
                                           ;;	_P0bits
                                           ;; >>> gen.c:5766:genUnpackBits
                                           	.line	39; "fun.c"	}while(P01==0);  
000122   3085     jbset   0x5, 0x1         	JBSET	_P0bits,1
                                           ;; >>> gen.c:5767:genUnpackBits
                                           ;; ***	popGetLabel  key=4, label offset 8
000123   2921     goto    0x121            	GOTO	_00112_DS_
                                           ;;; gen.c:2315:resultRemat *{*
                                           ;;; gen.c:2315:resultRemat *{*
                                           ;;; gen.c:2315:resultRemat *{*
                                           ;;; gen.c:6669:genPointerSet *{*
                                           ;; ***	genPointerSet  6670
                                           ;;; gen.c:6488:genNearPointerSet *{*
                                           ;; ***	genNearPointerSet  6489
                                           ;;	613
                                           ;;	aopForRemat 392
                                           ;;	418: rname _P0bits, val 0, const = 0
                                           ;; ***	genNearPointerSet  6504
                                           ;;	833: aopGet AOP_PCODE type PO_IMMEDIATE
                                           ;;	_P0bits
                                           ;; 	line = 6506 result AOP_PCODE=_P0bits, size=2, left -=-, size=0, right AOP_LIT=0x00, size=1
                                           ;;; gen.c:6214:genPackBits *{*
                                           ;; ***	genPackBits  6215
                                           ;;	833: aopGet AOP_PCODE type PO_IMMEDIATE
                                           ;;	_P0bits
                                           ;; >>> gen.c:6240:genPackBits
                                           	.line	40; "fun.c"	P00=0;
000124   3c05     bclr    0x5, 0           	BCLR	_P0bits,0
                                           ;;; gen.c:2315:resultRemat *{*
                                           ;;; gen.c:2315:resultRemat *{*
                                           ;;; gen.c:6669:genPointerSet *{*
                                           ;; ***	genPointerSet  6670
                                           ;;; gen.c:6488:genNearPointerSet *{*
                                           ;; ***	genNearPointerSet  6489
                                           ;;	613
                                           ;;	aopForRemat 392
                                           ;;	418: rname _P0bits, val 0, const = 0
                                           ;; ***	genNearPointerSet  6504
                                           ;;	833: aopGet AOP_PCODE type PO_IMMEDIATE
                                           ;;	_P0bits
                                           ;; 	line = 6506 result AOP_PCODE=_P0bits, size=2, left -=-, size=0, right AOP_LIT=0x58, size=1
                                           ;;; gen.c:6214:genPackBits *{*
                                           ;; ***	genPackBits  6215
                                           ;;	833: aopGet AOP_PCODE type PO_IMMEDIATE
                                           ;;	_P0bits
                                           ;; >>> gen.c:6240:genPackBits
                                           	.line	41; "fun.c"	P02=0X58;
000125   3905     bset    0x5, 0x2         	BSET	_P0bits,2
                                           ;;; gen.c:2315:resultRemat *{*
                                           ;;; gen.c:2759:genLabel *{*
                                           ;; ***	genLabel  2762
                                           ;;; gen.c:2315:resultRemat *{*
                                           ;;; gen.c:2315:resultRemat *{*
                                           ;;; gen.c:6127:genPointerGet *{*
                                           ;; ***	genPointerGet  6128
                                           ;;; gen.c:5909:genNearPointerGet *{*
                                           ;; ***	genNearPointerGet  5910
                                           ;;	613
                                           ;;	aopForRemat 392
                                           ;;	418: rname _P0bits, val 0, const = 0
                                           ;; ***	genNearPointerGet  5926
                                           ;;	694 register type nRegs=1
                                           ;;; gen.c:5743:genUnpackBits *{*
                                           ;; ***	genUnpackBits  5744
                                           ;;	833: aopGet AOP_PCODE type PO_IMMEDIATE
                                           ;;	_P0bits
                                           ;; >>> gen.c:5766:genUnpackBits
                                           _00115_DS_
                                           	.line	45; "fun.c"	}while(P01==0);
000126   3085     jbset   0x5, 0x1         	JBSET	_P0bits,1
                                           ;; >>> gen.c:5767:genUnpackBits
                                           ;; ***	popGetLabel  key=7, label offset 8
000127   2926     goto    0x126            	GOTO	_00115_DS_
                                           ;;; gen.c:2315:resultRemat *{*
                                           ;;; gen.c:2315:resultRemat *{*
                                           ;;; gen.c:2315:resultRemat *{*
                                           ;;; gen.c:6669:genPointerSet *{*
                                           ;; ***	genPointerSet  6670
                                           ;;; gen.c:6488:genNearPointerSet *{*
                                           ;; ***	genNearPointerSet  6489
                                           ;;	613
                                           ;;	aopForRemat 392
                                           ;;	418: rname _P0bits, val 0, const = 0
                                           ;; ***	genNearPointerSet  6504
                                           ;;	833: aopGet AOP_PCODE type PO_IMMEDIATE
                                           ;;	_P0bits
                                           ;; 	line = 6506 result AOP_PCODE=_P0bits, size=2, left -=-, size=0, right AOP_LIT=0x00, size=1
                                           ;;; gen.c:6214:genPackBits *{*
                                           ;; ***	genPackBits  6215
                                           ;;	833: aopGet AOP_PCODE type PO_IMMEDIATE
                                           ;;	_P0bits
                                           ;; >>> gen.c:6240:genPackBits
                                           	.line	46; "fun.c"	P01=0; 
000128   3c85     bclr    0x5, 0x1         	BCLR	_P0bits,1
                                           ;;; gen.c:2315:resultRemat *{*
                                           ;;; gen.c:2315:resultRemat *{*
                                           ;;; gen.c:6669:genPointerSet *{*
                                           ;; ***	genPointerSet  6670
                                           ;;; gen.c:6488:genNearPointerSet *{*
                                           ;; ***	genNearPointerSet  6489
                                           ;;	613
                                           ;;	aopForRemat 392
                                           ;;	418: rname _P0bits, val 0, const = 0
                                           ;; ***	genNearPointerSet  6504
                                           ;;	833: aopGet AOP_PCODE type PO_IMMEDIATE
                                           ;;	_P0bits
                                           ;; 	line = 6506 result AOP_PCODE=_P0bits, size=2, left -=-, size=0, right AOP_LIT=0x01, size=1
                                           ;;; gen.c:6214:genPackBits *{*
                                           ;; ***	genPackBits  6215
                                           ;;	833: aopGet AOP_PCODE type PO_IMMEDIATE
                                           ;;	_P0bits
                                           ;; >>> gen.c:6240:genPackBits
                                           	.line	47; "fun.c"	P02=0X01;
000129   3905     bset    0x5, 0x2         	BSET	_P0bits,2
                                           ;;; gen.c:2315:resultRemat *{*
                                           ;;; gen.c:2759:genLabel *{*
                                           ;; ***	genLabel  2762
                                           ;;; gen.c:2315:resultRemat *{*
                                           ;;; gen.c:2315:resultRemat *{*
                                           ;;; gen.c:6127:genPointerGet *{*
                                           ;; ***	genPointerGet  6128
                                           ;;; gen.c:5909:genNearPointerGet *{*
                                           ;; ***	genNearPointerGet  5910
                                           ;;	613
                                           ;;	aopForRemat 392
                                           ;;	418: rname _P0bits, val 0, const = 0
                                           ;; ***	genNearPointerGet  5926
                                           ;;	694 register type nRegs=1
                                           ;;; gen.c:5743:genUnpackBits *{*
                                           ;; ***	genUnpackBits  5744
                                           ;;	833: aopGet AOP_PCODE type PO_IMMEDIATE
                                           ;;	_P0bits
                                           ;; >>> gen.c:5766:genUnpackBits
                                           _00117_DS_
                                           	.line	51; "fun.c"	}while(P01==0); 
00012a   3085     jbset   0x5, 0x1         	JBSET	_P0bits,1
                                           ;; >>> gen.c:5767:genUnpackBits
                                           ;; ***	popGetLabel  key=9, label offset 8
00012b   292a     goto    0x12a            	GOTO	_00117_DS_
                                           ;;; gen.c:2315:resultRemat *{*
                                           ;;; gen.c:2315:resultRemat *{*
                                           ;;; gen.c:2315:resultRemat *{*
                                           ;;; gen.c:6669:genPointerSet *{*
                                           ;; ***	genPointerSet  6670
                                           ;;; gen.c:6488:genNearPointerSet *{*
                                           ;; ***	genNearPointerSet  6489
                                           ;;	613
                                           ;;	aopForRemat 392
                                           ;;	418: rname _P0bits, val 0, const = 0
                                           ;; ***	genNearPointerSet  6504
                                           ;;	833: aopGet AOP_PCODE type PO_IMMEDIATE
                                           ;;	_P0bits
                                           ;; 	line = 6506 result AOP_PCODE=_P0bits, size=2, left -=-, size=0, right AOP_LIT=0x00, size=1
                                           ;;; gen.c:6214:genPackBits *{*
                                           ;; ***	genPackBits  6215
                                           ;;	833: aopGet AOP_PCODE type PO_IMMEDIATE
                                           ;;	_P0bits
                                           ;; >>> gen.c:6240:genPackBits
                                           	.line	52; "fun.c"	P01=0;  
00012c   3c85     bclr    0x5, 0x1         	BCLR	_P0bits,1
                                           ;;; gen.c:2315:resultRemat *{*
                                           ;;; gen.c:2315:resultRemat *{*
                                           ;;; gen.c:6669:genPointerSet *{*
                                           ;; ***	genPointerSet  6670
                                           ;;; gen.c:6488:genNearPointerSet *{*
                                           ;; ***	genNearPointerSet  6489
                                           ;;	613
                                           ;;	aopForRemat 392
                                           ;;	418: rname _P0bits, val 0, const = 0
                                           ;; ***	genNearPointerSet  6504
                                           ;; ***	aopForSym 315
                                           ;;	327 sym->rname = _j, size = 1
                                           ;;	833: aopGet AOP_PCODE type PO_IMMEDIATE
                                           ;;	_P0bits
                                           ;; 	line = 6506 result AOP_PCODE=_P0bits, size=2, left -=-, size=0, right AOP_DIR=_j, size=1
                                           ;;; gen.c:6214:genPackBits *{*
                                           ;; ***	genPackBits  6215
                                           ;; >>> gen.c:6319:genPackBits
                                           ;;	1009
                                           ;;	1024  _j   offset=0 - had to alloc by reg name
                                           	.line	53; "fun.c"	P02=j;   
00012d   1325     rrar    0x25             	RRAR	_j
                                           ;; >>> gen.c:6320:genPackBits
00012e   3003     jbset   0x3, 0           	JBSET	STATUS,0
                                           ;; >>> gen.c:6321:genPackBits
                                           ;;	833: aopGet AOP_PCODE type PO_IMMEDIATE
                                           ;;	_P0bits
00012f   3d05     bclr    0x5, 0x2         	BCLR	_P0bits,2
                                           ;; >>> gen.c:6322:genPackBits
000130   3403     jbclr   0x3, 0           	JBCLR	STATUS,0
                                           ;; >>> gen.c:6323:genPackBits
                                           ;;	833: aopGet AOP_PCODE type PO_IMMEDIATE
                                           ;;	_P0bits
000131   3905     bset    0x5, 0x2         	BSET	_P0bits,2
                                           ;;; gen.c:2315:resultRemat *{*
                                           ;;; gen.c:2759:genLabel *{*
                                           ;; ***	genLabel  2762
                                           ;;; gen.c:2315:resultRemat *{*
                                           ;;; gen.c:2315:resultRemat *{*
                                           ;;; gen.c:6127:genPointerGet *{*
                                           ;; ***	genPointerGet  6128
                                           ;;; gen.c:5909:genNearPointerGet *{*
                                           ;; ***	genNearPointerGet  5910
                                           ;;	613
                                           ;;	aopForRemat 392
                                           ;;	418: rname _P0bits, val 0, const = 0
                                           ;; ***	genNearPointerGet  5926
                                           ;;	694 register type nRegs=1
                                           ;;; gen.c:5743:genUnpackBits *{*
                                           ;; ***	genUnpackBits  5744
                                           ;;	833: aopGet AOP_PCODE type PO_IMMEDIATE
                                           ;;	_P0bits
                                           ;; >>> gen.c:5766:genUnpackBits
                                           _00119_DS_
                                           	.line	57; "fun.c"	}while(P01==0);
000132   3085     jbset   0x5, 0x1         	JBSET	_P0bits,1
                                           ;; >>> gen.c:5767:genUnpackBits
                                           ;; ***	popGetLabel  key=11, label offset 8
000133   2932     goto    0x132            	GOTO	_00119_DS_
                                           ;;; gen.c:2315:resultRemat *{*
                                           ;;; gen.c:2315:resultRemat *{*
                                           ;;; gen.c:2315:resultRemat *{*
                                           ;;; gen.c:6669:genPointerSet *{*
                                           ;; ***	genPointerSet  6670
                                           ;;; gen.c:6488:genNearPointerSet *{*
                                           ;; ***	genNearPointerSet  6489
                                           ;;	613
                                           ;;	aopForRemat 392
                                           ;;	418: rname _P0bits, val 0, const = 0
                                           ;; ***	genNearPointerSet  6504
                                           ;;	833: aopGet AOP_PCODE type PO_IMMEDIATE
                                           ;;	_P0bits
                                           ;; 	line = 6506 result AOP_PCODE=_P0bits, size=2, left -=-, size=0, right AOP_LIT=0x00, size=1
                                           ;;; gen.c:6214:genPackBits *{*
                                           ;; ***	genPackBits  6215
                                           ;;	833: aopGet AOP_PCODE type PO_IMMEDIATE
                                           ;;	_P0bits
                                           ;; >>> gen.c:6240:genPackBits
                                           	.line	58; "fun.c"	P01=0;   
000134   3c85     bclr    0x5, 0x1         	BCLR	_P0bits,1
                                           ;;; gen.c:2315:resultRemat *{*
                                           ;;; gen.c:2315:resultRemat *{*
                                           ;;; gen.c:6669:genPointerSet *{*
                                           ;; ***	genPointerSet  6670
                                           ;;; gen.c:6488:genNearPointerSet *{*
                                           ;; ***	genNearPointerSet  6489
                                           ;;	613
                                           ;;	aopForRemat 392
                                           ;;	418: rname _P0bits, val 0, const = 0
                                           ;; ***	genNearPointerSet  6504
                                           ;;	833: aopGet AOP_PCODE type PO_IMMEDIATE
                                           ;;	_P0bits
                                           ;; 	line = 6506 result AOP_PCODE=_P0bits, size=2, left -=-, size=0, right AOP_LIT=0x01, size=1
                                           ;;; gen.c:6214:genPackBits *{*
                                           ;; ***	genPackBits  6215
                                           ;;	833: aopGet AOP_PCODE type PO_IMMEDIATE
                                           ;;	_P0bits
                                           ;; >>> gen.c:6240:genPackBits
                                           	.line	59; "fun.c"	P00=1;    
000135   3805     bset    0x5, 0           	BSET	_P0bits,0
                                           ;;; gen.c:2315:resultRemat *{*
                                           ;;; gen.c:2759:genLabel *{*
                                           ;; ***	genLabel  2762
                                           ;;; gen.c:2315:resultRemat *{*
                                           ;;; gen.c:2315:resultRemat *{*
                                           ;;; gen.c:6127:genPointerGet *{*
                                           ;; ***	genPointerGet  6128
                                           ;;; gen.c:5909:genNearPointerGet *{*
                                           ;; ***	genNearPointerGet  5910
                                           ;;	613
                                           ;;	aopForRemat 392
                                           ;;	418: rname _P0bits, val 0, const = 0
                                           ;; ***	genNearPointerGet  5926
                                           ;;	694 register type nRegs=1
                                           ;;; gen.c:5743:genUnpackBits *{*
                                           ;; ***	genUnpackBits  5744
                                           ;;	833: aopGet AOP_PCODE type PO_IMMEDIATE
                                           ;;	_P0bits
                                           ;; >>> gen.c:5766:genUnpackBits
                                           _00121_DS_
                                           	.line	63; "fun.c"	}while(P01==0); 
000136   3085     jbset   0x5, 0x1         	JBSET	_P0bits,1
                                           ;; >>> gen.c:5767:genUnpackBits
                                           ;; ***	popGetLabel  key=13, label offset 8
000137   2936     goto    0x136            	GOTO	_00121_DS_
                                           ;;; gen.c:2315:resultRemat *{*
                                           ;;; gen.c:2315:resultRemat *{*
                                           ;;; gen.c:2315:resultRemat *{*
                                           ;;; gen.c:6669:genPointerSet *{*
                                           ;; ***	genPointerSet  6670
                                           ;;; gen.c:6488:genNearPointerSet *{*
                                           ;; ***	genNearPointerSet  6489
                                           ;;	613
                                           ;;	aopForRemat 392
                                           ;;	418: rname _P0bits, val 0, const = 0
                                           ;; ***	genNearPointerSet  6504
                                           ;;	833: aopGet AOP_PCODE type PO_IMMEDIATE
                                           ;;	_P0bits
                                           ;; 	line = 6506 result AOP_PCODE=_P0bits, size=2, left -=-, size=0, right AOP_LIT=0x00, size=1
                                           ;;; gen.c:6214:genPackBits *{*
                                           ;; ***	genPackBits  6215
                                           ;;	833: aopGet AOP_PCODE type PO_IMMEDIATE
                                           ;;	_P0bits
                                           ;; >>> gen.c:6240:genPackBits
                                           	.line	64; "fun.c"	P01=0;    
000138   3c85     bclr    0x5, 0x1         	BCLR	_P0bits,1
                                           ;;; gen.c:2315:resultRemat *{*
                                           ;;; gen.c:2759:genLabel *{*
                                           ;; ***	genLabel  2762
                                           ;;; gen.c:2315:resultRemat *{*
                                           ;;; gen.c:2523:genEndFunction *{*
                                           ;; ***	genEndFunction  2525
000139   000c     return                   	RETURN	
                                           ; exit point of _i2cout
                                           
                                           ;***
                                           ;  pBlock Stats: dbName = C
                                           ;***
                                           ;entry:  _i2cint	;Function start
                                           ; 2 exit points
                                           ;has an exit
                                           ;; Starting pCode block
                                           ;;; gen.c:2315:resultRemat *{*
                                           ;;; gen.c:2759:genLabel *{*
                                           ;; ***	genLabel  2762
                                           ;;; gen.c:2315:resultRemat *{*
                                           ;;; gen.c:2339:genFunction *{*
                                           ;; ***	genFunction  2341 curr label offset=0previous max_key=0 
                                           _i2cint	;Function start
                                           ; 2 exit points
                                           ;;; gen.c:2315:resultRemat *{*
                                           ;;; gen.c:6910:genAssign *{*
                                           ;; ***	genAssign  6911
                                           ;; ***	aopForSym 315
                                           ;;	327 sym->rname = _DDR0, size = 1
                                           ;; 	line = 6920 result AOP_DIR=_DDR0, size=1, left -=-, size=0, right AOP_LIT=0x08, size=1
                                           ;; ***	genAssign  7006
                                           ;; >>> gen.c:7013:genAssign
                                           	.line	27; "fun.c"	DDR0 = 0X08;
00013a   0b08     movai   0x8              	MOVAI	0x08
                                           ;; >>> gen.c:7015:genAssign
                                           ;;	1009
                                           ;;	1028  _DDR0   offset=0
00013b   15c5     dw      0x15c5           	MOVRA	_DDR0
                                           ;;; gen.c:2315:resultRemat *{*
                                           ;;; gen.c:2315:resultRemat *{*
                                           ;;; gen.c:6669:genPointerSet *{*
                                           ;; ***	genPointerSet  6670
                                           ;;; gen.c:6488:genNearPointerSet *{*
                                           ;; ***	genNearPointerSet  6489
                                           ;;	613
                                           ;;	aopForRemat 392
                                           ;;	418: rname _P0bits, val 0, const = 0
                                           ;; ***	genNearPointerSet  6504
                                           ;;	833: aopGet AOP_PCODE type PO_IMMEDIATE
                                           ;;	_P0bits
                                           ;; 	line = 6506 result AOP_PCODE=_P0bits, size=2, left -=-, size=0, right AOP_LIT=0x01, size=1
                                           ;;; gen.c:6214:genPackBits *{*
                                           ;; ***	genPackBits  6215
                                           ;;	833: aopGet AOP_PCODE type PO_IMMEDIATE
                                           ;;	_P0bits
                                           ;; >>> gen.c:6240:genPackBits
                                           	.line	28; "fun.c"	P00 = 1;
00013c   3805     bset    0x5, 0           	BSET	_P0bits,0
                                           ;;; gen.c:2315:resultRemat *{*
                                           ;;; gen.c:2315:resultRemat *{*
                                           ;;; gen.c:6669:genPointerSet *{*
                                           ;; ***	genPointerSet  6670
                                           ;;; gen.c:6488:genNearPointerSet *{*
                                           ;; ***	genNearPointerSet  6489
                                           ;;	613
                                           ;;	aopForRemat 392
                                           ;;	418: rname _P0bits, val 0, const = 0
                                           ;; ***	genNearPointerSet  6504
                                           ;;	833: aopGet AOP_PCODE type PO_IMMEDIATE
                                           ;;	_P0bits
                                           ;; 	line = 6506 result AOP_PCODE=_P0bits, size=2, left -=-, size=0, right AOP_LIT=0x00, size=1
                                           ;;; gen.c:6214:genPackBits *{*
                                           ;; ***	genPackBits  6215
                                           ;;	833: aopGet AOP_PCODE type PO_IMMEDIATE
                                           ;;	_P0bits
                                           ;; >>> gen.c:6240:genPackBits
                                           	.line	29; "fun.c"	P00 = 0;
00013d   3c05     bclr    0x5, 0           	BCLR	_P0bits,0
                                           ;;; gen.c:2315:resultRemat *{*
                                           ;;; gen.c:2759:genLabel *{*
                                           ;; ***	genLabel  2762
                                           ;;; gen.c:2315:resultRemat *{*
                                           ;;; gen.c:2523:genEndFunction *{*
                                           ;; ***	genEndFunction  2525
00013e   000c     return                   	RETURN	
                                           ; exit point of _i2cint
                                           ;;; gen.c:7409:genpic14Code *{*
                                           
                                           
                                           ;	code size estimation:
                                           ;	   38+    0 =    38 instructions (   76 byte)
                                           
                                           	end


MEMORY USAGE MAP ('X' = Used,  '-' = Unused)

0000 : XXXXXXXXXXXXXXXX XXXXXXXXXXXXXXXX XXXXXXXXXXXXXXXX XXXXXXXXXXXXXXXX
0040 : XXXXXXXXXXXXXXXX XXXXXXXXXXXXXXXX XXXXXXXXXXXXXXXX XXXXXXXXXXXXXXXX
0080 : XXXXXXXXXXXXXXXX XXXXXXXXXXXXXXXX XXXXXXXXXXXXXXXX XXXXXXXXXXXXXXXX
00C0 : XXXXXXXXXXXXXXXX XXXXXXXXXXXXXXXX XXXXXXXXXXXXXXXX XXXXXXXXXXXXXXXX
0100 : XXXXXXXXXXXXXXXX XXXXXXXXXXXXXXXX XXXXXXXXXXXXXXXX XXXXXXXXXXXXXXXX
0140 : XXXXXXXXXXXXXXXX XXXXXXXXXXXXXXXX XXXXXXXXXXXXXXXX XXXXXXXXXXXXXXXX
0180 : XXXXXXXXXXXXXXXX XXXXXXXXXXXXXXXX XXXXXXXXXXXXXXXX XXXXXXXXXXXXXXXX
01C0 : XXXXXXXXXXXXXXXX XXXXXXXXXXXXXXXX XXXXXXXXXXXXXXXX XXXXXXXXXXXXXXXX
0200 : XXXXXXXXXXXXXXXX XXXXXXXXXXXXXXXX XXXXXXXXXXXXXXXX XXXXXXXXXXXXXXXX
0240 : XXXXXXXXXXXXXXXX XXXXXXXXXXXXXXXX XXXXXXXXXXXXXXXX XXXXXXXXXXXXXXXX
0280 : XXXXXXXXXXXXXXXX XXXXXXXXXXXXXXXX XXXXXXXXXXXXXXXX XXXXXXXXXXXXXXXX

All other memory blocks unused.

Program Memory Words Used:   352

