gpasm-2.0.0_beta2 (Aug 27 2017)key.asm            2017-10-13  17:26:50         PAGE  1


LOC  OBJECT CODE     LINE SOURCE TEXT
  VALUE

                      00001 ;--------------------------------------------------------
                      00002 ; File Created by SN-SDCC : ANSI-C Compiler
                      00003 ; Version 0.0.4 (Sep 11 2017) (MINGW32)
                      00004 ; This file was generated Fri Oct 13 17:26:50 2017
                      00005 ;--------------------------------------------------------
                      00006 ; MC3X port for the RISC core
                      00007 ;--------------------------------------------------------
                      00008 ;       .file   "key.c"
                      00009         list    p=0311
                      00010         radix dec
                      00011         include "0311.inc"
                      00001                 LIST
                      00002 ;mc30p011.inc    Standard Header File, Version 1.00 by Sinomcu
                      00225                 LIST
                      00012 ;--------------------------------------------------------
                      00013 ; external declarations
                      00014 ;--------------------------------------------------------
                      00015         extern  _WorkOnInit
                      00016         extern  _Detection
                      00017         extern  _Actuation
                      00018         extern  _ConsecutiveFive
                      00019         extern  _init
                      00020         extern  _ClrrRAM
                      00021         extern  _NeedSleep
                      00022         extern  _InitUart
                      00023         extern  _EndUart
                      00024         extern  _UartSendByte
                      00025         extern  _UartDelay
                      00026         extern  _UartSendInt
                      00027         extern  _STATUSbits
                      00028         extern  _P0bits
                      00029         extern  _P1bits
                      00030         extern  _MCRbits
                      00031         extern  _KBIMbits
                      00032         extern  _PDCONbits
                      00033         extern  _ODCONbits
                      00034         extern  _PUCONbits
                      00035         extern  _INTECONbits
                      00036         extern  _INTFLAGbits
                      00037         extern  _T0CRbits
                      00038         extern  _DDR0bits
                      00039         extern  _DDR1bits
                      00040         extern  _TMCRbits
                      00041         extern  _T1CRbits
                      00042         extern  _WorkONInitStep
                      00043         extern  _LEDFlashTimes
                      00044         extern  _LEDFlashSpace
                      00045         extern  _RXDebounce
                      00046         extern  _RXCnt
                      00047         extern  _DetectSpace
                      00048         extern  _DetectStep
                      00049         extern  _SleepCnt
                      00050         extern  _MaxRunTimes
                      00051         extern  _MaxMotorTimes
                      00052         extern  _MotorFiveCnt
                      00053         extern  _PositionDelay
                      00054         extern  _Flag1
                      00055         extern  _Flag2
                      00056         extern  _UartStep
                      00057         extern  _UartTemp
                      00058         extern  _INDF
                      00059         extern  _T0CNT
                      00060         extern  _PCL
                      00061         extern  _STATUS
                      00062         extern  _FSR
                      00063         extern  _P0
                      00064         extern  _P1
                      00065         extern  _MCR
                      00066         extern  _KBIM
                      00067         extern  _PCLATH
                      00068         extern  _PDCON
                      00069         extern  _ODCON
                      00070         extern  _PUCON
                      00071         extern  _INTECON
                      00072         extern  _INTFLAG
                      00073         extern  _T0CR
                      00074         extern  _DDR0
                      00075         extern  _DDR1
                      00076         extern  _TMCR
                      00077         extern  _T1CR
                      00078         extern  _T1CNT
                      00079         extern  _T1LOAD
                      00080         extern  _T1DATA
                      00081 
                      00082         extern STK06
                      00083         extern STK05
                      00084         extern STK04
                      00085         extern STK03
                      00086         extern STK02
                      00087         extern STK01
                      00088         extern STK00
                      00089 ;--------------------------------------------------------
                      00090 ; global declarations
                      00091 ;--------------------------------------------------------
                      00092         global  _KeyScan
                      00093         global  _KeyNew
                      00094         global  _KeyOld
                      00095         global  _KeyDebounce
                      00096 
                      00097 ;--------------------------------------------------------
                      00098 ; global definitions
                      00099 ;--------------------------------------------------------
                      00100 UD_key_0        udata
0000                  00101 _KeyNew res     1
                      00102 
                      00103 UD_key_1        udata
0000                  00104 _KeyOld res     1
                      00105 
                      00106 UD_key_2        udata
0000                  00107 _KeyDebounce    res     1
                      00108 
                      00109 ;--------------------------------------------------------
                      00110 ; absolute symbol definitions
                      00111 ;--------------------------------------------------------
                      00112 ;--------------------------------------------------------
                      00113 ; compiler-defined variables
                      00114 ;--------------------------------------------------------
                      00115 ;--------------------------------------------------------
                      00116 ; initialized data
                      00117 ;--------------------------------------------------------
                      00118 
                      00119 ;@Allocation info for local variables in function 'KeyScan'
                      00120 ;@KeyScan WorkOnInit                Allocated to registers ;size:2
                      00121 ;@KeyScan Detection                 Allocated to registers ;size:2
                      00122 ;@KeyScan Actuation                 Allocated to registers ;size:2
                      00123 ;@KeyScan ConsecutiveFive           Allocated to registers ;size:2
                      00124 ;@KeyScan init                      Allocated to registers ;size:2
                      00125 ;@KeyScan ClrrRAM                   Allocated to registers ;size:2
                      00126 ;@KeyScan NeedSleep                 Allocated to registers ;size:2
                      00127 ;@KeyScan InitUart                  Allocated to registers ;size:2
                      00128 ;@KeyScan EndUart                   Allocated to registers ;size:2
                      00129 ;@KeyScan UartSendByte              Allocated to registers ;size:2
                      00130 ;@KeyScan UartDelay                 Allocated to registers ;size:2
                      00131 ;@KeyScan UartSendInt               Allocated to registers ;size:2
                      00132 ;@KeyScan STATUSbits                Allocated to registers ;size:1
                      00133 ;@KeyScan P0bits                    Allocated to registers ;size:1
                      00134 ;@KeyScan P1bits                    Allocated to registers ;size:1
                      00135 ;@KeyScan MCRbits                   Allocated to registers ;size:1
                      00136 ;@KeyScan KBIMbits                  Allocated to registers ;size:1
                      00137 ;@KeyScan PDCONbits                 Allocated to registers ;size:1
                      00138 ;@KeyScan ODCONbits                 Allocated to registers ;size:1
                      00139 ;@KeyScan PUCONbits                 Allocated to registers ;size:1
                      00140 ;@KeyScan INTECONbits               Allocated to registers ;size:1
                      00141 ;@KeyScan INTFLAGbits               Allocated to registers ;size:1
                      00142 ;@KeyScan T0CRbits                  Allocated to registers ;size:1
                      00143 ;@KeyScan DDR0bits                  Allocated to registers ;size:1
                      00144 ;@KeyScan DDR1bits                  Allocated to registers ;size:1
                      00145 ;@KeyScan TMCRbits                  Allocated to registers ;size:1
                      00146 ;@KeyScan T1CRbits                  Allocated to registers ;size:1
                      00147 ;@KeyScan WorkONInitStep            Allocated to registers ;size:1
                      00148 ;@KeyScan LEDFlashTimes             Allocated to registers ;size:1
                      00149 ;@KeyScan LEDFlashSpace             Allocated to registers ;size:1
                      00150 ;@KeyScan RXDebounce                Allocated to registers ;size:1
                      00151 ;@KeyScan RXCnt                     Allocated to registers ;size:1
                      00152 ;@KeyScan DetectSpace               Allocated to registers ;size:1
                      00153 ;@KeyScan DetectStep                Allocated to registers ;size:1
                      00154 ;@KeyScan SleepCnt                  Allocated to registers ;size:1
                      00155 ;@KeyScan MaxRunTimes               Allocated to registers ;size:2
                      00156 ;@KeyScan MaxMotorTimes             Allocated to registers ;size:2
                      00157 ;@KeyScan MotorFiveCnt              Allocated to registers ;size:1
                      00158 ;@KeyScan PositionDelay             Allocated to registers ;size:1
                      00159 ;@KeyScan Flag1                     Allocated to registers ;size:1
                      00160 ;@KeyScan Flag2                     Allocated to registers ;size:1
                      00161 ;@KeyScan UartStep                  Allocated to registers ;size:1
                      00162 ;@KeyScan UartTemp                  Allocated to registers ;size:1
                      00163 ;@KeyScan KeyNew                    Allocated to registers ;size:1
                      00164 ;@KeyScan KeyOld                    Allocated to registers ;size:1
                      00165 ;@KeyScan KeyDebounce               Allocated to registers ;size:1
                      00166 ;@KeyScan INDF                      Allocated to registers ;size:1
                      00167 ;@KeyScan T0CNT                     Allocated to registers ;size:1
                      00168 ;@KeyScan PCL                       Allocated to registers ;size:1
                      00169 ;@KeyScan STATUS                    Allocated to registers ;size:1
                      00170 ;@KeyScan FSR                       Allocated to registers ;size:1
                      00171 ;@KeyScan P0                        Allocated to registers ;size:1
                      00172 ;@KeyScan P1                        Allocated to registers ;size:1
                      00173 ;@KeyScan MCR                       Allocated to registers ;size:1
                      00174 ;@KeyScan KBIM                      Allocated to registers ;size:1
                      00175 ;@KeyScan PCLATH                    Allocated to registers ;size:1
                      00176 ;@KeyScan PDCON                     Allocated to registers ;size:1
                      00177 ;@KeyScan ODCON                     Allocated to registers ;size:1
                      00178 ;@KeyScan PUCON                     Allocated to registers ;size:1
                      00179 ;@KeyScan INTECON                   Allocated to registers ;size:1
                      00180 ;@KeyScan INTFLAG                   Allocated to registers ;size:1
                      00181 ;@KeyScan T0CR                      Allocated to registers ;size:1
                      00182 ;@KeyScan DDR0                      Allocated to registers ;size:1
                      00183 ;@KeyScan DDR1                      Allocated to registers ;size:1
                      00184 ;@KeyScan TMCR                      Allocated to registers ;size:1
                      00185 ;@KeyScan T1CR                      Allocated to registers ;size:1
                      00186 ;@KeyScan T1CNT                     Allocated to registers ;size:1
                      00187 ;@KeyScan T1LOAD                    Allocated to registers ;size:1
                      00188 ;@KeyScan T1DATA                    Allocated to registers ;size:1
                      00189 ;@end Allocation info for local variables in function 'KeyScan';
                      00190 
                      00191 ;--------------------------------------------------------
                      00192 ; overlayable items in internal ram 
                      00193 ;--------------------------------------------------------
                      00194 ;       udata_ovr
                      00195 ;--------------------------------------------------------
                      00196 ; code
                      00197 ;--------------------------------------------------------
                      00198 code_key        code
                      00199 ;***
                      00200 ;  pBlock Stats: dbName = C
                      00201 ;***
                      00202 ;entry:  _KeyScan       ;Function start
                      00203 ; 2 exit points
                      00204 ;has an exit
                      00205 ;; Starting pCode block
0000                  00206 _KeyScan        ;Function start
                      00207 ; 2 exit points
                      00208 ;       .line   11; "key.c"     if(fKeyT)
0000   3000           00209         JBSET   _Flag2,0
0001   2800           00210         GOTO    _00118_DS_
                      00211 ;       .line   13; "key.c"     fKeyT = 0;
0002   3C00           00212         BCLR    _Flag2,0
                      00213 ;       .line   14; "key.c"     if(ON_OFF)
0003   3100           00214         JBSET   _P0bits,2
0004   2800           00215         GOTO    _00106_DS_
                      00216 ;       .line   16; "key.c"     KeyNew = 0x00;
0005   1D80           00217         CLRR    _KeyNew
0006   2800           00218         GOTO    _00107_DS_
0007                  00219 _00106_DS_
                      00220 ;       .line   20; "key.c"     KeyNew = 0x01;
0007   0B01           00221         MOVAI   0x01
0008   1580           00222         MOVRA   _KeyNew
0009                  00223 _00107_DS_
                      00224 ;       .line   23; "key.c"     if(KeyNew != KeyOld)
0009   1600           00225         MOVAR   _KeyOld
000A   1000           00226         XORAR   _KeyNew
000B   3103           00227         JBSET   STATUS,2
000C   2800           00228         GOTO    _00130_DS_
000D   2800           00229         GOTO    _00114_DS_
000E                  00230 _00130_DS_
                      00231 ;       .line   25; "key.c"     KeyDebounce++;
000E   1980           00232         INCR    _KeyDebounce
                      00233 ;;swapping arguments (AOP_TYPEs 1/3)
                      00234 ;;unsigned compare: left >= lit(0x15=21), size=1
                      00235 ;       .line   26; "key.c"     if(KeyDebounce > 20)
000F   0B15           00236         MOVAI   0x15
0010   1200           00237         RSUBAR  _KeyDebounce
0011   3003           00238         JBSET   STATUS,0
0012   2800           00239         GOTO    _00118_DS_
                      00240 ;;genSkipc:3193: created from rifx:00CC608C
                      00241 ;       .line   28; "key.c"     KeyDebounce = 0;
0013   1D80           00242         CLRR    _KeyDebounce
                      00243 ;       .line   29; "key.c"     KeyOld = KeyNew;
0014   1600           00244         MOVAR   _KeyNew
0015   1580           00245         MOVRA   _KeyOld
                      00246 ;       .line   30; "key.c"     if(KeyOld == 0x01)
0016   1600           00247         MOVAR   _KeyOld
0017   0801           00248         XORAI   0x01
0018   3103           00249         JBSET   STATUS,2
0019   2800           00250         GOTO    _00109_DS_
                      00251 ;       .line   32; "key.c"     fWorkON = 1;
001A   3880           00252         BSET    _Flag2,1
                      00253 ;       .line   33; "key.c"     fWorkONInit = 1;
001B   3900           00254         BSET    _Flag2,2
                      00255 ;       .line   34; "key.c"     fDetection = 0;
001C   3C80           00256         BCLR    _Flag1,1
                      00257 ;       .line   35; "key.c"     WorkONInitStep = 0;
001D   1D80           00258         CLRR    _WorkONInitStep
001E   2800           00259         GOTO    _00118_DS_
001F                  00260 _00109_DS_
                      00261 ;       .line   39; "key.c"     fWorkON = 0;
001F   3C80           00262         BCLR    _Flag2,1
                      00263 ;       .line   40; "key.c"     LEDOFF();
0020   3880           00264         BSET    _P0bits,1
0021   3900           00265         BSET    _P0bits,2
                      00266 ;       .line   41; "key.c"     RXDIS();
0022   3880           00267         BSET    _P0bits,1
                      00268 ;       .line   42; "key.c"     TXDIS();
0023   3A00           00269         BSET    _P1bits,4
0024   3980           00270         BSET    _P1bits,3
0025   2800           00271         GOTO    _00118_DS_
0026                  00272 _00114_DS_
                      00273 ;       .line   48; "key.c"     KeyDebounce = 0;
0026   1D80           00274         CLRR    _KeyDebounce
0027                  00275 _00118_DS_
0027   000C           00276         RETURN  
                      00277 ; exit point of _KeyScan
                      00278 
                      00279 
                      00280 ;       code size estimation:
                      00281 ;          40+    0 =    40 instructions (   80 byte)
                      00282 
                      00283         end
gpasm-2.0.0_beta2 (Aug 27 2017)key.asm            2017-10-13  17:26:50         PAGE  2


SYMBOL TABLE
  LABEL                             VALUE

BUZOUT                            00000005
C                                 00000000
DC                                00000001
DDR0                              00000045
DDR00                             00000000
DDR01                             00000001
DDR02                             00000002
DDR03                             00000003
DDR1                              00000046
DDR10                             00000000
DDR11                             00000001
DDR12                             00000002
DDR14                             00000004
DDR15                             00000005
DDR16                             00000006
DDR17                             00000007
EIS                               00000006
FSR                               00000004
GIE                               00000007
INDF                              00000000
INT0IE                            00000002
INT0IF                            00000002
INT0M                             00000006
INTECON                           0000000E
INTFLAG                           0000000F
KBIE                              00000001
KBIF                              00000001
KBIM                              00000009
KBIM0                             00000000
KBIM1                             00000001
KBIM2                             00000002
KBIM3                             00000003
KBIM4                             00000004
KBIM5                             00000005
KBIM6                             00000006
KBIM7                             00000007
MCR                               00000008
ODCON                             0000000C
P0                                00000005
P00                               00000000
P00PD                             00000000
P01                               00000001
P01PD                             00000001
P02                               00000002
P02PD                             00000002
P03                               00000003
P03PD                             00000003
P1                                00000006
P10                               00000000
P10OD                             00000000
P10PD                             00000004
P10PU                             00000000
P11                               00000001
P11OD                             00000001
P11PD                             00000005
P11PU                             00000001
P12                               00000002
P12OD                             00000002
P12PD                             00000006
P12PU                             00000002
P13                               00000003
P14                               00000004
P14OD                             00000004
P14PU                             00000004
P15                               00000005
P15OD                             00000005
P15PU                             00000005
P16                               00000006
P16OD                             00000006
P16PU                             00000006
P17                               00000007
P17OD                             00000007
P17PU                             00000007
PCL                               00000002
PCLATH                            0000000A
PD                                00000003
PDCON                             0000000B
PUCON                             0000000D
PWMOUT                            00000006
RST                               00000007
STATUS                            00000003
STK00                             00000000
STK01                             00000000
STK02                             00000000
STK03                             00000000
STK04                             00000000
STK05                             00000000
STK06                             00000000
T0CNT                             00000001
T0CR                              00000041
T0IE                              00000000
T0IF                              00000000
T0PTA                             00000003
T0PTS                             00000005
T0SE                              00000004
T1CNT                             0000004D
T1CR                              0000004C
T1DATA                            0000004F
T1IE                              00000001
T1IF                              00000000
T1LOAD                            0000004E
TBS                               00000007
TMCR                              0000004B
TMR1EN                            00000007
TO                                00000004
WDTEN                             00000007
Z                                 00000002
_00106_DS_                        00000007
_00107_DS_                        00000009
_00109_DS_                        0000001F
_00114_DS_                        00000026
_00118_DS_                        00000027
_00130_DS_                        0000000E
_Actuation                        00000000
_CONFIG0                          00002000
_CONFIG1                          00002001
_CP_ALL                           00001FFF
_ClrrRAM                          00000000
_ConsecutiveFive                  00000000
_DDR0                             00000000
_DDR0bits                         00000000
_DDR1                             00000000
_DDR1bits                         00000000
_DetectSpace                      00000000
_DetectStep                       00000000
_Detection                        00000000
_EndUart                          00000000
_FCPU_2T                          00003F7F
_FCPU_4T                          00003FFF
_FSR                              00000000
_Flag1                            00000000
_Flag2                            00000000
_INDF                             00000000
_INTECON                          00000000
_INTECONbits                      00000000
_INTFLAG                          00000000
_INTFLAGbits                      00000000
_IRC_1M                           00003FCF
_IRC_2M                           00003FDF
_IRC_444K                         00003FAF
_IRC_4M                           00003FEF
_IRC_8M                           00003FFF
_InitUart                         00000000
_KBIM                             00000000
_KBIMbits                         00000000
_KeyDebounce                      00000000
_KeyNew                           00000000
_KeyOld                           00000000
_KeyScan                          00000000
_LEDFlashSpace                    00000000
_LEDFlashTimes                    00000000
_MCLR_OFF                         00003FF7
_MCLR_ON                          00003FFF
_MCR                              00000000
_MCRbits                          00000000
_MaxMotorTimes                    00000000
_MaxRunTimes                      00000000
_MotorFiveCnt                     00000000
_NeedSleep                        00000000
_ODCON                            00000000
_ODCONbits                        00000000
_OSC_HXT                          00002FFF
_OSC_IRC                          000037FF
_OSC_IRC_RTC                      00003FFF
_OSC_LXT                          000027FF
_P0                               00000000
_P0bits                           00000000
_P1                               00000000
_P1bits                           00000000
_PCL                              00000000
_PCLATH                           00000000
_PDCON                            00000000
_PDCONbits                        00000000
_PUCON                            00000000
_PUCONbits                        00000000
_PWRT_OFF                         00003BFF
_PWRT_ON                          00003FFF
_PositionDelay                    00000000
_RD_FROM_PIN                      00003FFF
_RD_FROM_REG                      00003EFF
_RXCnt                            00000000
_RXDebounce                       00000000
_SMT_OFF                          00003FFF
_SMT_ON                           00003DFF
_STATUS                           00000000
_STATUSbits                       00000000
_SleepCnt                         00000000
_T0CNT                            00000000
_T0CR                             00000000
_T0CRbits                         00000000
_T1CNT                            00000000
_T1CR                             00000000
_T1CRbits                         00000000
_T1DATA                           00000000
_T1LOAD                           00000000
_TMCR                             00000000
_TMCRbits                         00000000
_TWDT_18MS                        00003FFF
_TWDT_288MS                       00003DFF
_TWDT_4P5MS                       00003EFF
_TWDT_72MS                        00003CFF
_UartDelay                        00000000
_UartSendByte                     00000000
_UartSendInt                      00000000
_UartStep                         00000000
_UartTemp                         00000000
_VBOR_15                          00003FF8
_VBOR_18                          00003FF9
_VBOR_20                          00003FFA
_VBOR_22                          00003FFB
_VBOR_24                          00003FFC
_VBOR_26                          00003FFD
_VBOR_30                          00003FFE
_VBOR_36                          00003FFF
_WDT_OFF                          000037FF
_WDT_ON                           00003FFF
_WorkONInitStep                   00000000
_WorkOnInit                       00000000
__30P011                          00000001
_init                             00000000

Errors   :     0
Warnings :     0 reported,     0 suppressed
Messages :     0 reported,     0 suppressed

