gpasm-2.0.0_beta2 (Nov  6 2017)3S4SVoltmeter2.asm 2018-5-29  13:34:37          PAGE  1


LOC  OBJECT CODE     LINE SOURCE TEXT
  VALUE

                      00001 ;--------------------------------------------------------
                      00002 ; File Created by SN-SDCC : SinoMCU ANSI-C Compiler
                      00003 ; Version 1.1.3 (May 29 2018) (MINGW32)
                      00004 ; This file was generated Tue May 29 13:34:37 2018
                      00005 ;--------------------------------------------------------
                      00006 ; MC32 port for the RISC core
                      00007 ;--------------------------------------------------------
                      00008 ;       .file   "3S4SVoltmeter2.c"
                      00009         list    p=7333
                      00010         radix dec
                      00011         include "7333.inc"
                      00001                 LIST
                      00002 ;mc32f7343.inc    Standard Header File, Version 1.00 by Sinomcu
                      00783                 LIST
                      00012 ;--------------------------------------------------------
                      00013 ; external declarations
                      00014 ;--------------------------------------------------------
                      00015         extern  __mulint
                      00016         extern  _INDF0bits
                      00017         extern  _INDF1bits
                      00018         extern  _INDF2bits
                      00019         extern  _HIBYTEbits
                      00020         extern  _FSR0bits
                      00021         extern  _FSR1bits
                      00022         extern  _PCLbits
                      00023         extern  _PFLAGbits
                      00024         extern  _MCRbits
                      00025         extern  _INDF3bits
                      00026         extern  _INTEbits
                      00027         extern  _INTFbits
                      00028         extern  _OSCMbits
                      00029         extern  _INTE1bits
                      00030         extern  _INTF1bits
                      00031         extern  _KBCRbits
                      00032         extern  _IOP0bits
                      00033         extern  _OEP0bits
                      00034         extern  _PUP0bits
                      00035         extern  _PDP0bits
                      00036         extern  _IOP1bits
                      00037         extern  _OEP1bits
                      00038         extern  _PUP1bits
                      00039         extern  _PDP1bits
                      00040         extern  _IOP2bits
                      00041         extern  _OEP2bits
                      00042         extern  _PUP2bits
                      00043         extern  _PDP2bits
                      00044         extern  _T0CRbits
                      00045         extern  _T0CNTbits
                      00046         extern  _T0LOADbits
                      00047         extern  _T0DATAbits
                      00048         extern  _T1CRbits
                      00049         extern  _T1CNTHbits
                      00050         extern  _T1CNTLbits
                      00051         extern  _T1LOADHbits
                      00052         extern  _T1LOADLbits
                      00053         extern  _T1DATAHbits
                      00054         extern  _T1DATALbits
                      00055         extern  _IICCRbits
                      00056         extern  _IICSRbits
                      00057         extern  _IICDRbits
                      00058         extern  _EECRbits
                      00059         extern  _EEMASKbits
                      00060         extern  _EEARbits
                      00061         extern  _EEDRbits
                      00062         extern  _ADCR0bits
                      00063         extern  _ADCR1bits
                      00064         extern  _ADRHbits
                      00065         extern  _ADRLbits
                      00066         extern  _ADIOS0bits
                      00067         extern  _ADIOS1bits
                      00068         extern  _OSADJCRbits
                      00069         extern  _T2CRbits
                      00070         extern  _T2CNTHbits
                      00071         extern  _T2CNTLbits
                      00072         extern  _T2LOADHbits
                      00073         extern  _T2LOADLbits
                      00074         extern  _T3CRbits
                      00075         extern  _T3CNTbits
                      00076         extern  _T3LOADbits
                      00077         extern  _SCONbits
                      00078         extern  _SBUFbits
                      00079         extern  _SADDRbits
                      00080         extern  _SADENbits
                      00081         extern  _INDF0
                      00082         extern  _INDF1
                      00083         extern  _INDF2
                      00084         extern  _HIBYTE
                      00085         extern  _FSR0
                      00086         extern  _FSR1
                      00087         extern  _PCL
                      00088         extern  _PFLAG
                      00089         extern  _MCR
                      00090         extern  _INDF3
                      00091         extern  _INTE
                      00092         extern  _INTF
                      00093         extern  _OSCM
                      00094         extern  _INTE1
                      00095         extern  _INTF1
                      00096         extern  _KBCR
                      00097         extern  _IOP0
                      00098         extern  _OEP0
                      00099         extern  _PUP0
                      00100         extern  _PDP0
                      00101         extern  _IOP1
                      00102         extern  _OEP1
                      00103         extern  _PUP1
                      00104         extern  _PDP1
                      00105         extern  _IOP2
                      00106         extern  _OEP2
                      00107         extern  _PUP2
                      00108         extern  _PDP2
                      00109         extern  _T0CR
                      00110         extern  _T0CNT
                      00111         extern  _T0LOAD
                      00112         extern  _T0DATA
                      00113         extern  _T1CR
                      00114         extern  _T1CNTH
                      00115         extern  _T1CNTL
                      00116         extern  _T1LOADH
                      00117         extern  _T1LOADL
                      00118         extern  _T1DATAH
                      00119         extern  _T1DATAL
                      00120         extern  _IICCR
                      00121         extern  _IICSR
                      00122         extern  _IICDR
                      00123         extern  _EECR
                      00124         extern  _EEMASK
                      00125         extern  _EEAR
                      00126         extern  _EEDR
                      00127         extern  _ADCR0
                      00128         extern  _ADCR1
                      00129         extern  _ADRH
                      00130         extern  _ADRL
                      00131         extern  _ADIOS0
                      00132         extern  _ADIOS1
                      00133         extern  _OSADJCR
                      00134         extern  _T2CR
                      00135         extern  _T2CNTH
                      00136         extern  _T2CNTL
                      00137         extern  _T2LOADH
                      00138         extern  _T2LOADL
                      00139         extern  _T3CR
                      00140         extern  _T3CNT
                      00141         extern  _T3LOAD
                      00142         extern  _SCON
                      00143         extern  _SBUF
                      00144         extern  _SADDR
                      00145         extern  _SADEN
                      00146         extern  __mulchar
                      00147         extern  __gptrget1
                      00148 ;--------------------------------------------------------
                      00149 ; global declarations
                      00150 ;--------------------------------------------------------
                      00151         global  _Delay1mS_1M
                      00152         global  _SampleRelatedChannel
                      00153         global  _initial
                      00154         global  _InitRam
                      00155         global  _AD_Init_mode
                      00156         global  _All_Adc_Convert
                      00157         global  _ADC_Value_Ratio
                      00158         global  _LCD_write_hanzi
                      00159         global  _LCD_write_shu57
                      00160         global  _LCD_clear
                      00161         global  _LCD_set_XY
                      00162         global  _LCD_init
                      00163         global  _LCD_write_byte
                      00164         global  _EEPROM_Write
                      00165         global  _EEPROM_Read
                      00166         global  _main
                      00167         global  _int_isr
                      00168         global  _Flag1
                      00169         global  _ABuf
                      00170         global  _StatusBuf
                      00171         global  _AD_Init
                      00172         global  _Data_OSADJCR
                      00173         global  _ADH_temp
                      00174         global  _ADL_temp
                      00175         global  _BT_VIN_AD
                      00176         global  _B3_VIN_AD
                      00177         global  _B2_VIN_AD
                      00178         global  _B1_VIN_AD
                      00179         global  _IO_AD
                      00180         global  _SEC_VIN_AD
                      00181         global  _NTC_AD
                      00182         global  _BT_Single_VIN_AD
                      00183         global  _B3_Single_VIN_AD
                      00184         global  _B2_Single_VIN_AD
                      00185         global  _B1_Single_VIN_AD
                      00186         global  _BT_Ratio_VIN_AD
                      00187         global  _B3_Ratio_VIN_AD
                      00188         global  _B2_Ratio_VIN_AD
                      00189         global  _B1_Ratio_VIN_AD
                      00190         global  _EEPROM_Data_Value
                      00191         global  _ADC_Ratio_Inter_JI
                      00192         global  _LooP_JI
                      00193         global  _Ratio_Flag1_A5
                      00194         global  _Ratio_Flag2_CA
                      00195         global  _Read_EEPROM_Temp_H
                      00196         global  _Read_EEPROM_Temp_L
                      00197         global  _shuzi57
                      00198         global  _hanzi
                      00199 
                      00200         global STK06
                      00201         global STK05
                      00202         global STK04
                      00203         global STK03
                      00204         global STK02
                      00205         global STK01
                      00206         global STK00
                      00207 
                      00208 sharebank udata_ovr 0x0000
0000                  00209 STK06   res 1
0000                  00210 STK05   res 1
0001                  00211 STK04   res 1
0001                  00212 STK03   res 1
0002                  00213 STK02   res 1
0002                  00214 STK01   res 1
0003                  00215 STK00   res 1
                      00216 
                      00217 ;--------------------------------------------------------
                      00218 ; global definitions
                      00219 ;--------------------------------------------------------
                      00220 UD_3S4SVoltmeter2_0     udata
0000                  00221 _Flag1  res     1
                      00222 
                      00223 UD_3S4SVoltmeter2_1     udata
0000                  00224 _ABuf   res     1
                      00225 
                      00226 UD_3S4SVoltmeter2_2     udata
0000                  00227 _StatusBuf      res     1
                      00228 
                      00229 UD_3S4SVoltmeter2_3     udata
0000                  00230 _AD_Init        res     2
                      00231 
                      00232 UD_3S4SVoltmeter2_4     udata
0000                  00233 _Data_OSADJCR   res     1
                      00234 
                      00235 UD_3S4SVoltmeter2_5     udata
0000                  00236 _ADH_temp       res     1
                      00237 
                      00238 UD_3S4SVoltmeter2_6     udata
0000                  00239 _ADL_temp       res     1
                      00240 
                      00241 UD_3S4SVoltmeter2_7     udata
0000                  00242 _BT_VIN_AD      res     2
                      00243 
                      00244 UD_3S4SVoltmeter2_8     udata
0000                  00245 _B3_VIN_AD      res     2
                      00246 
                      00247 UD_3S4SVoltmeter2_9     udata
0000                  00248 _B2_VIN_AD      res     2
                      00249 
                      00250 UD_3S4SVoltmeter2_10    udata
0000                  00251 _B1_VIN_AD      res     2
                      00252 
                      00253 UD_3S4SVoltmeter2_11    udata
0000                  00254 _IO_AD  res     2
                      00255 
                      00256 UD_3S4SVoltmeter2_12    udata
0000                  00257 _SEC_VIN_AD     res     2
                      00258 
                      00259 UD_3S4SVoltmeter2_13    udata
0000                  00260 _NTC_AD res     2
                      00261 
                      00262 UD_3S4SVoltmeter2_14    udata
0000                  00263 _BT_Single_VIN_AD       res     2
                      00264 
                      00265 UD_3S4SVoltmeter2_15    udata
0000                  00266 _B3_Single_VIN_AD       res     2
                      00267 
                      00268 UD_3S4SVoltmeter2_16    udata
0000                  00269 _B2_Single_VIN_AD       res     2
                      00270 
                      00271 UD_3S4SVoltmeter2_17    udata
0000                  00272 _B1_Single_VIN_AD       res     2
                      00273 
                      00274 UD_3S4SVoltmeter2_18    udata
0000                  00275 _BT_Ratio_VIN_AD        res     2
                      00276 
                      00277 UD_3S4SVoltmeter2_19    udata
0000                  00278 _B3_Ratio_VIN_AD        res     2
                      00279 
                      00280 UD_3S4SVoltmeter2_20    udata
0000                  00281 _B2_Ratio_VIN_AD        res     2
                      00282 
                      00283 UD_3S4SVoltmeter2_21    udata
0000                  00284 _B1_Ratio_VIN_AD        res     2
                      00285 
                      00286 UD_3S4SVoltmeter2_22    udata
0000                  00287 _EEPROM_Data_Value      res     1
                      00288 
                      00289 UD_3S4SVoltmeter2_23    udata
0000                  00290 _ADC_Ratio_Inter_JI     res     1
                      00291 
                      00292 UD_3S4SVoltmeter2_24    udata
0000                  00293 _LooP_JI        res     1
                      00294 
                      00295 UD_3S4SVoltmeter2_25    udata
0000                  00296 _Ratio_Flag1_A5 res     1
                      00297 
                      00298 UD_3S4SVoltmeter2_26    udata
0000                  00299 _Ratio_Flag2_CA res     1
                      00300 
                      00301 UD_3S4SVoltmeter2_27    udata
0000                  00302 _Read_EEPROM_Temp_H     res     1
                      00303 
                      00304 UD_3S4SVoltmeter2_28    udata
0000                  00305 _Read_EEPROM_Temp_L     res     1
                      00306 
                      00307 ;--------------------------------------------------------
                      00308 ; absolute symbol definitions
                      00309 ;--------------------------------------------------------
                      00310 ;--------------------------------------------------------
                      00311 ; compiler-defined variables
                      00312 ;--------------------------------------------------------
                      00313 UDL_3S4SVoltmeter2_0    udata
0000                  00314 r0x1060 res     1
0000                  00315 r0x1061 res     1
0001                  00316 r0x1062 res     1
0001                  00317 r0x1063 res     1
0002                  00318 r0x1064 res     1
0002                  00319 r0x1065 res     1
0003                  00320 r0x103D res     1
0003                  00321 r0x104E res     1
0004                  00322 r0x104F res     1
0004                  00323 r0x1050 res     1
0005                  00324 r0x1051 res     1
0005                  00325 r0x105E res     1
0006                  00326 r0x105F res     1
0006                  00327 r0x1059 res     1
0007                  00328 r0x105A res     1
0007                  00329 r0x105B res     1
0008                  00330 r0x105C res     1
0008                  00331 r0x105D res     1
0009                  00332 r0x1052 res     1
0009                  00333 r0x1053 res     1
000A                  00334 r0x1054 res     1
000A                  00335 r0x1055 res     1
000B                  00336 r0x1056 res     1
000B                  00337 r0x1057 res     1
000C                  00338 r0x1058 res     1
000C                  00339 r0x103E res     1
000D                  00340 r0x103F res     1
000D                  00341 r0x1040 res     1
000E                  00342 r0x1041 res     1
000E                  00343 r0x1042 res     1
000F                  00344 r0x1043 res     1
000F                  00345 r0x1045 res     1
0010                  00346 r0x1044 res     1
0010                  00347 r0x1046 res     1
0011                  00348 r0x1047 res     1
0011                  00349 r0x1048 res     1
0012                  00350 r0x1049 res     1
0012                  00351 r0x104A res     1
0013                  00352 r0x104B res     1
0013                  00353 r0x104C res     1
0014                  00354 r0x104D res     1
0014                  00355 r0x1037 res     1
0015                  00356 r0x1038 res     1
0015                  00357 r0x1039 res     1
0016                  00358 r0x103A res     1
0016                  00359 r0x103C res     1
0017                  00360 r0x103B res     1
0017                  00361 r0x102A res     1
0018                  00362 r0x102B res     1
0018                  00363 r0x102C res     1
0019                  00364 r0x102D res     1
0019                  00365 r0x102E res     1
001A                  00366 r0x102F res     1
001A                  00367 r0x1030 res     1
001B                  00368 r0x1031 res     1
001B                  00369 r0x1032 res     1
001C                  00370 r0x1033 res     1
001C                  00371 r0x1034 res     1
001D                  00372 r0x1036 res     1
001D                  00373 r0x1035 res     1
001E                  00374 r0x1028 res     1
001E                  00375 r0x1027 res     1
001F                  00376 r0x1029 res     1
                      00377 ;--------------------------------------------------------
                      00378 ; initialized data
                      00379 ;--------------------------------------------------------
                      00380 
                      00381 ID_3S4SVoltmeter2_0     code
0000                  00382 _shuzi57
0000   003E           00383         dw 0x3e
0001   0051           00384         dw 0x51
0002   0049           00385         dw 0x49
0003   0045           00386         dw 0x45
0004   003E           00387         dw 0x3e
0005   0000           00388         dw 0x00
0006   0042           00389         dw 0x42
0007   007F           00390         dw 0x7f
0008   0040           00391         dw 0x40
0009   0000           00392         dw 0x00
000A   0042           00393         dw 0x42
000B   0061           00394         dw 0x61
000C   0051           00395         dw 0x51
000D   0049           00396         dw 0x49
000E   0046           00397         dw 0x46
000F   0021           00398         dw 0x21
0010   0041           00399         dw 0x41
0011   0045           00400         dw 0x45
0012   004B           00401         dw 0x4b
0013   0031           00402         dw 0x31
0014   0018           00403         dw 0x18
0015   0014           00404         dw 0x14
0016   0012           00405         dw 0x12
0017   007F           00406         dw 0x7f
0018   0010           00407         dw 0x10
0019   0027           00408         dw 0x27
001A   0045           00409         dw 0x45
001B   0045           00410         dw 0x45
001C   0045           00411         dw 0x45
001D   0039           00412         dw 0x39
001E   003C           00413         dw 0x3c
001F   004A           00414         dw 0x4a
0020   0049           00415         dw 0x49
0021   0049           00416         dw 0x49
0022   0030           00417         dw 0x30
0023   0001           00418         dw 0x01
0024   0071           00419         dw 0x71
0025   0009           00420         dw 0x09
0026   0005           00421         dw 0x05
0027   0003           00422         dw 0x03
0028   0036           00423         dw 0x36
0029   0049           00424         dw 0x49
002A   0049           00425         dw 0x49
002B   0049           00426         dw 0x49
002C   0036           00427         dw 0x36
002D   0006           00428         dw 0x06
002E   0049           00429         dw 0x49
002F   0049           00430         dw 0x49
0030   0029           00431         dw 0x29
0031   001E           00432         dw 0x1e
0032   0000           00433         dw 0x00
0033   0060           00434         dw 0x60
0034   0060           00435         dw 0x60
0035   0000           00436         dw 0x00
0036   0000           00437         dw 0x00
0037   0000           00438         dw 0x00
0038   0036           00439         dw 0x36
0039   0036           00440         dw 0x36
003A   0000           00441         dw 0x00
003B   0000           00442         dw 0x00
003C   0000           00443         dw 0x00
003D   0000           00444         dw 0x00
003E   0000           00445         dw 0x00
003F   0000           00446         dw 0x00
0040   0000           00447         dw 0x00
0041   007F           00448         dw 0x7f
0042   0049           00449         dw 0x49
0043   0049           00450         dw 0x49
0044   0049           00451         dw 0x49
0045   0036           00452         dw 0x36
0046   0001           00453         dw 0x01
0047   0001           00454         dw 0x01
0048   007F           00455         dw 0x7f
0049   0001           00456         dw 0x01
004A   0001           00457         dw 0x01
004B   001F           00458         dw 0x1f
004C   0020           00459         dw 0x20
004D   0040           00460         dw 0x40
004E   0020           00461         dw 0x20
004F   001F           00462         dw 0x1f
0050   007F           00463         dw 0x7f
0051   0008           00464         dw 0x08
0052   0014           00465         dw 0x14
0053   0022           00466         dw 0x22
0054   0041           00467         dw 0x41
                      00468 
                      00469 
                      00470 ID_3S4SVoltmeter2_1     code
0000                  00471 _hanzi
0000   00FF           00472         dw 0xff
0001   00FF           00473         dw 0xff
0002   007F           00474         dw 0x7f
0003   00BF           00475         dw 0xbf
0004   00DF           00476         dw 0xdf
0005   00AF           00477         dw 0xaf
0006   00B7           00478         dw 0xb7
0007   0018           00479         dw 0x18
0008   00D7           00480         dw 0xd7
0009   00EF           00481         dw 0xef
000A   00DF           00482         dw 0xdf
000B   00BF           00483         dw 0xbf
000C   00BF           00484         dw 0xbf
000D   007F           00485         dw 0x7f
000E   007F           00486         dw 0x7f
000F   00FF           00487         dw 0xff
0010   00FE           00488         dw 0xfe
0011   00FE           00489         dw 0xfe
0012   00BF           00490         dw 0xbf
0013   00BF           00491         dw 0xbf
0014   00B5           00492         dw 0xb5
0015   00AD           00493         dw 0xad
0016   00BD           00494         dw 0xbd
0017   00C0           00495         dw 0xc0
0018   00DE           00496         dw 0xde
0019   00CE           00497         dw 0xce
001A   00D2           00498         dw 0xd2
001B   00DF           00499         dw 0xdf
001C   00DF           00500         dw 0xdf
001D   00FF           00501         dw 0xff
001E   00FF           00502         dw 0xff
001F   00FF           00503         dw 0xff
0020   00FF           00504         dw 0xff
0021   00DF           00505         dw 0xdf
0022   00EF           00506         dw 0xef
0023   00F7           00507         dw 0xf7
0024   0003           00508         dw 0x03
0025   00FC           00509         dw 0xfc
0026   00FF           00510         dw 0xff
0027   006F           00511         dw 0x6f
0028   0080           00512         dw 0x80
0029   0077           00513         dw 0x77
002A   007B           00514         dw 0x7b
002B   007D           00515         dw 0x7d
002C   007F           00516         dw 0x7f
002D   001F           00517         dw 0x1f
002E   00FF           00518         dw 0xff
002F   00FF           00519         dw 0xff
0030   00FF           00520         dw 0xff
0031   00FB           00521         dw 0xfb
0032   00FB           00522         dw 0xfb
0033   00FB           00523         dw 0xfb
0034   00FA           00524         dw 0xfa
0035   00FB           00525         dw 0xfb
0036   00FB           00526         dw 0xfb
0037   0080           00527         dw 0x80
0038   00FD           00528         dw 0xfd
0039   00FD           00529         dw 0xfd
003A   00FD           00530         dw 0xfd
003B   00FD           00531         dw 0xfd
003C   00FD           00532         dw 0xfd
003D   00FD           00533         dw 0xfd
003E   00FF           00534         dw 0xff
003F   00FF           00535         dw 0xff
0040   00FF           00536         dw 0xff
0041   00DF           00537         dw 0xdf
0042   00DF           00538         dw 0xdf
0043   0001           00539         dw 0x01
0044   006F           00540         dw 0x6f
0045   00FF           00541         dw 0xff
0046   0057           00542         dw 0x57
0047   0057           00543         dw 0x57
0048   0000           00544         dw 0x00
0049   00AB           00545         dw 0xab
004A   00AB           00546         dw 0xab
004B   000B           00547         dw 0x0b
004C   00BB           00548         dw 0xbb
004D   00BF           00549         dw 0xbf
004E   00FF           00550         dw 0xff
004F   00FF           00551         dw 0xff
0050   00FD           00552         dw 0xfd
0051   00FD           00553         dw 0xfd
0052   00DE           00554         dw 0xde
0053   0080           00555         dw 0x80
0054   00FF           00556         dw 0xff
0055   00BF           00557         dw 0xbf
0056   00C5           00558         dw 0xc5
0057   00ED           00559         dw 0xed
0058   00E0           00560         dw 0xe0
0059   00DA           00561         dw 0xda
005A   00DA           00562         dw 0xda
005B   00BA           00563         dw 0xba
005C   00BF           00564         dw 0xbf
005D   00BF           00565         dw 0xbf
005E   00BF           00566         dw 0xbf
005F   00FF           00567         dw 0xff
0060   00FF           00568         dw 0xff
0061   00FF           00569         dw 0xff
0062   00E7           00570         dw 0xe7
0063   00F7           00571         dw 0xf7
0064   00F7           00572         dw 0xf7
0065   00F7           00573         dw 0xf7
0066   0036           00574         dw 0x36
0067   0049           00575         dw 0x49
0068   007B           00576         dw 0x7b
0069   007B           00577         dw 0x7b
006A   007B           00578         dw 0x7b
006B   0073           00579         dw 0x73
006C   007B           00580         dw 0x7b
006D   007F           00581         dw 0x7f
006E   00FF           00582         dw 0xff
006F   00FF           00583         dw 0xff
0070   00FF           00584         dw 0xff
0071   00BE           00585         dw 0xbe
0072   00BE           00586         dw 0xbe
0073   00BE           00587         dw 0xbe
0074   00DE           00588         dw 0xde
0075   00D8           00589         dw 0xd8
0076   00EB           00590         dw 0xeb
0077   00F7           00591         dw 0xf7
0078   00F3           00592         dw 0xf3
0079   00EC           00593         dw 0xec
007A   00EF           00594         dw 0xef
007B   00DF           00595         dw 0xdf
007C   00FF           00596         dw 0xff
007D   00FF           00597         dw 0xff
007E   00FF           00598         dw 0xff
007F   00FF           00599         dw 0xff
                      00600 
                      00601 
                      00602 ;@Allocation info for local variables in function 'main'
                      00603 ;@main initial                   Allocated to registers ;size:2
                      00604 ;@main SampleRelatedChannel      Allocated to registers ;size:2
                      00605 ;@main InitRam                   Allocated to registers ;size:2
                      00606 ;@main Delay1mS_1M               Allocated to registers ;size:2
                      00607 ;@main AD_Init_mode              Allocated to registers ;size:2
                      00608 ;@main EEPROM_Read               Allocated to registers ;size:2
                      00609 ;@main EEPROM_Write              Allocated to registers ;size:2
                      00610 ;@main ADC_Value_Ratio           Allocated to registers ;size:2
                      00611 ;@main All_Adc_Convert           Allocated to registers ;size:2
                      00612 ;@main LCD_write_byte            Allocated to registers ;size:2
                      00613 ;@main LCD_init                  Allocated to registers ;size:2
                      00614 ;@main LCD_set_XY                Allocated to registers ;size:2
                      00615 ;@main LCD_clear                 Allocated to registers ;size:2
                      00616 ;@main LCD_write_hanzi           Allocated to registers ;size:2
                      00617 ;@main LCD_write_shu57           Allocated to registers ;size:2
                      00618 ;@main main                      Allocated to registers ;size:2
                      00619 ;@main INDF0bits                 Allocated to registers ;size:1
                      00620 ;@main INDF1bits                 Allocated to registers ;size:1
                      00621 ;@main INDF2bits                 Allocated to registers ;size:1
                      00622 ;@main HIBYTEbits                Allocated to registers ;size:1
                      00623 ;@main FSR0bits                  Allocated to registers ;size:1
                      00624 ;@main FSR1bits                  Allocated to registers ;size:1
                      00625 ;@main PCLbits                   Allocated to registers ;size:1
                      00626 ;@main PFLAGbits                 Allocated to registers ;size:1
                      00627 ;@main MCRbits                   Allocated to registers ;size:1
                      00628 ;@main INDF3bits                 Allocated to registers ;size:1
                      00629 ;@main INTEbits                  Allocated to registers ;size:1
                      00630 ;@main INTFbits                  Allocated to registers ;size:1
                      00631 ;@main OSCMbits                  Allocated to registers ;size:1
                      00632 ;@main INTE1bits                 Allocated to registers ;size:1
                      00633 ;@main INTF1bits                 Allocated to registers ;size:1
                      00634 ;@main KBCRbits                  Allocated to registers ;size:1
                      00635 ;@main IOP0bits                  Allocated to registers ;size:1
                      00636 ;@main OEP0bits                  Allocated to registers ;size:1
                      00637 ;@main PUP0bits                  Allocated to registers ;size:1
                      00638 ;@main PDP0bits                  Allocated to registers ;size:1
                      00639 ;@main IOP1bits                  Allocated to registers ;size:1
                      00640 ;@main OEP1bits                  Allocated to registers ;size:1
                      00641 ;@main PUP1bits                  Allocated to registers ;size:1
                      00642 ;@main PDP1bits                  Allocated to registers ;size:1
                      00643 ;@main IOP2bits                  Allocated to registers ;size:1
                      00644 ;@main OEP2bits                  Allocated to registers ;size:1
                      00645 ;@main PUP2bits                  Allocated to registers ;size:1
                      00646 ;@main PDP2bits                  Allocated to registers ;size:1
                      00647 ;@main T0CRbits                  Allocated to registers ;size:1
                      00648 ;@main T0CNTbits                 Allocated to registers ;size:1
                      00649 ;@main T0LOADbits                Allocated to registers ;size:1
                      00650 ;@main T0DATAbits                Allocated to registers ;size:1
                      00651 ;@main T1CRbits                  Allocated to registers ;size:1
                      00652 ;@main T1CNTHbits                Allocated to registers ;size:1
                      00653 ;@main T1CNTLbits                Allocated to registers ;size:1
                      00654 ;@main T1LOADHbits               Allocated to registers ;size:1
                      00655 ;@main T1LOADLbits               Allocated to registers ;size:1
                      00656 ;@main T1DATAHbits               Allocated to registers ;size:1
                      00657 ;@main T1DATALbits               Allocated to registers ;size:1
                      00658 ;@main IICCRbits                 Allocated to registers ;size:1
                      00659 ;@main IICSRbits                 Allocated to registers ;size:1
                      00660 ;@main IICDRbits                 Allocated to registers ;size:1
                      00661 ;@main EECRbits                  Allocated to registers ;size:1
                      00662 ;@main EEMASKbits                Allocated to registers ;size:1
                      00663 ;@main EEARbits                  Allocated to registers ;size:1
                      00664 ;@main EEDRbits                  Allocated to registers ;size:1
                      00665 ;@main ADCR0bits                 Allocated to registers ;size:1
                      00666 ;@main ADCR1bits                 Allocated to registers ;size:1
                      00667 ;@main ADRHbits                  Allocated to registers ;size:1
                      00668 ;@main ADRLbits                  Allocated to registers ;size:1
                      00669 ;@main ADIOS0bits                Allocated to registers ;size:1
                      00670 ;@main ADIOS1bits                Allocated to registers ;size:1
                      00671 ;@main OSADJCRbits               Allocated to registers ;size:1
                      00672 ;@main T2CRbits                  Allocated to registers ;size:1
                      00673 ;@main T2CNTHbits                Allocated to registers ;size:1
                      00674 ;@main T2CNTLbits                Allocated to registers ;size:1
                      00675 ;@main T2LOADHbits               Allocated to registers ;size:1
                      00676 ;@main T2LOADLbits               Allocated to registers ;size:1
                      00677 ;@main T3CRbits                  Allocated to registers ;size:1
                      00678 ;@main T3CNTbits                 Allocated to registers ;size:1
                      00679 ;@main T3LOADbits                Allocated to registers ;size:1
                      00680 ;@main SCONbits                  Allocated to registers ;size:1
                      00681 ;@main SBUFbits                  Allocated to registers ;size:1
                      00682 ;@main SADDRbits                 Allocated to registers ;size:1
                      00683 ;@main SADENbits                 Allocated to registers ;size:1
                      00684 ;@main Flag1                     Allocated to registers ;size:1
                      00685 ;@main ABuf                      Allocated to registers ;size:1
                      00686 ;@main StatusBuf                 Allocated to registers ;size:1
                      00687 ;@main AD_Init                   Allocated to registers ;size:2
                      00688 ;@main Data_OSADJCR              Allocated to registers ;size:1
                      00689 ;@main ADH_temp                  Allocated to registers ;size:1
                      00690 ;@main ADL_temp                  Allocated to registers ;size:1
                      00691 ;@main BT_VIN_AD                 Allocated to registers ;size:2
                      00692 ;@main B3_VIN_AD                 Allocated to registers ;size:2
                      00693 ;@main B2_VIN_AD                 Allocated to registers ;size:2
                      00694 ;@main B1_VIN_AD                 Allocated to registers ;size:2
                      00695 ;@main IO_AD                     Allocated to registers ;size:2
                      00696 ;@main SEC_VIN_AD                Allocated to registers ;size:2
                      00697 ;@main NTC_AD                    Allocated to registers ;size:2
                      00698 ;@main BT_Single_VIN_AD          Allocated to registers ;size:2
                      00699 ;@main B3_Single_VIN_AD          Allocated to registers ;size:2
                      00700 ;@main B2_Single_VIN_AD          Allocated to registers ;size:2
                      00701 ;@main B1_Single_VIN_AD          Allocated to registers ;size:2
                      00702 ;@main BT_Ratio_VIN_AD           Allocated to registers ;size:2
                      00703 ;@main B3_Ratio_VIN_AD           Allocated to registers ;size:2
                      00704 ;@main B2_Ratio_VIN_AD           Allocated to registers ;size:2
                      00705 ;@main B1_Ratio_VIN_AD           Allocated to registers ;size:2
                      00706 ;@main EEPROM_Data_Value         Allocated to registers ;size:1
                      00707 ;@main ADC_Ratio_Inter_JI        Allocated to registers ;size:1
                      00708 ;@main LooP_JI                   Allocated to registers ;size:1
                      00709 ;@main Ratio_Flag1_A5            Allocated to registers ;size:1
                      00710 ;@main Ratio_Flag2_CA            Allocated to registers ;size:1
                      00711 ;@main Read_EEPROM_Temp_H        Allocated to registers ;size:1
                      00712 ;@main Read_EEPROM_Temp_L        Allocated to registers ;size:1
                      00713 ;@main INDF0                     Allocated to registers ;size:1
                      00714 ;@main INDF1                     Allocated to registers ;size:1
                      00715 ;@main INDF2                     Allocated to registers ;size:1
                      00716 ;@main HIBYTE                    Allocated to registers ;size:1
                      00717 ;@main FSR0                      Allocated to registers ;size:1
                      00718 ;@main FSR1                      Allocated to registers ;size:1
                      00719 ;@main PCL                       Allocated to registers ;size:1
                      00720 ;@main PFLAG                     Allocated to registers ;size:1
                      00721 ;@main MCR                       Allocated to registers ;size:1
                      00722 ;@main INDF3                     Allocated to registers ;size:1
                      00723 ;@main INTE                      Allocated to registers ;size:1
                      00724 ;@main INTF                      Allocated to registers ;size:1
                      00725 ;@main OSCM                      Allocated to registers ;size:1
                      00726 ;@main INTE1                     Allocated to registers ;size:1
                      00727 ;@main INTF1                     Allocated to registers ;size:1
                      00728 ;@main KBCR                      Allocated to registers ;size:1
                      00729 ;@main IOP0                      Allocated to registers ;size:1
                      00730 ;@main OEP0                      Allocated to registers ;size:1
                      00731 ;@main PUP0                      Allocated to registers ;size:1
                      00732 ;@main PDP0                      Allocated to registers ;size:1
                      00733 ;@main IOP1                      Allocated to registers ;size:1
                      00734 ;@main OEP1                      Allocated to registers ;size:1
                      00735 ;@main PUP1                      Allocated to registers ;size:1
                      00736 ;@main PDP1                      Allocated to registers ;size:1
                      00737 ;@main IOP2                      Allocated to registers ;size:1
                      00738 ;@main OEP2                      Allocated to registers ;size:1
                      00739 ;@main PUP2                      Allocated to registers ;size:1
                      00740 ;@main PDP2                      Allocated to registers ;size:1
                      00741 ;@main T0CR                      Allocated to registers ;size:1
                      00742 ;@main T0CNT                     Allocated to registers ;size:1
                      00743 ;@main T0LOAD                    Allocated to registers ;size:1
                      00744 ;@main T0DATA                    Allocated to registers ;size:1
                      00745 ;@main T1CR                      Allocated to registers ;size:1
                      00746 ;@main T1CNTH                    Allocated to registers ;size:1
                      00747 ;@main T1CNTL                    Allocated to registers ;size:1
                      00748 ;@main T1LOADH                   Allocated to registers ;size:1
                      00749 ;@main T1LOADL                   Allocated to registers ;size:1
                      00750 ;@main T1DATAH                   Allocated to registers ;size:1
                      00751 ;@main T1DATAL                   Allocated to registers ;size:1
                      00752 ;@main IICCR                     Allocated to registers ;size:1
                      00753 ;@main IICSR                     Allocated to registers ;size:1
                      00754 ;@main IICDR                     Allocated to registers ;size:1
                      00755 ;@main EECR                      Allocated to registers ;size:1
                      00756 ;@main EEMASK                    Allocated to registers ;size:1
                      00757 ;@main EEAR                      Allocated to registers ;size:1
                      00758 ;@main EEDR                      Allocated to registers ;size:1
                      00759 ;@main ADCR0                     Allocated to registers ;size:1
                      00760 ;@main ADCR1                     Allocated to registers ;size:1
                      00761 ;@main ADRH                      Allocated to registers ;size:1
                      00762 ;@main ADRL                      Allocated to registers ;size:1
                      00763 ;@main ADIOS0                    Allocated to registers ;size:1
                      00764 ;@main ADIOS1                    Allocated to registers ;size:1
                      00765 ;@main OSADJCR                   Allocated to registers ;size:1
                      00766 ;@main T2CR                      Allocated to registers ;size:1
                      00767 ;@main T2CNTH                    Allocated to registers ;size:1
                      00768 ;@main T2CNTL                    Allocated to registers ;size:1
                      00769 ;@main T2LOADH                   Allocated to registers ;size:1
                      00770 ;@main T2LOADL                   Allocated to registers ;size:1
                      00771 ;@main T3CR                      Allocated to registers ;size:1
                      00772 ;@main T3CNT                     Allocated to registers ;size:1
                      00773 ;@main T3LOAD                    Allocated to registers ;size:1
                      00774 ;@main SCON                      Allocated to registers ;size:1
                      00775 ;@main SBUF                      Allocated to registers ;size:1
                      00776 ;@main SADDR                     Allocated to registers ;size:1
                      00777 ;@main SADEN                     Allocated to registers ;size:1
                      00778 ;@end Allocation info for local variables in function 'main';
                      00779 ;@Allocation info for local variables in function 'EEPROM_Read'
                      00780 ;@EEPROM_Read Address                   Allocated to registers ;size:1
                      00781 ;@EEPROM_Read EEPROM_Data_Temp          Allocated to registers r0x103D ;size:1
                      00782 ;@end Allocation info for local variables in function 'EEPROM_Read';
                      00783 ;@Allocation info for local variables in function 'EEPROM_Write'
                      00784 ;@EEPROM_Write Data                      Allocated to registers ;size:1
                      00785 ;@EEPROM_Write Address                   Allocated to registers ;size:1
                      00786 ;@end Allocation info for local variables in function 'EEPROM_Write';
                      00787 ;@Allocation info for local variables in function 'LCD_write_byte'
                      00788 ;@LCD_write_byte command                   Allocated to registers r0x104F ;size:1
                      00789 ;@LCD_write_byte dt                        Allocated to registers r0x104E ;size:1
                      00790 ;@LCD_write_byte i                         Allocated to registers r0x104F ;size:1
                      00791 ;@end Allocation info for local variables in function 'LCD_write_byte';
                      00792 ;@Allocation info for local variables in function 'LCD_init'
                      00793 ;@end Allocation info for local variables in function 'LCD_init';
                      00794 ;@Allocation info for local variables in function 'LCD_set_XY'
                      00795 ;@LCD_set_XY Y                         Allocated to registers r0x1051 ;size:1
                      00796 ;@LCD_set_XY X                         Allocated to registers r0x1050 ;size:1
                      00797 ;@end Allocation info for local variables in function 'LCD_set_XY';
                      00798 ;@Allocation info for local variables in function 'LCD_clear'
                      00799 ;@LCD_clear t                         Allocated to registers r0x105E ;size:1
                      00800 ;@LCD_clear k                         Allocated to registers r0x105F ;size:1
                      00801 ;@end Allocation info for local variables in function 'LCD_clear';
                      00802 ;@Allocation info for local variables in function 'LCD_write_shu57'
                      00803 ;@LCD_write_shu57 c                         Allocated to registers r0x105B ;size:1
                      00804 ;@LCD_write_shu57 page                      Allocated to registers r0x105A ;size:1
                      00805 ;@LCD_write_shu57 row                       Allocated to registers r0x1059 ;size:1
                      00806 ;@LCD_write_shu57 i                         Allocated to registers r0x105A ;size:1
                      00807 ;@end Allocation info for local variables in function 'LCD_write_shu57';
                      00808 ;@Allocation info for local variables in function 'LCD_write_hanzi'
                      00809 ;@LCD_write_hanzi c                         Allocated to registers r0x1054 ;size:1
                      00810 ;@LCD_write_hanzi page                      Allocated to registers r0x1053 ;size:1
                      00811 ;@LCD_write_hanzi row                       Allocated to registers r0x1052 ;size:1
                      00812 ;@LCD_write_hanzi i                         Allocated to registers r0x1054 ;size:1
                      00813 ;@end Allocation info for local variables in function 'LCD_write_hanzi';
                      00814 ;@Allocation info for local variables in function 'ADC_Value_Ratio'
                      00815 ;@ADC_Value_Ratio JI_Temp                   Allocated to registers r0x103E ;size:1
                      00816 ;@ADC_Value_Ratio AD_Temp_H                 Allocated to registers r0x1041 ;size:1
                      00817 ;@ADC_Value_Ratio AD_Temp_L                 Allocated to registers r0x1040 ;size:1
                      00818 ;@ADC_Value_Ratio Flag1_A5                  Allocated to registers r0x103F ;size:1
                      00819 ;@ADC_Value_Ratio Flag2_CA                  Allocated to registers r0x1042 ;size:1
                      00820 ;@ADC_Value_Ratio B1_Ratio_Read_Value       Allocated to registers r0x103E r0x1043 ;size:2
                      00821 ;@ADC_Value_Ratio B2_Ratio_Read_Value       Allocated to registers r0x1045 r0x1044 ;size:2
                      00822 ;@ADC_Value_Ratio B3_Ratio_Read_Value       Allocated to registers r0x1046 r0x1047 ;size:2
                      00823 ;@ADC_Value_Ratio BT_Ratio_Read_Value       Allocated to registers r0x1048 r0x1049 ;size:2
                      00824 ;@end Allocation info for local variables in function 'ADC_Value_Ratio';
                      00825 ;@Allocation info for local variables in function 'All_Adc_Convert'
                      00826 ;@All_Adc_Convert VIN_AD_Temp1              Allocated to registers r0x1037 r0x1038 ;size:2
                      00827 ;@All_Adc_Convert VIN_AD_Temp2              Allocated to registers r0x1039 r0x103A ;size:2
                      00828 ;@end Allocation info for local variables in function 'All_Adc_Convert';
                      00829 ;@Allocation info for local variables in function 'AD_Init_mode'
                      00830 ;@end Allocation info for local variables in function 'AD_Init_mode';
                      00831 ;@Allocation info for local variables in function 'InitRam'
                      00832 ;@end Allocation info for local variables in function 'InitRam';
                      00833 ;@Allocation info for local variables in function 'initial'
                      00834 ;@end Allocation info for local variables in function 'initial';
                      00835 ;@Allocation info for local variables in function 'SampleRelatedChannel'
                      00836 ;@SampleRelatedChannel VREF                      Allocated to registers r0x102B ;size:1
                      00837 ;@SampleRelatedChannel channel                   Allocated to registers r0x102A ;size:1
                      00838 ;@SampleRelatedChannel i                         Allocated to registers r0x102A ;size:1
                      00839 ;@SampleRelatedChannel TempADH                   Allocated to registers r0x1033 r0x1034 ;size:2
                      00840 ;@SampleRelatedChannel TempADL                   Allocated to registers r0x102B r0x1032 ;size:2
                      00841 ;@SampleRelatedChannel middleval                 Allocated to registers r0x1030 r0x1031 ;size:2
                      00842 ;@SampleRelatedChannel AD_Low_Value              Allocated to registers r0x102C r0x102D ;size:2
                      00843 ;@SampleRelatedChannel AD_High_Value             Allocated to registers r0x102E r0x102F ;size:2
                      00844 ;@end Allocation info for local variables in function 'SampleRelatedChannel';
                      00845 ;@Allocation info for local variables in function 'Delay1mS_1M'
                      00846 ;@Delay1mS_1M i                         Allocated to registers ;size:2
                      00847 ;@Delay1mS_1M jj                        Allocated to registers r0x1029 ;size:1
                      00848 ;@end Allocation info for local variables in function 'Delay1mS_1M';
                      00849 ;@Allocation info for local variables in function 'int_isr'
                      00850 ;@end Allocation info for local variables in function 'int_isr';
                      00851 
                      00852 ;--------------------------------------------------------
                      00853 ; overlayable items in internal ram 
                      00854 ;--------------------------------------------------------
                      00855 ;       udata_ovr
                      00856 ;--------------------------------------------------------
                      00857 ; reset vector 
                      00858 ;--------------------------------------------------------
                      00859 STARTUP code 0x0000
0000   A000           00860         goto    _main
                      00861 ;--------------------------------------------------------
                      00862 ; interrupt and initialization code
                      00863 ;--------------------------------------------------------
                      00864 c_interrupt     code    0x8
0008                  00865 __sdcc_interrupt
                      00866 ;***
                      00867 ;  pBlock Stats: dbName = I
                      00868 ;***
                      00869 ;entry:  _int_isr       ;Function start
                      00870 ; 0 exit points
                      00871 ;; Starting pCode block
0008                  00872 _int_isr        ;Function start
                      00873 ; 0 exit points
                      00874 ;       .line   953; "3S4SVoltmeter2.c" __endasm;   
0008   5600           00875         movra _ABuf
0009   4400           00876         swapar _PFLAG
000A   5600           00877         movra _StatusBuf
                      00878         
                      00879 ;       .line   956; "3S4SVoltmeter2.c" if(T2IF)//500MS
000B   E000           00880         JBSET   _INTF1bits,0
000C   A000           00881         GOTO    _00560_DS_
                      00882 ;       .line   958; "3S4SVoltmeter2.c" T2IF=0;            
000D   D000           00883         BCLR    _INTF1bits,0
000E                  00884 _00560_DS_
                      00885 ;       .line   967; "3S4SVoltmeter2.c" __endasm;   
000E   4400           00886         swapar _StatusBuf
000F   5600           00887         movra _PFLAG
0010   4600           00888         swapr _ABuf
0011   4400           00889         swapar _ABuf
                      00890         
0012                  00891 END_OF_INTERRUPT
0012   000D           00892         RETIE   
                      00893 
                      00894 ;--------------------------------------------------------
                      00895 ; code
                      00896 ;--------------------------------------------------------
                      00897 code_3S4SVoltmeter2     code
                      00898 ;***
                      00899 ;  pBlock Stats: dbName = M
                      00900 ;***
                      00901 ;entry:  _main  ;Function start
                      00902 ; 2 exit points
                      00903 ;has an exit
                      00904 ;functions called:
                      00905 ;   _initial
                      00906 ;   _InitRam
                      00907 ;   _Delay1mS_1M
                      00908 ;   _AD_Init_mode
                      00909 ;   _Delay1mS_1M
                      00910 ;   _SampleRelatedChannel
                      00911 ;   _AD_Init_mode
                      00912 ;   _Delay1mS_1M
                      00913 ;   _SampleRelatedChannel
                      00914 ;   _ADC_Value_Ratio
                      00915 ;   _EEPROM_Read
                      00916 ;   _EEPROM_Read
                      00917 ;   _EEPROM_Read
                      00918 ;   _EEPROM_Read
                      00919 ;   _EEPROM_Read
                      00920 ;   _EEPROM_Read
                      00921 ;   _EEPROM_Read
                      00922 ;   _EEPROM_Read
                      00923 ;   _EEPROM_Read
                      00924 ;   _EEPROM_Read
                      00925 ;   _Delay1mS_1M
                      00926 ;   _LCD_init
                      00927 ;   _LCD_clear
                      00928 ;   _LCD_write_shu57
                      00929 ;   _LCD_write_shu57
                      00930 ;   _LCD_write_shu57
                      00931 ;   _LCD_write_shu57
                      00932 ;   _LCD_write_shu57
                      00933 ;   _LCD_write_shu57
                      00934 ;   _LCD_write_shu57
                      00935 ;   _LCD_write_shu57
                      00936 ;   _LCD_write_shu57
                      00937 ;   _LCD_write_shu57
                      00938 ;   _LCD_write_shu57
                      00939 ;   _LCD_write_shu57
                      00940 ;   _LCD_write_shu57
                      00941 ;   _LCD_write_shu57
                      00942 ;   _LCD_write_shu57
                      00943 ;   _LCD_write_shu57
                      00944 ;   _LCD_write_shu57
                      00945 ;   _LCD_write_shu57
                      00946 ;   _LCD_write_shu57
                      00947 ;   _LCD_write_shu57
                      00948 ;   _LCD_write_shu57
                      00949 ;   _LCD_write_shu57
                      00950 ;   _LCD_write_shu57
                      00951 ;   _LCD_write_shu57
                      00952 ;   _LCD_write_shu57
                      00953 ;   _LCD_write_shu57
                      00954 ;   _LCD_write_shu57
                      00955 ;   _LCD_write_shu57
                      00956 ;   _LCD_write_shu57
                      00957 ;   _LCD_write_shu57
                      00958 ;   _LCD_write_shu57
                      00959 ;   _LCD_write_shu57
                      00960 ;   _LCD_write_shu57
                      00961 ;   _LCD_write_shu57
                      00962 ;   _LCD_write_shu57
                      00963 ;   _LCD_write_shu57
                      00964 ;   _LCD_write_shu57
                      00965 ;   _LCD_write_shu57
                      00966 ;   _LCD_write_shu57
                      00967 ;   _LCD_write_shu57
                      00968 ;   _LCD_write_shu57
                      00969 ;   _LCD_write_shu57
                      00970 ;   _LCD_write_shu57
                      00971 ;   _LCD_write_shu57
                      00972 ;   _LCD_write_shu57
                      00973 ;   _LCD_write_shu57
                      00974 ;   _LCD_write_shu57
                      00975 ;   _LCD_write_shu57
                      00976 ;   _LCD_write_shu57
                      00977 ;   _LCD_write_shu57
                      00978 ;   _LCD_write_shu57
                      00979 ;   _LCD_write_shu57
                      00980 ;   _LCD_write_shu57
                      00981 ;   _LCD_write_shu57
                      00982 ;   _LCD_write_shu57
                      00983 ;   _LCD_write_shu57
                      00984 ;   _LCD_write_hanzi
                      00985 ;   _LCD_write_hanzi
                      00986 ;   _LCD_write_hanzi
                      00987 ;   _LCD_write_hanzi
                      00988 ;   _All_Adc_Convert
                      00989 ;   _initial
                      00990 ;   _InitRam
                      00991 ;   _Delay1mS_1M
                      00992 ;   _AD_Init_mode
                      00993 ;   _Delay1mS_1M
                      00994 ;   _SampleRelatedChannel
                      00995 ;   _AD_Init_mode
                      00996 ;   _Delay1mS_1M
                      00997 ;   _SampleRelatedChannel
                      00998 ;   _ADC_Value_Ratio
                      00999 ;   _EEPROM_Read
                      01000 ;   _EEPROM_Read
                      01001 ;   _EEPROM_Read
                      01002 ;   _EEPROM_Read
                      01003 ;   _EEPROM_Read
                      01004 ;   _EEPROM_Read
                      01005 ;   _EEPROM_Read
                      01006 ;   _EEPROM_Read
                      01007 ;   _EEPROM_Read
                      01008 ;   _EEPROM_Read
                      01009 ;   _Delay1mS_1M
                      01010 ;   _LCD_init
                      01011 ;   _LCD_clear
                      01012 ;   _LCD_write_shu57
                      01013 ;   _LCD_write_shu57
                      01014 ;   _LCD_write_shu57
                      01015 ;   _LCD_write_shu57
                      01016 ;   _LCD_write_shu57
                      01017 ;   _LCD_write_shu57
                      01018 ;   _LCD_write_shu57
                      01019 ;   _LCD_write_shu57
                      01020 ;   _LCD_write_shu57
                      01021 ;   _LCD_write_shu57
                      01022 ;   _LCD_write_shu57
                      01023 ;   _LCD_write_shu57
                      01024 ;   _LCD_write_shu57
                      01025 ;   _LCD_write_shu57
                      01026 ;   _LCD_write_shu57
                      01027 ;   _LCD_write_shu57
                      01028 ;   _LCD_write_shu57
                      01029 ;   _LCD_write_shu57
                      01030 ;   _LCD_write_shu57
                      01031 ;   _LCD_write_shu57
                      01032 ;   _LCD_write_shu57
                      01033 ;   _LCD_write_shu57
                      01034 ;   _LCD_write_shu57
                      01035 ;   _LCD_write_shu57
                      01036 ;   _LCD_write_shu57
                      01037 ;   _LCD_write_shu57
                      01038 ;   _LCD_write_shu57
                      01039 ;   _LCD_write_shu57
                      01040 ;   _LCD_write_shu57
                      01041 ;   _LCD_write_shu57
                      01042 ;   _LCD_write_shu57
                      01043 ;   _LCD_write_shu57
                      01044 ;   _LCD_write_shu57
                      01045 ;   _LCD_write_shu57
                      01046 ;   _LCD_write_shu57
                      01047 ;   _LCD_write_shu57
                      01048 ;   _LCD_write_shu57
                      01049 ;   _LCD_write_shu57
                      01050 ;   _LCD_write_shu57
                      01051 ;   _LCD_write_shu57
                      01052 ;   _LCD_write_shu57
                      01053 ;   _LCD_write_shu57
                      01054 ;   _LCD_write_shu57
                      01055 ;   _LCD_write_shu57
                      01056 ;   _LCD_write_shu57
                      01057 ;   _LCD_write_shu57
                      01058 ;   _LCD_write_shu57
                      01059 ;   _LCD_write_shu57
                      01060 ;   _LCD_write_shu57
                      01061 ;   _LCD_write_shu57
                      01062 ;   _LCD_write_shu57
                      01063 ;   _LCD_write_shu57
                      01064 ;   _LCD_write_shu57
                      01065 ;   _LCD_write_shu57
                      01066 ;   _LCD_write_shu57
                      01067 ;   _LCD_write_shu57
                      01068 ;   _LCD_write_hanzi
                      01069 ;   _LCD_write_hanzi
                      01070 ;   _LCD_write_hanzi
                      01071 ;   _LCD_write_hanzi
                      01072 ;   _All_Adc_Convert
                      01073 ;8 compiler assigned registers:
                      01074 ;   STK00
                      01075 ;   r0x1060
                      01076 ;   r0x1061
                      01077 ;   r0x1062
                      01078 ;   r0x1063
                      01079 ;   r0x1064
                      01080 ;   r0x1065
                      01081 ;   STK01
                      01082 ;; Starting pCode block
0000                  01083 _main   ;Function start
                      01084 ; 2 exit points
                      01085 ;       .line   146; "3S4SVoltmeter2.c" initial();// 
0000   8000           01086         CALL    _initial
                      01087 ;       .line   147; "3S4SVoltmeter2.c" InitRam();//RAM
0001   8000           01088         CALL    _InitRam
                      01089 ;       .line   148; "3S4SVoltmeter2.c" DisableTotalINT;//
0002   DE00           01090         BCLR    _MCRbits,7
                      01091 ;       .line   149; "3S4SVoltmeter2.c" RLED_OFF;//LED
0003   DA00           01092         BCLR    _IOP2bits,5
                      01093 ;       .line   150; "3S4SVoltmeter2.c" GLED_ON;//LED
0004   CA00           01094         BSET    _IOP0bits,5
                      01095 ;       .line   151; "3S4SVoltmeter2.c" Delay1mS_1M(30);//50MS    
0005   3C1E           01096         MOVAI   0x1e
0006   5600           01097         MOVRA   STK00
0007   3C00           01098         MOVAI   0x00
0008   8000           01099         CALL    _Delay1mS_1M
                      01100 ;       .line   153; "3S4SVoltmeter2.c" AD_Init_mode();// AD
0009   8000           01101         CALL    _AD_Init_mode
                      01102 ;       .line   154; "3S4SVoltmeter2.c" OSADJEN=0;// ADC 
000A   DE00           01103         BCLR    _OSADJCRbits,7
                      01104 ;       .line   155; "3S4SVoltmeter2.c" ADCR1=0x13;//8,4ADFHIRC/16=16M/16=1M,15ADCLK
000B   3C13           01105         MOVAI   0x13
000C   5600           01106         MOVRA   _ADCR1
                      01107 ;       .line   156; "3S4SVoltmeter2.c" Delay1mS_1M(10);//50MS                    
000D   3C0A           01108         MOVAI   0x0a
000E   5600           01109         MOVRA   STK00
000F   3C00           01110         MOVAI   0x00
0010   8000           01111         CALL    _Delay1mS_1M
                      01112 ;       .line   157; "3S4SVoltmeter2.c" AD_Init=SampleRelatedChannel(GND_channel,VREF_2V); 
0011   3C00           01113         MOVAI   0x00
0012   5600           01114         MOVRA   STK00
0013   3CE0           01115         MOVAI   0xe0
0014   8000           01116         CALL    _SampleRelatedChannel
0015   5600           01117         MOVRA   (_AD_Init + 1)
0016   5800           01118         MOVAR   STK00
0017   5600           01119         MOVRA   _AD_Init
                      01120 ;       .line   158; "3S4SVoltmeter2.c" if(AD_Init>0)
0018   5800           01121         MOVAR   _AD_Init
0019   5C00           01122         ORAR    (_AD_Init + 1)
001A   F587           01123         JBCLR   PFLAG,2
001B   A000           01124         GOTO    _00106_DS_
                      01125 ;       .line   160; "3S4SVoltmeter2.c" AD_Init_mode();// AD
001C   8000           01126         CALL    _AD_Init_mode
                      01127 ;       .line   161; "3S4SVoltmeter2.c" OSADJEN=0;// ADC 
001D   DE00           01128         BCLR    _OSADJCRbits,7
001E                  01129 _00106_DS_
                      01130 ;       .line   164; "3S4SVoltmeter2.c" ADCR1=0x13;//8,4ADFHIRC/16=16M/16=1M,15ADCLK                          
001E   3C13           01131         MOVAI   0x13
001F   5600           01132         MOVRA   _ADCR1
                      01133 ;;gen.c:6379: size=0/1, offset=0, AOP_TYPE(res)=8
                      01134 ;       .line   167; "3S4SVoltmeter2.c" Flag1.byte=0;//
0020   7600           01135         CLRR    (_Flag1 + 0)
                      01136 ;       .line   172; "3S4SVoltmeter2.c" ADC_Ratio_Inter_JI=0;
0021   7600           01137         CLRR    _ADC_Ratio_Inter_JI
                      01138 ;       .line   173; "3S4SVoltmeter2.c" LooP_JI=50;
0022   3C32           01139         MOVAI   0x32
0023   5600           01140         MOVRA   _LooP_JI
                      01141 ;       .line   174; "3S4SVoltmeter2.c" Delay1mS_1M(100);//50MS
0024   3C64           01142         MOVAI   0x64
0025   5600           01143         MOVRA   STK00
0026   3C00           01144         MOVAI   0x00
0027   8000           01145         CALL    _Delay1mS_1M
0028                  01146 _00112_DS_
                      01147 ;       .line   175; "3S4SVoltmeter2.c" while(LooP_JI>0)
0028   3C00           01148         MOVAI   0x00
0029   5C00           01149         ORAR    _LooP_JI
002A   F587           01150         JBCLR   PFLAG,2
002B   A000           01151         GOTO    _00114_DS_
                      01152 ;       .line   177; "3S4SVoltmeter2.c" LooP_JI--;  
002C   6E00           01153         DECR    _LooP_JI
                      01154 ;       .line   178; "3S4SVoltmeter2.c" NTC_AD=SampleRelatedChannel(NTC_channel,VREF_VDD); //NTCAD1.2MS 
002D   3C0C           01155         MOVAI   0x0c
002E   5600           01156         MOVRA   STK00
002F   3C10           01157         MOVAI   0x10
0030   8000           01158         CALL    _SampleRelatedChannel
0031   5600           01159         MOVRA   (_NTC_AD + 1)
0032   5800           01160         MOVAR   STK00
0033   5600           01161         MOVRA   _NTC_AD
                      01162 ;;swapping arguments (AOP_TYPEs 1/3)
                      01163 ;;unsigned compare: left >= lit(0xF6A=3946), size=2
                      01164 ;       .line   179; "3S4SVoltmeter2.c" if((NTC_AD>3945)&&(NTC_AD<3980))//NTC300K
0034   3C0F           01165         MOVAI   0x0f
0035   4800           01166         RSUBAR  (_NTC_AD + 1)
0036   E587           01167         JBSET   PFLAG,2
0037   A000           01168         GOTO    _00168_DS_
0038   3C6A           01169         MOVAI   0x6a
0039   4800           01170         RSUBAR  _NTC_AD
003A                  01171 _00168_DS_
003A   E187           01172         JBSET   PFLAG,0
003B   A000           01173         GOTO    _00112_DS_
                      01174 ;;genSkipc:3195: created from rifx:00DE608C
                      01175 ;;unsigned compare: left < lit(0xF8C=3980), size=2
003C   3C0F           01176         MOVAI   0x0f
003D   4800           01177         RSUBAR  (_NTC_AD + 1)
003E   E587           01178         JBSET   PFLAG,2
003F   A000           01179         GOTO    _00169_DS_
0040   3C8C           01180         MOVAI   0x8c
0041   4800           01181         RSUBAR  _NTC_AD
0042                  01182 _00169_DS_
0042   F187           01183         JBCLR   PFLAG,0
0043   A000           01184         GOTO    _00112_DS_
                      01185 ;;genSkipc:3195: created from rifx:00DE608C
                      01186 ;       .line   181; "3S4SVoltmeter2.c" ADC_Ratio_Inter_JI++;
0044   6600           01187         INCR    _ADC_Ratio_Inter_JI
                      01188 ;;unsigned compare: left < lit(0x28=40), size=1
                      01189 ;       .line   182; "3S4SVoltmeter2.c" if(ADC_Ratio_Inter_JI>=40)
0045   3C28           01190         MOVAI   0x28
0046   4800           01191         RSUBAR  _ADC_Ratio_Inter_JI
0047   E187           01192         JBSET   PFLAG,0
0048   A000           01193         GOTO    _00112_DS_
                      01194 ;;genSkipc:3195: created from rifx:00DE608C
                      01195 ;       .line   184; "3S4SVoltmeter2.c" ADC_Value_Ratio();//    
0049   8000           01196         CALL    _ADC_Value_Ratio
004A   A000           01197         GOTO    _00112_DS_
004B                  01198 _00114_DS_
                      01199 ;       .line   190; "3S4SVoltmeter2.c" Ratio_Flag1_A5=EEPROM_Data_Value=EEPROM_Read(0x00);//EEPROM  
004B   3C00           01200         MOVAI   0x00
004C   8000           01201         CALL    _EEPROM_Read
004D   5600           01202         MOVRA   r0x1060
004E   5800           01203         MOVAR   r0x1060
004F   5600           01204         MOVRA   _EEPROM_Data_Value
0050   5800           01205         MOVAR   r0x1060
0051   5600           01206         MOVRA   _Ratio_Flag1_A5
                      01207 ;       .line   191; "3S4SVoltmeter2.c" Ratio_Flag2_CA=EEPROM_Data_Value=EEPROM_Read(0x01);//EEPROM 
0052   3C01           01208         MOVAI   0x01
0053   8000           01209         CALL    _EEPROM_Read
0054   5600           01210         MOVRA   r0x1060
0055   5800           01211         MOVAR   r0x1060
0056   5600           01212         MOVRA   _EEPROM_Data_Value
0057   5800           01213         MOVAR   r0x1060
0058   5600           01214         MOVRA   _Ratio_Flag2_CA
                      01215 ;       .line   192; "3S4SVoltmeter2.c" Read_EEPROM_Temp_H=EEPROM_Data_Value=EEPROM_Read(0x02);//EEPROM
0059   3C02           01216         MOVAI   0x02
005A   8000           01217         CALL    _EEPROM_Read
005B   5600           01218         MOVRA   r0x1060
005C   5800           01219         MOVAR   r0x1060
005D   5600           01220         MOVRA   _EEPROM_Data_Value
005E   5800           01221         MOVAR   r0x1060
005F   5600           01222         MOVRA   _Read_EEPROM_Temp_H
                      01223 ;       .line   193; "3S4SVoltmeter2.c" Read_EEPROM_Temp_L=EEPROM_Data_Value=EEPROM_Read(0x03);//EEPROM                                                             
0060   3C03           01224         MOVAI   0x03
0061   8000           01225         CALL    _EEPROM_Read
0062   5600           01226         MOVRA   r0x1060
0063   5800           01227         MOVAR   r0x1060
0064   5600           01228         MOVRA   _EEPROM_Data_Value
0065   5800           01229         MOVAR   r0x1060
0066   5600           01230         MOVRA   _Read_EEPROM_Temp_L
                      01231 ;       .line   194; "3S4SVoltmeter2.c" B1_Ratio_VIN_AD=Read_EEPROM_Temp_H;
0067   5800           01232         MOVAR   _Read_EEPROM_Temp_H
0068   5600           01233         MOVRA   _B1_Ratio_VIN_AD
0069   7600           01234         CLRR    (_B1_Ratio_VIN_AD + 1)
                      01235 ;       .line   195; "3S4SVoltmeter2.c" B1_Ratio_VIN_AD=((B1_Ratio_VIN_AD<<8)+Read_EEPROM_Temp_L);                                                        
006A   5800           01236         MOVAR   _B1_Ratio_VIN_AD
006B   5600           01237         MOVRA   r0x1061
006C   7600           01238         CLRR    r0x1060
006D   5800           01239         MOVAR   _Read_EEPROM_Temp_L
006E   5600           01240         MOVRA   r0x1062
006F   7600           01241         CLRR    r0x1063
                      01242 ;;135   MOVAR   r0x1062
0070   3C00           01243         MOVAI   0x00
0071   5600           01244         MOVRA   r0x1065
                      01245 ;;134   MOVAR   r0x1064
0072   5800           01246         MOVAR   r0x1062
0073   5600           01247         MOVRA   r0x1064
0074   7C00           01248         ADDAR   r0x1060
0075   5600           01249         MOVRA   _B1_Ratio_VIN_AD
0076   5800           01250         MOVAR   r0x1061
0077   5600           01251         MOVRA   (_B1_Ratio_VIN_AD + 1)
0078   5800           01252         MOVAR   r0x1065
0079   F187           01253         JBCLR   PFLAG,0
007A   6000           01254         JZAR    r0x1065
007B   7E00           01255         ADDRA   (_B1_Ratio_VIN_AD + 1)
                      01256 ;       .line   196; "3S4SVoltmeter2.c" Read_EEPROM_Temp_H=EEPROM_Data_Value=EEPROM_Read(0x04);//EEPROM
007C   3C04           01257         MOVAI   0x04
007D   8000           01258         CALL    _EEPROM_Read
007E   5600           01259         MOVRA   r0x1060
007F   5800           01260         MOVAR   r0x1060
0080   5600           01261         MOVRA   _EEPROM_Data_Value
0081   5800           01262         MOVAR   r0x1060
0082   5600           01263         MOVRA   _Read_EEPROM_Temp_H
                      01264 ;       .line   197; "3S4SVoltmeter2.c" Read_EEPROM_Temp_L=EEPROM_Data_Value=EEPROM_Read(0x05);//EEPROM                                                             
0083   3C05           01265         MOVAI   0x05
0084   8000           01266         CALL    _EEPROM_Read
0085   5600           01267         MOVRA   r0x1060
0086   5800           01268         MOVAR   r0x1060
0087   5600           01269         MOVRA   _EEPROM_Data_Value
0088   5800           01270         MOVAR   r0x1060
0089   5600           01271         MOVRA   _Read_EEPROM_Temp_L
                      01272 ;       .line   198; "3S4SVoltmeter2.c" B2_Ratio_VIN_AD=Read_EEPROM_Temp_H;
008A   5800           01273         MOVAR   _Read_EEPROM_Temp_H
008B   5600           01274         MOVRA   _B2_Ratio_VIN_AD
008C   7600           01275         CLRR    (_B2_Ratio_VIN_AD + 1)
                      01276 ;       .line   199; "3S4SVoltmeter2.c" B2_Ratio_VIN_AD=((B2_Ratio_VIN_AD<<8)+Read_EEPROM_Temp_L);                                                                
008D   5800           01277         MOVAR   _B2_Ratio_VIN_AD
008E   5600           01278         MOVRA   r0x1061
008F   7600           01279         CLRR    r0x1060
0090   5800           01280         MOVAR   _Read_EEPROM_Temp_L
0091   5600           01281         MOVRA   r0x1064
0092   5600           01282         MOVRA   r0x1062
0093   7600           01283         CLRR    r0x1063
                      01284 ;;133   MOVAR   r0x1062
0094   3C00           01285         MOVAI   0x00
0095   5600           01286         MOVRA   r0x1065
0096   5800           01287         MOVAR   r0x1064
0097   7C00           01288         ADDAR   r0x1060
0098   5600           01289         MOVRA   _B2_Ratio_VIN_AD
0099   5800           01290         MOVAR   r0x1061
009A   5600           01291         MOVRA   (_B2_Ratio_VIN_AD + 1)
009B   5800           01292         MOVAR   r0x1065
009C   F187           01293         JBCLR   PFLAG,0
009D   6000           01294         JZAR    r0x1065
009E   7E00           01295         ADDRA   (_B2_Ratio_VIN_AD + 1)
                      01296 ;       .line   200; "3S4SVoltmeter2.c" Read_EEPROM_Temp_H=EEPROM_Data_Value=EEPROM_Read(0x06);//EEPROM
009F   3C06           01297         MOVAI   0x06
00A0   8000           01298         CALL    _EEPROM_Read
00A1   5600           01299         MOVRA   _EEPROM_Data_Value
00A2   5600           01300         MOVRA   _Read_EEPROM_Temp_H
00A3   5600           01301         MOVRA   r0x1060
                      01302 ;;166   MOVAR   r0x1060
                      01303 ;;168   MOVAR   r0x1060
                      01304 ;       .line   201; "3S4SVoltmeter2.c" Read_EEPROM_Temp_L=EEPROM_Data_Value=EEPROM_Read(0x07);//EEPROM                                                             
00A4   3C07           01305         MOVAI   0x07
00A5   8000           01306         CALL    _EEPROM_Read
00A6   5600           01307         MOVRA   _EEPROM_Data_Value
00A7   5600           01308         MOVRA   _Read_EEPROM_Temp_L
00A8   5600           01309         MOVRA   r0x1060
                      01310 ;;160   MOVAR   r0x1060
                      01311 ;;164   MOVAR   r0x1060
                      01312 ;       .line   202; "3S4SVoltmeter2.c" B3_Ratio_VIN_AD=Read_EEPROM_Temp_H;
00A9   5800           01313         MOVAR   _Read_EEPROM_Temp_H
00AA   5600           01314         MOVRA   _B3_Ratio_VIN_AD
00AB   7600           01315         CLRR    (_B3_Ratio_VIN_AD + 1)
                      01316 ;       .line   203; "3S4SVoltmeter2.c" B3_Ratio_VIN_AD=((B3_Ratio_VIN_AD<<8)+Read_EEPROM_Temp_L);                                                        
00AC   5800           01317         MOVAR   _B3_Ratio_VIN_AD
00AD   5600           01318         MOVRA   r0x1061
00AE   7600           01319         CLRR    r0x1060
00AF   5800           01320         MOVAR   _Read_EEPROM_Temp_L
00B0   5600           01321         MOVRA   r0x1062
00B1   7600           01322         CLRR    r0x1063
                      01323 ;;103   MOVAR   r0x1062
00B2   3C00           01324         MOVAI   0x00
00B3   5600           01325         MOVRA   r0x1065
                      01326 ;;102   MOVAR   r0x1064
00B4   5800           01327         MOVAR   r0x1062
00B5   5600           01328         MOVRA   r0x1064
00B6   7C00           01329         ADDAR   r0x1060
00B7   5600           01330         MOVRA   _B3_Ratio_VIN_AD
00B8   5800           01331         MOVAR   r0x1061
00B9   5600           01332         MOVRA   (_B3_Ratio_VIN_AD + 1)
00BA   5800           01333         MOVAR   r0x1065
00BB   F187           01334         JBCLR   PFLAG,0
00BC   6000           01335         JZAR    r0x1065
00BD   7E00           01336         ADDRA   (_B3_Ratio_VIN_AD + 1)
                      01337 ;       .line   204; "3S4SVoltmeter2.c" Read_EEPROM_Temp_H=EEPROM_Data_Value=EEPROM_Read(0x08);//EEPROM
00BE   3C08           01338         MOVAI   0x08
00BF   8000           01339         CALL    _EEPROM_Read
00C0   5600           01340         MOVRA   _EEPROM_Data_Value
00C1   5600           01341         MOVRA   _Read_EEPROM_Temp_H
00C2   5600           01342         MOVRA   r0x1060
                      01343 ;;146   MOVAR   r0x1060
                      01344 ;;154   MOVAR   r0x1060
                      01345 ;       .line   205; "3S4SVoltmeter2.c" Read_EEPROM_Temp_L=EEPROM_Data_Value=EEPROM_Read(0x09);//EEPROM                                                             
00C3   3C09           01346         MOVAI   0x09
00C4   8000           01347         CALL    _EEPROM_Read
00C5   5600           01348         MOVRA   _EEPROM_Data_Value
00C6   5600           01349         MOVRA   _Read_EEPROM_Temp_L
00C7   5600           01350         MOVRA   r0x1060
                      01351 ;;99    MOVAR   r0x1060
                      01352 ;;131   MOVAR   r0x1060
                      01353 ;       .line   206; "3S4SVoltmeter2.c" BT_Ratio_VIN_AD=Read_EEPROM_Temp_H;
00C8   5800           01354         MOVAR   _Read_EEPROM_Temp_H
00C9   5600           01355         MOVRA   _BT_Ratio_VIN_AD
00CA   7600           01356         CLRR    (_BT_Ratio_VIN_AD + 1)
                      01357 ;       .line   207; "3S4SVoltmeter2.c" BT_Ratio_VIN_AD=((BT_Ratio_VIN_AD<<8)+Read_EEPROM_Temp_L);              
00CB   5800           01358         MOVAR   _BT_Ratio_VIN_AD
00CC   5600           01359         MOVRA   r0x1061
00CD   7600           01360         CLRR    r0x1060
00CE   5800           01361         MOVAR   _Read_EEPROM_Temp_L
00CF   5600           01362         MOVRA   r0x1064
00D0   5600           01363         MOVRA   r0x1062
00D1   7600           01364         CLRR    r0x1063
                      01365 ;;101   MOVAR   r0x1062
00D2   3C00           01366         MOVAI   0x00
00D3   5600           01367         MOVRA   r0x1065
00D4   5800           01368         MOVAR   r0x1064
00D5   7C00           01369         ADDAR   r0x1060
00D6   5600           01370         MOVRA   _BT_Ratio_VIN_AD
00D7   5800           01371         MOVAR   r0x1061
00D8   5600           01372         MOVRA   (_BT_Ratio_VIN_AD + 1)
00D9   5800           01373         MOVAR   r0x1065
00DA   F187           01374         JBCLR   PFLAG,0
00DB   6000           01375         JZAR    r0x1065
00DC   7E00           01376         ADDRA   (_BT_Ratio_VIN_AD + 1)
                      01377 ;       .line   208; "3S4SVoltmeter2.c" if((Ratio_Flag1_A5!=0xA5)||(Ratio_Flag2_CA!=0xCA)||(B1_Ratio_VIN_AD<3350)||(B1_Ratio_VIN_AD>3530)||(B2_Ratio_VIN_AD<3350)||(B2_Ratio_VIN_AD>3530)||(B3_Ratio_VIN_AD<3350)||(B3_Ratio_VIN_AD>3530)||(BT_Ratio_VIN_AD<3350)||(BT_Ratio_VIN_AD>3530))//
00DD   5800           01378         MOVAR   _Ratio_Flag1_A5
00DE   39A5           01379         XORAI   0xa5
00DF   E587           01380         JBSET   PFLAG,2
00E0   A000           01381         GOTO    _00118_DS_
00E1   5800           01382         MOVAR   _Ratio_Flag2_CA
00E2   39CA           01383         XORAI   0xca
00E3   E587           01384         JBSET   PFLAG,2
00E4   A000           01385         GOTO    _00118_DS_
                      01386 ;;unsigned compare: left < lit(0xD16=3350), size=2
00E5   3C0D           01387         MOVAI   0x0d
00E6   4800           01388         RSUBAR  (_B1_Ratio_VIN_AD + 1)
00E7   E587           01389         JBSET   PFLAG,2
00E8   A000           01390         GOTO    _00171_DS_
00E9   3C16           01391         MOVAI   0x16
00EA   4800           01392         RSUBAR  _B1_Ratio_VIN_AD
00EB                  01393 _00171_DS_
00EB   E187           01394         JBSET   PFLAG,0
00EC   A000           01395         GOTO    _00118_DS_
                      01396 ;;genSkipc:3195: created from rifx:00DE608C
                      01397 ;;swapping arguments (AOP_TYPEs 1/3)
                      01398 ;;unsigned compare: left >= lit(0xDCB=3531), size=2
00ED   3C0D           01399         MOVAI   0x0d
00EE   4800           01400         RSUBAR  (_B1_Ratio_VIN_AD + 1)
00EF   E587           01401         JBSET   PFLAG,2
00F0   A000           01402         GOTO    _00172_DS_
00F1   3CCB           01403         MOVAI   0xcb
00F2   4800           01404         RSUBAR  _B1_Ratio_VIN_AD
00F3                  01405 _00172_DS_
00F3   F187           01406         JBCLR   PFLAG,0
00F4   A000           01407         GOTO    _00118_DS_
                      01408 ;;genSkipc:3195: created from rifx:00DE608C
                      01409 ;;unsigned compare: left < lit(0xD16=3350), size=2
00F5   3C0D           01410         MOVAI   0x0d
00F6   4800           01411         RSUBAR  (_B2_Ratio_VIN_AD + 1)
00F7   E587           01412         JBSET   PFLAG,2
00F8   A000           01413         GOTO    _00173_DS_
00F9   3C16           01414         MOVAI   0x16
00FA   4800           01415         RSUBAR  _B2_Ratio_VIN_AD
00FB                  01416 _00173_DS_
00FB   E187           01417         JBSET   PFLAG,0
00FC   A000           01418         GOTO    _00118_DS_
                      01419 ;;genSkipc:3195: created from rifx:00DE608C
                      01420 ;;swapping arguments (AOP_TYPEs 1/3)
                      01421 ;;unsigned compare: left >= lit(0xDCB=3531), size=2
00FD   3C0D           01422         MOVAI   0x0d
00FE   4800           01423         RSUBAR  (_B2_Ratio_VIN_AD + 1)
00FF   E587           01424         JBSET   PFLAG,2
0100   A000           01425         GOTO    _00174_DS_
0101   3CCB           01426         MOVAI   0xcb
0102   4800           01427         RSUBAR  _B2_Ratio_VIN_AD
0103                  01428 _00174_DS_
0103   F187           01429         JBCLR   PFLAG,0
0104   A000           01430         GOTO    _00118_DS_
                      01431 ;;genSkipc:3195: created from rifx:00DE608C
                      01432 ;;unsigned compare: left < lit(0xD16=3350), size=2
0105   3C0D           01433         MOVAI   0x0d
0106   4800           01434         RSUBAR  (_B3_Ratio_VIN_AD + 1)
0107   E587           01435         JBSET   PFLAG,2
0108   A000           01436         GOTO    _00175_DS_
0109   3C16           01437         MOVAI   0x16
010A   4800           01438         RSUBAR  _B3_Ratio_VIN_AD
010B                  01439 _00175_DS_
010B   E187           01440         JBSET   PFLAG,0
010C   A000           01441         GOTO    _00118_DS_
                      01442 ;;genSkipc:3195: created from rifx:00DE608C
                      01443 ;;swapping arguments (AOP_TYPEs 1/3)
                      01444 ;;unsigned compare: left >= lit(0xDCB=3531), size=2
010D   3C0D           01445         MOVAI   0x0d
010E   4800           01446         RSUBAR  (_B3_Ratio_VIN_AD + 1)
010F   E587           01447         JBSET   PFLAG,2
0110   A000           01448         GOTO    _00176_DS_
0111   3CCB           01449         MOVAI   0xcb
0112   4800           01450         RSUBAR  _B3_Ratio_VIN_AD
0113                  01451 _00176_DS_
0113   F187           01452         JBCLR   PFLAG,0
0114   A000           01453         GOTO    _00118_DS_
                      01454 ;;genSkipc:3195: created from rifx:00DE608C
                      01455 ;;unsigned compare: left < lit(0xD16=3350), size=2
0115   3C0D           01456         MOVAI   0x0d
0116   4800           01457         RSUBAR  (_BT_Ratio_VIN_AD + 1)
0117   E587           01458         JBSET   PFLAG,2
0118   A000           01459         GOTO    _00177_DS_
0119   3C16           01460         MOVAI   0x16
011A   4800           01461         RSUBAR  _BT_Ratio_VIN_AD
011B                  01462 _00177_DS_
011B   E187           01463         JBSET   PFLAG,0
011C   A000           01464         GOTO    _00118_DS_
                      01465 ;;genSkipc:3195: created from rifx:00DE608C
                      01466 ;;swapping arguments (AOP_TYPEs 1/3)
                      01467 ;;unsigned compare: left >= lit(0xDCB=3531), size=2
011D   3C0D           01468         MOVAI   0x0d
011E   4800           01469         RSUBAR  (_BT_Ratio_VIN_AD + 1)
011F   E587           01470         JBSET   PFLAG,2
0120   A000           01471         GOTO    _00178_DS_
0121   3CCB           01472         MOVAI   0xcb
0122   4800           01473         RSUBAR  _BT_Ratio_VIN_AD
0123                  01474 _00178_DS_
0123   E187           01475         JBSET   PFLAG,0
0124   A000           01476         GOTO    _00119_DS_
                      01477 ;;genSkipc:3195: created from rifx:00DE608C
0125                  01478 _00118_DS_
                      01479 ;       .line   210; "3S4SVoltmeter2.c" RLED_ON;//LED
0125   CA00           01480         BSET    _IOP2bits,5
                      01481 ;       .line   211; "3S4SVoltmeter2.c" GLED_ON;//LED                               
0126   CA00           01482         BSET    _IOP0bits,5
0127                  01483 _00116_DS_
                      01484 ;       .line   214; "3S4SVoltmeter2.c" Delay1mS_1M(500);//250Ms          
0127   3CF4           01485         MOVAI   0xf4
0128   5600           01486         MOVRA   STK00
0129   3C01           01487         MOVAI   0x01
012A   8000           01488         CALL    _Delay1mS_1M
                      01489 ;       .line   215; "3S4SVoltmeter2.c" GLED=!GLED;
012B   7600           01490         CLRR    r0x1060
012C   FA00           01491         JBCLR   _IOP0bits,5
012D   6600           01492         INCR    r0x1060
012E   5800           01493         MOVAR   r0x1060
012F   3C00           01494         MOVAI   0x00
0130   F587           01495         JBCLR   PFLAG,2
0131   3C01           01496         MOVAI   0x01
0132   5600           01497         MOVRA   r0x1060
0133   5600           01498         MOVRA   r0x1061
                      01499 ;;132   MOVAR   r0x1061
0134   4C00           01500         RRAR    r0x1060
0135   E187           01501         JBSET   PFLAG,0
0136   DA00           01502         BCLR    _IOP0bits,5
0137   F187           01503         JBCLR   PFLAG,0
0138   CA00           01504         BSET    _IOP0bits,5
                      01505 ;       .line   216; "3S4SVoltmeter2.c" RLED=!RLED;
0139   7600           01506         CLRR    r0x1060
013A   FA00           01507         JBCLR   _IOP2bits,5
013B   6600           01508         INCR    r0x1060
013C   5800           01509         MOVAR   r0x1060
013D   3C00           01510         MOVAI   0x00
013E   F587           01511         JBCLR   PFLAG,2
013F   3C01           01512         MOVAI   0x01
0140   5600           01513         MOVRA   r0x1060
0141   5600           01514         MOVRA   r0x1061
                      01515 ;;100   MOVAR   r0x1061
0142   4C00           01516         RRAR    r0x1060
0143   E187           01517         JBSET   PFLAG,0
0144   DA00           01518         BCLR    _IOP2bits,5
0145   F187           01519         JBCLR   PFLAG,0
0146   CA00           01520         BSET    _IOP2bits,5
0147   A000           01521         GOTO    _00116_DS_
0148                  01522 _00119_DS_
                      01523 ;       .line   220; "3S4SVoltmeter2.c" LCD_init();  //LCD 
0148   8000           01524         CALL    _LCD_init
                      01525 ;       .line   221; "3S4SVoltmeter2.c" LCD_clear();
0149   8000           01526         CALL    _LCD_clear
                      01527 ;       .line   222; "3S4SVoltmeter2.c" LCD_write_shu57(0,0,13);//B             ()          
014A   3C0D           01528         MOVAI   0x0d
014B   5600           01529         MOVRA   STK01
014C   3C00           01530         MOVAI   0x00
014D   5600           01531         MOVRA   STK00
014E   3C00           01532         MOVAI   0x00
014F   8000           01533         CALL    _LCD_write_shu57
                      01534 ;       .line   223; "3S4SVoltmeter2.c" LCD_write_shu57(1,0,14);//T             ()          
0150   3C0E           01535         MOVAI   0x0e
0151   5600           01536         MOVRA   STK01
0152   3C00           01537         MOVAI   0x00
0153   5600           01538         MOVRA   STK00
0154   3C01           01539         MOVAI   0x01
0155   8000           01540         CALL    _LCD_write_shu57
                      01541 ;       .line   224; "3S4SVoltmeter2.c" LCD_write_shu57(2,0,11);//: ()              
0156   3C0B           01542         MOVAI   0x0b
0157   5600           01543         MOVRA   STK01
0158   3C00           01544         MOVAI   0x00
0159   5600           01545         MOVRA   STK00
015A   3C02           01546         MOVAI   0x02
015B   8000           01547         CALL    _LCD_write_shu57
                      01548 ;       .line   225; "3S4SVoltmeter2.c" LCD_write_shu57(3,0,4);//0              ()
015C   3C04           01549         MOVAI   0x04
015D   5600           01550         MOVRA   STK01
015E   3C00           01551         MOVAI   0x00
015F   5600           01552         MOVRA   STK00
0160   3C03           01553         MOVAI   0x03
0161   8000           01554         CALL    _LCD_write_shu57
                      01555 ;       .line   226; "3S4SVoltmeter2.c" LCD_write_shu57(4,0,10);//.             ()
0162   3C0A           01556         MOVAI   0x0a
0163   5600           01557         MOVRA   STK01
0164   3C00           01558         MOVAI   0x00
0165   5600           01559         MOVRA   STK00
0166   3C04           01560         MOVAI   0x04
0167   8000           01561         CALL    _LCD_write_shu57
                      01562 ;       .line   227; "3S4SVoltmeter2.c" LCD_write_shu57(5,0,2);//0              ()
0168   3C02           01563         MOVAI   0x02
0169   5600           01564         MOVRA   STK01
016A   3C00           01565         MOVAI   0x00
016B   5600           01566         MOVRA   STK00
016C   3C05           01567         MOVAI   0x05
016D   8000           01568         CALL    _LCD_write_shu57
                      01569 ;       .line   228; "3S4SVoltmeter2.c" LCD_write_shu57(6,0,0);//0              ()          
016E   3C00           01570         MOVAI   0x00
016F   5600           01571         MOVRA   STK01
0170   3C00           01572         MOVAI   0x00
0171   5600           01573         MOVRA   STK00
0172   3C06           01574         MOVAI   0x06
0173   8000           01575         CALL    _LCD_write_shu57
                      01576 ;       .line   229; "3S4SVoltmeter2.c" LCD_write_shu57(7,0,15);//V             ()                  
0174   3C0F           01577         MOVAI   0x0f
0175   5600           01578         MOVRA   STK01
0176   3C00           01579         MOVAI   0x00
0177   5600           01580         MOVRA   STK00
0178   3C07           01581         MOVAI   0x07
0179   8000           01582         CALL    _LCD_write_shu57
                      01583 ;       .line   230; "3S4SVoltmeter2.c" LCD_write_shu57(8,0,1);//0              ()
017A   3C01           01584         MOVAI   0x01
017B   5600           01585         MOVRA   STK01
017C   3C00           01586         MOVAI   0x00
017D   5600           01587         MOVRA   STK00
017E   3C08           01588         MOVAI   0x08
017F   8000           01589         CALL    _LCD_write_shu57
                      01590 ;       .line   231; "3S4SVoltmeter2.c" LCD_write_shu57(9,0,6);//0              ()
0180   3C06           01591         MOVAI   0x06
0181   5600           01592         MOVRA   STK01
0182   3C00           01593         MOVAI   0x00
0183   5600           01594         MOVRA   STK00
0184   3C09           01595         MOVAI   0x09
0185   8000           01596         CALL    _LCD_write_shu57
                      01597 ;       .line   232; "3S4SVoltmeter2.c" LCD_write_shu57(10,0,10);//.            ()
0186   3C0A           01598         MOVAI   0x0a
0187   5600           01599         MOVRA   STK01
0188   3C00           01600         MOVAI   0x00
0189   5600           01601         MOVRA   STK00
018A   3C0A           01602         MOVAI   0x0a
018B   8000           01603         CALL    _LCD_write_shu57
                      01604 ;       .line   233; "3S4SVoltmeter2.c" LCD_write_shu57(11,0,8);//0             ()
018C   3C08           01605         MOVAI   0x08
018D   5600           01606         MOVRA   STK01
018E   3C00           01607         MOVAI   0x00
018F   5600           01608         MOVRA   STK00
0190   3C0B           01609         MOVAI   0x0b
0191   8000           01610         CALL    _LCD_write_shu57
                      01611 ;       .line   234; "3S4SVoltmeter2.c" LCD_write_shu57(12,0,0);//0             ()          
0192   3C00           01612         MOVAI   0x00
0193   5600           01613         MOVRA   STK01
0194   3C00           01614         MOVAI   0x00
0195   5600           01615         MOVRA   STK00
0196   3C0C           01616         MOVAI   0x0c
0197   8000           01617         CALL    _LCD_write_shu57
                      01618 ;       .line   235; "3S4SVoltmeter2.c" LCD_write_shu57(13,0,15);//V            ()          
0198   3C0F           01619         MOVAI   0x0f
0199   5600           01620         MOVRA   STK01
019A   3C00           01621         MOVAI   0x00
019B   5600           01622         MOVRA   STK00
019C   3C0D           01623         MOVAI   0x0d
019D   8000           01624         CALL    _LCD_write_shu57
                      01625 ;       .line   237; "3S4SVoltmeter2.c" LCD_write_shu57(0,1,13);//B
019E   3C0D           01626         MOVAI   0x0d
019F   5600           01627         MOVRA   STK01
01A0   3C01           01628         MOVAI   0x01
01A1   5600           01629         MOVRA   STK00
01A2   3C00           01630         MOVAI   0x00
01A3   8000           01631         CALL    _LCD_write_shu57
                      01632 ;       .line   238; "3S4SVoltmeter2.c" LCD_write_shu57(1,1,3);//3
01A4   3C03           01633         MOVAI   0x03
01A5   5600           01634         MOVRA   STK01
01A6   3C01           01635         MOVAI   0x01
01A7   5600           01636         MOVRA   STK00
01A8   3C01           01637         MOVAI   0x01
01A9   8000           01638         CALL    _LCD_write_shu57
                      01639 ;       .line   239; "3S4SVoltmeter2.c" LCD_write_shu57(2,1,11);//:
01AA   3C0B           01640         MOVAI   0x0b
01AB   5600           01641         MOVRA   STK01
01AC   3C01           01642         MOVAI   0x01
01AD   5600           01643         MOVRA   STK00
01AE   3C02           01644         MOVAI   0x02
01AF   8000           01645         CALL    _LCD_write_shu57
                      01646 ;       .line   240; "3S4SVoltmeter2.c" LCD_write_shu57(3,1,4);//0
01B0   3C04           01647         MOVAI   0x04
01B1   5600           01648         MOVRA   STK01
01B2   3C01           01649         MOVAI   0x01
01B3   5600           01650         MOVRA   STK00
01B4   3C03           01651         MOVAI   0x03
01B5   8000           01652         CALL    _LCD_write_shu57
                      01653 ;       .line   241; "3S4SVoltmeter2.c" LCD_write_shu57(4,1,10);//.
01B6   3C0A           01654         MOVAI   0x0a
01B7   5600           01655         MOVRA   STK01
01B8   3C01           01656         MOVAI   0x01
01B9   5600           01657         MOVRA   STK00
01BA   3C04           01658         MOVAI   0x04
01BB   8000           01659         CALL    _LCD_write_shu57
                      01660 ;       .line   242; "3S4SVoltmeter2.c" LCD_write_shu57(5,1,2);//0
01BC   3C02           01661         MOVAI   0x02
01BD   5600           01662         MOVRA   STK01
01BE   3C01           01663         MOVAI   0x01
01BF   5600           01664         MOVRA   STK00
01C0   3C05           01665         MOVAI   0x05
01C1   8000           01666         CALL    _LCD_write_shu57
                      01667 ;       .line   243; "3S4SVoltmeter2.c" LCD_write_shu57(6,1,0);//0
01C2   3C00           01668         MOVAI   0x00
01C3   5600           01669         MOVRA   STK01
01C4   3C01           01670         MOVAI   0x01
01C5   5600           01671         MOVRA   STK00
01C6   3C06           01672         MOVAI   0x06
01C7   8000           01673         CALL    _LCD_write_shu57
                      01674 ;       .line   244; "3S4SVoltmeter2.c" LCD_write_shu57(7,1,15);//V
01C8   3C0F           01675         MOVAI   0x0f
01C9   5600           01676         MOVRA   STK01
01CA   3C01           01677         MOVAI   0x01
01CB   5600           01678         MOVRA   STK00
01CC   3C07           01679         MOVAI   0x07
01CD   8000           01680         CALL    _LCD_write_shu57
                      01681 ;       .line   245; "3S4SVoltmeter2.c" LCD_write_shu57(8,1,1);//0
01CE   3C01           01682         MOVAI   0x01
01CF   5600           01683         MOVRA   STK01
01D0   3C01           01684         MOVAI   0x01
01D1   5600           01685         MOVRA   STK00
01D2   3C08           01686         MOVAI   0x08
01D3   8000           01687         CALL    _LCD_write_shu57
                      01688 ;       .line   246; "3S4SVoltmeter2.c" LCD_write_shu57(9,1,2);//0
01D4   3C02           01689         MOVAI   0x02
01D5   5600           01690         MOVRA   STK01
01D6   3C01           01691         MOVAI   0x01
01D7   5600           01692         MOVRA   STK00
01D8   3C09           01693         MOVAI   0x09
01D9   8000           01694         CALL    _LCD_write_shu57
                      01695 ;       .line   247; "3S4SVoltmeter2.c" LCD_write_shu57(10,1,10);//.
01DA   3C0A           01696         MOVAI   0x0a
01DB   5600           01697         MOVRA   STK01
01DC   3C01           01698         MOVAI   0x01
01DD   5600           01699         MOVRA   STK00
01DE   3C0A           01700         MOVAI   0x0a
01DF   8000           01701         CALL    _LCD_write_shu57
                      01702 ;       .line   248; "3S4SVoltmeter2.c" LCD_write_shu57(11,1,6);//0
01E0   3C06           01703         MOVAI   0x06
01E1   5600           01704         MOVRA   STK01
01E2   3C01           01705         MOVAI   0x01
01E3   5600           01706         MOVRA   STK00
01E4   3C0B           01707         MOVAI   0x0b
01E5   8000           01708         CALL    _LCD_write_shu57
                      01709 ;       .line   249; "3S4SVoltmeter2.c" LCD_write_shu57(12,1,0);//0
01E6   3C00           01710         MOVAI   0x00
01E7   5600           01711         MOVRA   STK01
01E8   3C01           01712         MOVAI   0x01
01E9   5600           01713         MOVRA   STK00
01EA   3C0C           01714         MOVAI   0x0c
01EB   8000           01715         CALL    _LCD_write_shu57
                      01716 ;       .line   250; "3S4SVoltmeter2.c" LCD_write_shu57(13,1,15);//V
01EC   3C0F           01717         MOVAI   0x0f
01ED   5600           01718         MOVRA   STK01
01EE   3C01           01719         MOVAI   0x01
01EF   5600           01720         MOVRA   STK00
01F0   3C0D           01721         MOVAI   0x0d
01F1   8000           01722         CALL    _LCD_write_shu57
                      01723 ;       .line   252; "3S4SVoltmeter2.c" LCD_write_shu57(0,2,13);//B
01F2   3C0D           01724         MOVAI   0x0d
01F3   5600           01725         MOVRA   STK01
01F4   3C02           01726         MOVAI   0x02
01F5   5600           01727         MOVRA   STK00
01F6   3C00           01728         MOVAI   0x00
01F7   8000           01729         CALL    _LCD_write_shu57
                      01730 ;       .line   253; "3S4SVoltmeter2.c" LCD_write_shu57(1,2,2);//2
01F8   3C02           01731         MOVAI   0x02
01F9   5600           01732         MOVRA   STK01
01FA   3C02           01733         MOVAI   0x02
01FB   5600           01734         MOVRA   STK00
01FC   3C01           01735         MOVAI   0x01
01FD   8000           01736         CALL    _LCD_write_shu57
                      01737 ;       .line   254; "3S4SVoltmeter2.c" LCD_write_shu57(2,2,11);//:
01FE   3C0B           01738         MOVAI   0x0b
01FF   5600           01739         MOVRA   STK01
0200   3C02           01740         MOVAI   0x02
0201   5600           01741         MOVRA   STK00
0202   3C02           01742         MOVAI   0x02
0203   8000           01743         CALL    _LCD_write_shu57
                      01744 ;       .line   255; "3S4SVoltmeter2.c" LCD_write_shu57(3,2,4);//0
0204   3C04           01745         MOVAI   0x04
0205   5600           01746         MOVRA   STK01
0206   3C02           01747         MOVAI   0x02
0207   5600           01748         MOVRA   STK00
0208   3C03           01749         MOVAI   0x03
0209   8000           01750         CALL    _LCD_write_shu57
                      01751 ;       .line   256; "3S4SVoltmeter2.c" LCD_write_shu57(4,2,10);//.
020A   3C0A           01752         MOVAI   0x0a
020B   5600           01753         MOVRA   STK01
020C   3C02           01754         MOVAI   0x02
020D   5600           01755         MOVRA   STK00
020E   3C04           01756         MOVAI   0x04
020F   8000           01757         CALL    _LCD_write_shu57
                      01758 ;       .line   257; "3S4SVoltmeter2.c" LCD_write_shu57(5,2,2);//0
0210   3C02           01759         MOVAI   0x02
0211   5600           01760         MOVRA   STK01
0212   3C02           01761         MOVAI   0x02
0213   5600           01762         MOVRA   STK00
0214   3C05           01763         MOVAI   0x05
0215   8000           01764         CALL    _LCD_write_shu57
                      01765 ;       .line   258; "3S4SVoltmeter2.c" LCD_write_shu57(6,2,0);//0
0216   3C00           01766         MOVAI   0x00
0217   5600           01767         MOVRA   STK01
0218   3C02           01768         MOVAI   0x02
0219   5600           01769         MOVRA   STK00
021A   3C06           01770         MOVAI   0x06
021B   8000           01771         CALL    _LCD_write_shu57
                      01772 ;       .line   259; "3S4SVoltmeter2.c" LCD_write_shu57(7,2,15);//V
021C   3C0F           01773         MOVAI   0x0f
021D   5600           01774         MOVRA   STK01
021E   3C02           01775         MOVAI   0x02
021F   5600           01776         MOVRA   STK00
0220   3C07           01777         MOVAI   0x07
0221   8000           01778         CALL    _LCD_write_shu57
                      01779 ;       .line   260; "3S4SVoltmeter2.c" LCD_write_shu57(8,2,12);//' '
0222   3C0C           01780         MOVAI   0x0c
0223   5600           01781         MOVRA   STK01
0224   3C02           01782         MOVAI   0x02
0225   5600           01783         MOVRA   STK00
0226   3C08           01784         MOVAI   0x08
0227   8000           01785         CALL    _LCD_write_shu57
                      01786 ;       .line   261; "3S4SVoltmeter2.c" LCD_write_shu57(9,2,8);//0
0228   3C08           01787         MOVAI   0x08
0229   5600           01788         MOVRA   STK01
022A   3C02           01789         MOVAI   0x02
022B   5600           01790         MOVRA   STK00
022C   3C09           01791         MOVAI   0x09
022D   8000           01792         CALL    _LCD_write_shu57
                      01793 ;       .line   262; "3S4SVoltmeter2.c" LCD_write_shu57(10,2,10);//.
022E   3C0A           01794         MOVAI   0x0a
022F   5600           01795         MOVRA   STK01
0230   3C02           01796         MOVAI   0x02
0231   5600           01797         MOVRA   STK00
0232   3C0A           01798         MOVAI   0x0a
0233   8000           01799         CALL    _LCD_write_shu57
                      01800 ;       .line   263; "3S4SVoltmeter2.c" LCD_write_shu57(11,2,4);//0
0234   3C04           01801         MOVAI   0x04
0235   5600           01802         MOVRA   STK01
0236   3C02           01803         MOVAI   0x02
0237   5600           01804         MOVRA   STK00
0238   3C0B           01805         MOVAI   0x0b
0239   8000           01806         CALL    _LCD_write_shu57
                      01807 ;       .line   264; "3S4SVoltmeter2.c" LCD_write_shu57(12,2,0);//0
023A   3C00           01808         MOVAI   0x00
023B   5600           01809         MOVRA   STK01
023C   3C02           01810         MOVAI   0x02
023D   5600           01811         MOVRA   STK00
023E   3C0C           01812         MOVAI   0x0c
023F   8000           01813         CALL    _LCD_write_shu57
                      01814 ;       .line   265; "3S4SVoltmeter2.c" LCD_write_shu57(13,2,15);//V
0240   3C0F           01815         MOVAI   0x0f
0241   5600           01816         MOVRA   STK01
0242   3C02           01817         MOVAI   0x02
0243   5600           01818         MOVRA   STK00
0244   3C0D           01819         MOVAI   0x0d
0245   8000           01820         CALL    _LCD_write_shu57
                      01821 ;       .line   267; "3S4SVoltmeter2.c" LCD_write_shu57(0,3,13);//B
0246   3C0D           01822         MOVAI   0x0d
0247   5600           01823         MOVRA   STK01
0248   3C03           01824         MOVAI   0x03
0249   5600           01825         MOVRA   STK00
024A   3C00           01826         MOVAI   0x00
024B   8000           01827         CALL    _LCD_write_shu57
                      01828 ;       .line   268; "3S4SVoltmeter2.c" LCD_write_shu57(1,3,1);//1
024C   3C01           01829         MOVAI   0x01
024D   5600           01830         MOVRA   STK01
024E   3C03           01831         MOVAI   0x03
024F   5600           01832         MOVRA   STK00
0250   3C01           01833         MOVAI   0x01
0251   8000           01834         CALL    _LCD_write_shu57
                      01835 ;       .line   269; "3S4SVoltmeter2.c" LCD_write_shu57(2,3,11);//:
0252   3C0B           01836         MOVAI   0x0b
0253   5600           01837         MOVRA   STK01
0254   3C03           01838         MOVAI   0x03
0255   5600           01839         MOVRA   STK00
0256   3C02           01840         MOVAI   0x02
0257   8000           01841         CALL    _LCD_write_shu57
                      01842 ;       .line   270; "3S4SVoltmeter2.c" LCD_write_shu57(3,3,4);//0
0258   3C04           01843         MOVAI   0x04
0259   5600           01844         MOVRA   STK01
025A   3C03           01845         MOVAI   0x03
025B   5600           01846         MOVRA   STK00
025C   3C03           01847         MOVAI   0x03
025D   8000           01848         CALL    _LCD_write_shu57
                      01849 ;       .line   271; "3S4SVoltmeter2.c" LCD_write_shu57(4,3,10);//.
025E   3C0A           01850         MOVAI   0x0a
025F   5600           01851         MOVRA   STK01
0260   3C03           01852         MOVAI   0x03
0261   5600           01853         MOVRA   STK00
0262   3C04           01854         MOVAI   0x04
0263   8000           01855         CALL    _LCD_write_shu57
                      01856 ;       .line   272; "3S4SVoltmeter2.c" LCD_write_shu57(5,3,2);//0
0264   3C02           01857         MOVAI   0x02
0265   5600           01858         MOVRA   STK01
0266   3C03           01859         MOVAI   0x03
0267   5600           01860         MOVRA   STK00
0268   3C05           01861         MOVAI   0x05
0269   8000           01862         CALL    _LCD_write_shu57
                      01863 ;       .line   273; "3S4SVoltmeter2.c" LCD_write_shu57(6,3,0);//0
026A   3C00           01864         MOVAI   0x00
026B   5600           01865         MOVRA   STK01
026C   3C03           01866         MOVAI   0x03
026D   5600           01867         MOVRA   STK00
026E   3C06           01868         MOVAI   0x06
026F   8000           01869         CALL    _LCD_write_shu57
                      01870 ;       .line   274; "3S4SVoltmeter2.c" LCD_write_shu57(7,3,15);//V
0270   3C0F           01871         MOVAI   0x0f
0271   5600           01872         MOVRA   STK01
0272   3C03           01873         MOVAI   0x03
0273   5600           01874         MOVRA   STK00
0274   3C07           01875         MOVAI   0x07
0275   8000           01876         CALL    _LCD_write_shu57
                      01877 ;       .line   275; "3S4SVoltmeter2.c" LCD_write_shu57(8,3,12);//' '
0276   3C0C           01878         MOVAI   0x0c
0277   5600           01879         MOVRA   STK01
0278   3C03           01880         MOVAI   0x03
0279   5600           01881         MOVRA   STK00
027A   3C08           01882         MOVAI   0x08
027B   8000           01883         CALL    _LCD_write_shu57
                      01884 ;       .line   276; "3S4SVoltmeter2.c" LCD_write_shu57(9,3,2);//0
027C   3C02           01885         MOVAI   0x02
027D   5600           01886         MOVRA   STK01
027E   3C03           01887         MOVAI   0x03
027F   5600           01888         MOVRA   STK00
0280   3C09           01889         MOVAI   0x09
0281   8000           01890         CALL    _LCD_write_shu57
                      01891 ;       .line   277; "3S4SVoltmeter2.c" LCD_write_shu57(10,3,5);//0
0282   3C05           01892         MOVAI   0x05
0283   5600           01893         MOVRA   STK01
0284   3C03           01894         MOVAI   0x03
0285   5600           01895         MOVRA   STK00
0286   3C0A           01896         MOVAI   0x0a
0287   8000           01897         CALL    _LCD_write_shu57
                      01898 ;       .line   278; "3S4SVoltmeter2.c" LCD_write_shu57(11,3,10);//.
0288   3C0A           01899         MOVAI   0x0a
0289   5600           01900         MOVRA   STK01
028A   3C03           01901         MOVAI   0x03
028B   5600           01902         MOVRA   STK00
028C   3C0B           01903         MOVAI   0x0b
028D   8000           01904         CALL    _LCD_write_shu57
                      01905 ;       .line   279; "3S4SVoltmeter2.c" LCD_write_shu57(12,3,0);//0
028E   3C00           01906         MOVAI   0x00
028F   5600           01907         MOVRA   STK01
0290   3C03           01908         MOVAI   0x03
0291   5600           01909         MOVRA   STK00
0292   3C0C           01910         MOVAI   0x0c
0293   8000           01911         CALL    _LCD_write_shu57
                      01912 ;       .line   280; "3S4SVoltmeter2.c" LCD_write_shu57(13,3,16);//K
0294   3C10           01913         MOVAI   0x10
0295   5600           01914         MOVRA   STK01
0296   3C03           01915         MOVAI   0x03
0297   5600           01916         MOVRA   STK00
0298   3C0D           01917         MOVAI   0x0d
0299   8000           01918         CALL    _LCD_write_shu57
                      01919 ;       .line   281; "3S4SVoltmeter2.c" LCD_write_hanzi(0,4,0);//
029A   3C00           01920         MOVAI   0x00
029B   5600           01921         MOVRA   STK01
029C   3C04           01922         MOVAI   0x04
029D   5600           01923         MOVRA   STK00
029E   3C00           01924         MOVAI   0x00
029F   8000           01925         CALL    _LCD_write_hanzi
                      01926 ;       .line   282; "3S4SVoltmeter2.c" LCD_write_hanzi(1,4,1);//
02A0   3C01           01927         MOVAI   0x01
02A1   5600           01928         MOVRA   STK01
02A2   3C04           01929         MOVAI   0x04
02A3   5600           01930         MOVRA   STK00
02A4   3C01           01931         MOVAI   0x01
02A5   8000           01932         CALL    _LCD_write_hanzi
                      01933 ;       .line   283; "3S4SVoltmeter2.c" LCD_write_hanzi(2,4,2);//
02A6   3C02           01934         MOVAI   0x02
02A7   5600           01935         MOVRA   STK01
02A8   3C04           01936         MOVAI   0x04
02A9   5600           01937         MOVRA   STK00
02AA   3C02           01938         MOVAI   0x02
02AB   8000           01939         CALL    _LCD_write_hanzi
                      01940 ;       .line   284; "3S4SVoltmeter2.c" LCD_write_hanzi(3,4,3);//
02AC   3C03           01941         MOVAI   0x03
02AD   5600           01942         MOVRA   STK01
02AE   3C04           01943         MOVAI   0x04
02AF   5600           01944         MOVRA   STK00
02B0   3C03           01945         MOVAI   0x03
02B1   8000           01946         CALL    _LCD_write_hanzi
02B2                  01947 _00130_DS_
                      01948 ;       .line   298; "3S4SVoltmeter2.c" All_Adc_Convert(); //AD
02B2   8000           01949         CALL    _All_Adc_Convert
02B3   A000           01950         GOTO    _00130_DS_
02B4   000C           01951         RETURN  
                      01952 ; exit point of _main
                      01953 
                      01954 ;***
                      01955 ;  pBlock Stats: dbName = C
                      01956 ;***
                      01957 ;entry:  _Delay1mS_1M   ;Function start
                      01958 ; 2 exit points
                      01959 ;has an exit
                      01960 ;4 compiler assigned registers:
                      01961 ;   r0x1027
                      01962 ;   STK00
                      01963 ;   r0x1028
                      01964 ;   r0x1029
                      01965 ;; Starting pCode block
02B5                  01966 _Delay1mS_1M    ;Function start
                      01967 ; 2 exit points
                      01968 ;       .line   932; "3S4SVoltmeter2.c" void Delay1mS_1M(uint i)
02B5   5600           01969         MOVRA   r0x1027
02B6   5800           01970         MOVAR   STK00
02B7   5600           01971         MOVRA   r0x1028
02B8                  01972 _00550_DS_
                      01973 ;       .line   935; "3S4SVoltmeter2.c" for(;i>0;i--)
02B8   5800           01974         MOVAR   r0x1028
02B9   5C00           01975         ORAR    r0x1027
02BA   F587           01976         JBCLR   PFLAG,2
02BB   A000           01977         GOTO    _00554_DS_
                      01978 ;       .line   937; "3S4SVoltmeter2.c" for(jj=122;jj>0;jj--)
02BC   3C7A           01979         MOVAI   0x7a
02BD   5600           01980         MOVRA   r0x1029
02BE                  01981 _00546_DS_
02BE   3C00           01982         MOVAI   0x00
02BF   5C00           01983         ORAR    r0x1029
02C0   F587           01984         JBCLR   PFLAG,2
02C1   A000           01985         GOTO    _00549_DS_
                      01986 ;       .line   939; "3S4SVoltmeter2.c" Nop();
02C2   0000           01987         nop
                      01988 ;       .line   937; "3S4SVoltmeter2.c" for(jj=122;jj>0;jj--)
02C3   6E00           01989         DECR    r0x1029
02C4   A000           01990         GOTO    _00546_DS_
02C5                  01991 _00549_DS_
                      01992 ;       .line   941; "3S4SVoltmeter2.c" ClrWdt();                       //WDT
02C5   000E           01993         clrwdt
                      01994 ;       .line   935; "3S4SVoltmeter2.c" for(;i>0;i--)
02C6   3CFF           01995         MOVAI   0xff
02C7   7E00           01996         ADDRA   r0x1028
02C8   E187           01997         JBSET   PFLAG,0
02C9   6E00           01998         DECR    r0x1027
02CA   A000           01999         GOTO    _00550_DS_
02CB                  02000 _00554_DS_
02CB   000C           02001         RETURN  
                      02002 ; exit point of _Delay1mS_1M
                      02003 
                      02004 ;***
                      02005 ;  pBlock Stats: dbName = C
                      02006 ;***
                      02007 ;entry:  _SampleRelatedChannel  ;Function start
                      02008 ; 2 exit points
                      02009 ;has an exit
                      02010 ;14 compiler assigned registers:
                      02011 ;   r0x102A
                      02012 ;   STK00
                      02013 ;   r0x102B
                      02014 ;   r0x102C
                      02015 ;   r0x102D
                      02016 ;   r0x102E
                      02017 ;   r0x102F
                      02018 ;   r0x1030
                      02019 ;   r0x1031
                      02020 ;   r0x1032
                      02021 ;   r0x1033
                      02022 ;   r0x1034
                      02023 ;   r0x1035
                      02024 ;   r0x1036
                      02025 ;; Starting pCode block
02CC                  02026 _SampleRelatedChannel   ;Function start
                      02027 ; 2 exit points
                      02028 ;       .line   888; "3S4SVoltmeter2.c" uint  SampleRelatedChannel(uchar channel,uchar VREF)//AD
02CC   5600           02029         MOVRA   r0x102A
02CD   5800           02030         MOVAR   STK00
02CE   5600           02031         MOVRA   r0x102B
                      02032 ;       .line   892; "3S4SVoltmeter2.c" AD_Low_Value=0;
02CF   7600           02033         CLRR    r0x102C
02D0   7600           02034         CLRR    r0x102D
                      02035 ;       .line   893; "3S4SVoltmeter2.c" AD_High_Value=0;
02D1   7600           02036         CLRR    r0x102E
02D2   7600           02037         CLRR    r0x102F
                      02038 ;       .line   894; "3S4SVoltmeter2.c" middleval=0;               
02D3   7600           02039         CLRR    r0x1030
02D4   7600           02040         CLRR    r0x1031
                      02041 ;       .line   895; "3S4SVoltmeter2.c" ADCR0=channel+VREF+0x03;//
02D5   5800           02042         MOVAR   r0x102B
02D6   7E00           02043         ADDRA   r0x102A
02D7   3C03           02044         MOVAI   0x03
02D8   7C00           02045         ADDAR   r0x102A
02D9   5600           02046         MOVRA   _ADCR0
                      02047 ;       .line   896; "3S4SVoltmeter2.c" for(i=4;i>0;i--)//4
02DA   3C04           02048         MOVAI   0x04
02DB   5600           02049         MOVRA   r0x102A
02DC                  02050 _00502_DS_
02DC   3C00           02051         MOVAI   0x00
02DD   5C00           02052         ORAR    r0x102A
02DE   F587           02053         JBCLR   PFLAG,2
02DF   A000           02054         GOTO    _00526_DS_
                      02055 ;       .line   898; "3S4SVoltmeter2.c" ADEOC=0;//AD
02E0   D200           02056         BCLR    _ADCR0bits,1
02E1                  02057 _00488_DS_
                      02058 ;       .line   899; "3S4SVoltmeter2.c" while(ADEOC==0);//AD
02E1   E200           02059         JBSET   _ADCR0bits,1
02E2   A000           02060         GOTO    _00488_DS_
                      02061 ;       .line   900; "3S4SVoltmeter2.c" ADIF=0;//AD     
02E3   DC00           02062         BCLR    _INTFbits,6
                      02063 ;       .line   896; "3S4SVoltmeter2.c" for(i=4;i>0;i--)//4
02E4   6E00           02064         DECR    r0x102A
02E5   A000           02065         GOTO    _00502_DS_
02E6                  02066 _00526_DS_
                      02067 ;       .line   902; "3S4SVoltmeter2.c" for(i=10;i>0;i--)//10
02E6   3C0A           02068         MOVAI   0x0a
02E7   5600           02069         MOVRA   r0x102A
02E8                  02070 _00506_DS_
02E8   3C00           02071         MOVAI   0x00
02E9   5C00           02072         ORAR    r0x102A
02EA   F587           02073         JBCLR   PFLAG,2
02EB   A000           02074         GOTO    _00509_DS_
                      02075 ;       .line   904; "3S4SVoltmeter2.c" ADEOC=0;//AD
02EC   D200           02076         BCLR    _ADCR0bits,1
02ED                  02077 _00491_DS_
                      02078 ;       .line   905; "3S4SVoltmeter2.c" while(ADEOC==0);//AD
02ED   E200           02079         JBSET   _ADCR0bits,1
02EE   A000           02080         GOTO    _00491_DS_
                      02081 ;       .line   906; "3S4SVoltmeter2.c" ADIF=0;//AD
02EF   DC00           02082         BCLR    _INTFbits,6
                      02083 ;       .line   907; "3S4SVoltmeter2.c" TempADL=ADRL;//4
02F0   5800           02084         MOVAR   _ADRL
02F1   5600           02085         MOVRA   r0x102B
02F2   7600           02086         CLRR    r0x1032
                      02087 ;       .line   908; "3S4SVoltmeter2.c" TempADL&=0x0F;//4
02F3   3C0F           02088         MOVAI   0x0f
02F4   7A00           02089         ANDRA   r0x102B
02F5   7600           02090         CLRR    r0x1032
                      02091 ;       .line   909; "3S4SVoltmeter2.c" TempADH=ADRH;
02F6   5800           02092         MOVAR   _ADRH
02F7   5600           02093         MOVRA   r0x1033
02F8   7600           02094         CLRR    r0x1034
                      02095 ;       .line   910; "3S4SVoltmeter2.c" TempADH=(TempADH<<4)+TempADL;//AD12TempADH
02F9   4400           02096         SWAPAR  r0x1034
02FA   3EF0           02097         ANDAI   0xf0
02FB   5600           02098         MOVRA   r0x1035
02FC   4400           02099         SWAPAR  r0x1033
02FD   5600           02100         MOVRA   r0x1036
02FE   3E0F           02101         ANDAI   0x0f
02FF   5E00           02102         ORRA    r0x1035
0300   4200           02103         XORRA   r0x1036
0301   5800           02104         MOVAR   r0x102B
0302   7C00           02105         ADDAR   r0x1036
0303   5600           02106         MOVRA   r0x1033
0304   5800           02107         MOVAR   r0x1035
0305   5600           02108         MOVRA   r0x1034
0306   3C00           02109         MOVAI   0x00
0307   F187           02110         JBCLR   PFLAG,0
0308   6000           02111         JZAR    r0x1032
0309   7E00           02112         ADDRA   r0x1034
                      02113 ;       .line   911; "3S4SVoltmeter2.c" if(i==10)
030A   5800           02114         MOVAR   r0x102A
030B   390A           02115         XORAI   0x0a
030C   E587           02116         JBSET   PFLAG,2
030D   A000           02117         GOTO    _00500_DS_
                      02118 ;       .line   913; "3S4SVoltmeter2.c" AD_High_Value=TempADH;
030E   5800           02119         MOVAR   r0x1033
030F   5600           02120         MOVRA   r0x102E
0310   5800           02121         MOVAR   r0x1034
0311   5600           02122         MOVRA   r0x102F
                      02123 ;       .line   914; "3S4SVoltmeter2.c" AD_Low_Value=TempADH;
0312   5800           02124         MOVAR   r0x1033
0313   5600           02125         MOVRA   r0x102C
0314   5800           02126         MOVAR   r0x1034
0315   5600           02127         MOVRA   r0x102D
0316   A000           02128         GOTO    _00501_DS_
0317                  02129 _00500_DS_
                      02130 ;       .line   918; "3S4SVoltmeter2.c" if(TempADH>AD_High_Value)
0317   5800           02131         MOVAR   r0x1034
0318   4800           02132         RSUBAR  r0x102F
0319   E587           02133         JBSET   PFLAG,2
031A   A000           02134         GOTO    _00540_DS_
031B   5800           02135         MOVAR   r0x1033
031C   4800           02136         RSUBAR  r0x102E
031D                  02137 _00540_DS_
031D   F187           02138         JBCLR   PFLAG,0
031E   A000           02139         GOTO    _00497_DS_
                      02140 ;;genSkipc:3195: created from rifx:00DE608C
                      02141 ;       .line   919; "3S4SVoltmeter2.c" {AD_High_Value=TempADH;}
031F   5800           02142         MOVAR   r0x1033
0320   5600           02143         MOVRA   r0x102E
0321   5800           02144         MOVAR   r0x1034
0322   5600           02145         MOVRA   r0x102F
0323   A000           02146         GOTO    _00501_DS_
0324                  02147 _00497_DS_
                      02148 ;       .line   920; "3S4SVoltmeter2.c" else if(TempADH<AD_Low_Value)
0324   5800           02149         MOVAR   r0x102D
0325   4800           02150         RSUBAR  r0x1034
0326   E587           02151         JBSET   PFLAG,2
0327   A000           02152         GOTO    _00541_DS_
0328   5800           02153         MOVAR   r0x102C
0329   4800           02154         RSUBAR  r0x1033
032A                  02155 _00541_DS_
032A   F187           02156         JBCLR   PFLAG,0
032B   A000           02157         GOTO    _00501_DS_
                      02158 ;;genSkipc:3195: created from rifx:00DE608C
                      02159 ;       .line   921; "3S4SVoltmeter2.c" {AD_Low_Value=TempADH;}            
032C   5800           02160         MOVAR   r0x1033
032D   5600           02161         MOVRA   r0x102C
032E   5800           02162         MOVAR   r0x1034
032F   5600           02163         MOVRA   r0x102D
0330                  02164 _00501_DS_
                      02165 ;       .line   923; "3S4SVoltmeter2.c" middleval+=TempADH;//ADmiddleval
0330   5800           02166         MOVAR   r0x1033
0331   7E00           02167         ADDRA   r0x1030
0332   5800           02168         MOVAR   r0x1034
0333   F187           02169         JBCLR   PFLAG,0
0334   6000           02170         JZAR    r0x1034
0335   7E00           02171         ADDRA   r0x1031
                      02172 ;       .line   924; "3S4SVoltmeter2.c" ClrWdt();//
0336   000E           02173         clrwdt
                      02174 ;       .line   902; "3S4SVoltmeter2.c" for(i=10;i>0;i--)//10
0337   6E00           02175         DECR    r0x102A
0338   A000           02176         GOTO    _00506_DS_
0339                  02177 _00509_DS_
                      02178 ;       .line   926; "3S4SVoltmeter2.c" middleval=(middleval-AD_High_Value-AD_Low_Value)>>3;                             
0339   5800           02179         MOVAR   r0x102E
033A   4800           02180         RSUBAR  r0x1030
033B   5600           02181         MOVRA   r0x102E
033C   5800           02182         MOVAR   r0x102F
033D   E187           02183         JBSET   PFLAG,0
033E   6400           02184         INCAR   r0x102F
033F   4800           02185         RSUBAR  r0x1031
0340   5600           02186         MOVRA   r0x102F
0341   5800           02187         MOVAR   r0x102C
0342   4800           02188         RSUBAR  r0x102E
0343   5600           02189         MOVRA   r0x102C
0344   5800           02190         MOVAR   r0x102D
0345   E187           02191         JBSET   PFLAG,0
0346   6400           02192         INCAR   r0x102D
0347   4800           02193         RSUBAR  r0x102F
0348   5600           02194         MOVRA   r0x102D
                      02195 ;;shiftRight_Left2ResultLit:5216: shCount=1, size=2, sign=0, same=0, offr=0
0349   D187           02196         BCLR    PFLAG,0
034A   4C00           02197         RRAR    r0x102D
034B   5600           02198         MOVRA   r0x1031
034C   4C00           02199         RRAR    r0x102C
034D   5600           02200         MOVRA   r0x1030
                      02201 ;;shiftRight_Left2ResultLit:5216: shCount=1, size=2, sign=0, same=1, offr=0
034E   D187           02202         BCLR    PFLAG,0
034F   4E00           02203         RRR     r0x1031
0350   4E00           02204         RRR     r0x1030
                      02205 ;;shiftRight_Left2ResultLit:5216: shCount=1, size=2, sign=0, same=1, offr=0
0351   D187           02206         BCLR    PFLAG,0
0352   4E00           02207         RRR     r0x1031
0353   4E00           02208         RRR     r0x1030
                      02209 ;       .line   927; "3S4SVoltmeter2.c" return ((uint)middleval);
0354   5800           02210         MOVAR   r0x1030
0355   5600           02211         MOVRA   STK00
0356   5800           02212         MOVAR   r0x1031
0357   000C           02213         RETURN  
                      02214 ; exit point of _SampleRelatedChannel
                      02215 
                      02216 ;***
                      02217 ;  pBlock Stats: dbName = C
                      02218 ;***
                      02219 ;entry:  _initial       ;Function start
                      02220 ; 2 exit points
                      02221 ;has an exit
                      02222 ;; Starting pCode block
0358                  02223 _initial        ;Function start
                      02224 ; 2 exit points
                      02225 ;       .line   795; "3S4SVoltmeter2.c" CLKS=0;//
0358   D400           02226         BCLR    _OSCMbits,2
                      02227 ;       .line   796; "3S4SVoltmeter2.c" LFEN=1;//.
0359   C200           02228         BSET    _OSCMbits,1
                      02229 ;       .line   797; "3S4SVoltmeter2.c" HFEN=1;//
035A   C000           02230         BSET    _OSCMbits,0
                      02231 ;       .line   800; "3S4SVoltmeter2.c" IOP0=0x00;//
035B   7600           02232         CLRR    _IOP0
                      02233 ;       .line   801; "3S4SVoltmeter2.c" IOP1=0x00;//pwm7.8V
035C   7600           02234         CLRR    _IOP1
                      02235 ;       .line   802; "3S4SVoltmeter2.c" IOP2=0x00;//IO
035D   7600           02236         CLRR    _IOP2
                      02237 ;       .line   803; "3S4SVoltmeter2.c" OEP0=0xFF;//P00:INPUT,1:OUPUT;P03,IO
035E   3CFF           02238         MOVAI   0xff
035F   5600           02239         MOVRA   _OEP0
                      02240 ;       .line   804; "3S4SVoltmeter2.c" OEP1=0xF0;//P10:INPUT,1:OUPUT;P10,P11,P12,P13,IO
0360   3CF0           02241         MOVAI   0xf0
0361   5600           02242         MOVRA   _OEP1
                      02243 ;       .line   805; "3S4SVoltmeter2.c" OEP2=0x3C;//P20:INPUT,1:OUPUT;P20,P21,IO
0362   3C3C           02244         MOVAI   0x3c
0363   5600           02245         MOVRA   _OEP2
                      02246 ;       .line   806; "3S4SVoltmeter2.c" PUP0=0x00;//P00:disenable,1:enable,P01,P02,P05,P06,P07=ON
0364   7600           02247         CLRR    _PUP0
                      02248 ;       .line   807; "3S4SVoltmeter2.c" PUP1=0x00;//P10:disenable,1:enable,P16,P15,P11,P10=ON
0365   7600           02249         CLRR    _PUP1
                      02250 ;       .line   808; "3S4SVoltmeter2.c" PUP2=0x00;//P20:disenable,1:enable,P25,P24,P23,P22=ON
0366   7600           02251         CLRR    _PUP2
                      02252 ;       .line   809; "3S4SVoltmeter2.c" PDP0=0x00;//P00:disenable,1:enable
0367   7600           02253         CLRR    _PDP0
                      02254 ;       .line   810; "3S4SVoltmeter2.c" PDP1=0x00;//P10:disenable,1:enable
0368   7600           02255         CLRR    _PDP1
                      02256 ;       .line   811; "3S4SVoltmeter2.c" PDP2=0x00;//P20:disenable,1:enable
0369   7600           02257         CLRR    _PDP2
                      02258 ;       .line   814; "3S4SVoltmeter2.c" MCR=0x00;//int0,int100:01:,1X:
036A   7600           02259         CLRR    _MCR
                      02260 ;       .line   815; "3S4SVoltmeter2.c" INTE=0x00;//-,ADIE,-,T2IE,INT1IE,INT0IE,T1IE,T0IE,
036B   7600           02261         CLRR    _INTE
                      02262 ;       .line   816; "3S4SVoltmeter2.c" INTF=0x00;//-,ADIF,-,T2IF,INT1IF,INT0IF,T1IF,T0IF,
036C   7600           02263         CLRR    _INTF
                      02264 ;       .line   817; "3S4SVoltmeter2.c" INTE1=0x00;
036D   7600           02265         CLRR    _INTE1
                      02266 ;       .line   818; "3S4SVoltmeter2.c" INTF1=0x00;
036E   7600           02267         CLRR    _INTF1
                      02268 ;       .line   819; "3S4SVoltmeter2.c" KBCR=0x00;//
036F   7600           02269         CLRR    _KBCR
                      02270 ;       .line   824; "3S4SVoltmeter2.c" ADCR1=0x13;//8,4ADFHIRC/16=16M/16=1M,15ADCLK
0370   3C13           02271         MOVAI   0x13
0371   5600           02272         MOVRA   _ADCR1
                      02273 ;       .line   825; "3S4SVoltmeter2.c" ADIOS0=0x3E;//P00:,1:P20/AN1P10/AN2P11/AN3P12/AN4P13/AN5
0372   3C3E           02274         MOVAI   0x3e
0373   5600           02275         MOVRA   _ADIOS0
                      02276 ;       .line   826; "3S4SVoltmeter2.c" ADIOS1=0x00;//P1,P20:,1:,P03/AN13
0374   7600           02277         CLRR    _ADIOS1
                      02278 ;       .line   828; "3S4SVoltmeter2.c" OSADJEN=0;//0  
0375   DE00           02279         BCLR    _OSADJCRbits,7
                      02280 ;       .line   829; "3S4SVoltmeter2.c" ADEN=1;//AD
0376   C000           02281         BSET    _ADCR0bits,0
                      02282 ;       .line   865; "3S4SVoltmeter2.c" IICEN=0;//IIC
0377   DE00           02283         BCLR    _IICCRbits,7
0378   000C           02284         RETURN  
                      02285 ; exit point of _initial
                      02286 
                      02287 ;***
                      02288 ;  pBlock Stats: dbName = C
                      02289 ;***
                      02290 ;entry:  _InitRam       ;Function start
                      02291 ; 2 exit points
                      02292 ;has an exit
                      02293 ;; Starting pCode block
0379                  02294 _InitRam        ;Function start
                      02295 ; 2 exit points
                      02296 ;       .line   786; "3S4SVoltmeter2.c" __endasm;
0379   3C01           02297         movai 0x01
037A   5785           02298         movra FSR1
037B   3C7F           02299         movai 0x7F
037C   5784           02300         movra FSR0
037D   7782           02301         clrr INDF2
037E   6B84           02302         djzr FSR0
037F   A000           02303         goto $-2
0380   7782           02304         clrr INDF2
0381   3CFF           02305         movai 0xFF
0382   5784           02306         movra FSR0
0383   7780           02307         clrr INDF0
0384   6B84           02308         djzr FSR0
0385   A000           02309         goto $-2
0386   7780           02310         clrr INDF0
                      02311         
0387   000C           02312         RETURN  
                      02313 ; exit point of _InitRam
                      02314 
                      02315 ;***
                      02316 ;  pBlock Stats: dbName = C
                      02317 ;***
                      02318 ;entry:  _AD_Init_mode  ;Function start
                      02319 ; 2 exit points
                      02320 ;has an exit
                      02321 ;; Starting pCode block
0388                  02322 _AD_Init_mode   ;Function start
                      02323 ; 2 exit points
                      02324 ;       .line   712; "3S4SVoltmeter2.c" ADCR0=0xe0;//2V GND
0388   3CE0           02325         MOVAI   0xe0
0389   5600           02326         MOVRA   _ADCR0
                      02327 ;       .line   713; "3S4SVoltmeter2.c" OSADJEN=1;// ADC 
038A   CE00           02328         BSET    _OSADJCRbits,7
                      02329 ;       .line   714; "3S4SVoltmeter2.c" ADCR1=0x33;//FHIRC/64,15ADCLK
038B   3C33           02330         MOVAI   0x33
038C   5600           02331         MOVRA   _ADCR1
                      02332 ;       .line   715; "3S4SVoltmeter2.c" OSADJCR&=0xc0;//060            
038D   3CC0           02333         MOVAI   0xc0
038E   7A00           02334         ANDRA   _OSADJCR
                      02335 ;       .line   716; "3S4SVoltmeter2.c" ADEN=1;
038F   C000           02336         BSET    _ADCR0bits,0
                      02337 ;       .line   717; "3S4SVoltmeter2.c" ADEOC=0;
0390   D200           02338         BCLR    _ADCR0bits,1
0391                  02339 _00444_DS_
                      02340 ;       .line   718; "3S4SVoltmeter2.c" while(ADEOC==0);//                                  
0391   E200           02341         JBSET   _ADCR0bits,1
0392   A000           02342         GOTO    _00444_DS_
                      02343 ;       .line   719; "3S4SVoltmeter2.c" ADH_temp=ADRH;
0393   5800           02344         MOVAR   _ADRH
0394   5600           02345         MOVRA   _ADH_temp
                      02346 ;       .line   720; "3S4SVoltmeter2.c" ADL_temp=ADRL;                           
0395   5800           02347         MOVAR   _ADRL
0396   5600           02348         MOVRA   _ADL_temp
                      02349 ;       .line   721; "3S4SVoltmeter2.c" if((ADH_temp==0)&&(ADL_temp==0))//0
0397   3C00           02350         MOVAI   0x00
0398   5C00           02351         ORAR    _ADH_temp
0399   E587           02352         JBSET   PFLAG,2
039A   A000           02353         GOTO    _00472_DS_
039B   3C00           02354         MOVAI   0x00
039C   5C00           02355         ORAR    _ADL_temp
039D   E587           02356         JBSET   PFLAG,2
039E   A000           02357         GOTO    _00472_DS_
                      02358 ;       .line   723; "3S4SVoltmeter2.c" OSADJCR|=0x3f;//
039F   3C3F           02359         MOVAI   0x3f
03A0   5E00           02360         ORRA    _OSADJCR
                      02361 ;       .line   724; "3S4SVoltmeter2.c" Data_OSADJCR=OSADJCR&0x1f;//
03A1   3C1F           02362         MOVAI   0x1f
03A2   7800           02363         ANDAR   _OSADJCR
03A3   5600           02364         MOVRA   _Data_OSADJCR
03A4                  02365 _00457_DS_
                      02366 ;       .line   727; "3S4SVoltmeter2.c" if(Data_OSADJCR==0x00) {return;}
03A4   3C00           02367         MOVAI   0x00
03A5   5C00           02368         ORAR    _Data_OSADJCR
03A6   E587           02369         JBSET   PFLAG,2
03A7   A000           02370         GOTO    _00454_DS_
03A8   A000           02371         GOTO    _00475_DS_
03A9                  02372 _00454_DS_
                      02373 ;       .line   730; "3S4SVoltmeter2.c" ADEOC=0;
03A9   D200           02374         BCLR    _ADCR0bits,1
03AA                  02375 _00447_DS_
                      02376 ;       .line   731; "3S4SVoltmeter2.c" while(ADEOC==0);
03AA   E200           02377         JBSET   _ADCR0bits,1
03AB   A000           02378         GOTO    _00447_DS_
                      02379 ;       .line   733; "3S4SVoltmeter2.c" ADH_temp=ADRH;
03AC   5800           02380         MOVAR   _ADRH
03AD   5600           02381         MOVRA   _ADH_temp
                      02382 ;       .line   734; "3S4SVoltmeter2.c" ADL_temp=ADRL;
03AE   5800           02383         MOVAR   _ADRL
03AF   5600           02384         MOVRA   _ADL_temp
                      02385 ;       .line   735; "3S4SVoltmeter2.c" if((ADH_temp==0)&&(ADL_temp==0)){return;}
03B0   3C00           02386         MOVAI   0x00
03B1   5C00           02387         ORAR    _ADH_temp
03B2   E587           02388         JBSET   PFLAG,2
03B3   A000           02389         GOTO    _00455_DS_
03B4   3C00           02390         MOVAI   0x00
03B5   5C00           02391         ORAR    _ADL_temp
03B6   E587           02392         JBSET   PFLAG,2
03B7   A000           02393         GOTO    _00455_DS_
03B8   A000           02394         GOTO    _00475_DS_
03B9                  02395 _00455_DS_
                      02396 ;       .line   738; "3S4SVoltmeter2.c" OSADJCR--;
03B9   6E00           02397         DECR    _OSADJCR
                      02398 ;       .line   739; "3S4SVoltmeter2.c" Data_OSADJCR=OSADJCR&0x1f;
03BA   3C1F           02399         MOVAI   0x1f
03BB   7800           02400         ANDAR   _OSADJCR
03BC   5600           02401         MOVRA   _Data_OSADJCR
03BD   A000           02402         GOTO    _00457_DS_
03BE                  02403 _00472_DS_
                      02404 ;       .line   744; "3S4SVoltmeter2.c" Data_OSADJCR=OSADJCR&0x1f;
03BE   3C1F           02405         MOVAI   0x1f
03BF   7800           02406         ANDAR   _OSADJCR
03C0   5600           02407         MOVRA   _Data_OSADJCR
03C1                  02408 _00469_DS_
                      02409 ;       .line   747; "3S4SVoltmeter2.c" if(Data_OSADJCR==0x1f) {return;}
03C1   5800           02410         MOVAR   _Data_OSADJCR
03C2   391F           02411         XORAI   0x1f
03C3   E587           02412         JBSET   PFLAG,2
03C4   A000           02413         GOTO    _00466_DS_
03C5   A000           02414         GOTO    _00475_DS_
03C6                  02415 _00466_DS_
                      02416 ;       .line   750; "3S4SVoltmeter2.c" ADEOC=0;
03C6   D200           02417         BCLR    _ADCR0bits,1
03C7                  02418 _00459_DS_
                      02419 ;       .line   751; "3S4SVoltmeter2.c" while(ADEOC==0);
03C7   E200           02420         JBSET   _ADCR0bits,1
03C8   A000           02421         GOTO    _00459_DS_
                      02422 ;       .line   753; "3S4SVoltmeter2.c" ADH_temp=ADRH;
03C9   5800           02423         MOVAR   _ADRH
03CA   5600           02424         MOVRA   _ADH_temp
                      02425 ;       .line   754; "3S4SVoltmeter2.c" ADL_temp=ADRL;
03CB   5800           02426         MOVAR   _ADRL
03CC   5600           02427         MOVRA   _ADL_temp
                      02428 ;       .line   755; "3S4SVoltmeter2.c" if((ADH_temp==0)&&(ADL_temp==0)) {return;}
03CD   3C00           02429         MOVAI   0x00
03CE   5C00           02430         ORAR    _ADH_temp
03CF   E587           02431         JBSET   PFLAG,2
03D0   A000           02432         GOTO    _00467_DS_
03D1   3C00           02433         MOVAI   0x00
03D2   5C00           02434         ORAR    _ADL_temp
03D3   E587           02435         JBSET   PFLAG,2
03D4   A000           02436         GOTO    _00467_DS_
03D5   A000           02437         GOTO    _00475_DS_
03D6                  02438 _00467_DS_
                      02439 ;       .line   758; "3S4SVoltmeter2.c" OSADJCR++;
03D6   6600           02440         INCR    _OSADJCR
                      02441 ;       .line   759; "3S4SVoltmeter2.c" Data_OSADJCR=OSADJCR&0x1f;
03D7   3C1F           02442         MOVAI   0x1f
03D8   7800           02443         ANDAR   _OSADJCR
03D9   5600           02444         MOVRA   _Data_OSADJCR
03DA   A000           02445         GOTO    _00469_DS_
03DB                  02446 _00475_DS_
03DB   000C           02447         RETURN  
                      02448 ; exit point of _AD_Init_mode
                      02449 
                      02450 ;***
                      02451 ;  pBlock Stats: dbName = C
                      02452 ;***
                      02453 ;entry:  _All_Adc_Convert       ;Function start
                      02454 ; 2 exit points
                      02455 ;has an exit
                      02456 ;functions called:
                      02457 ;   _SampleRelatedChannel
                      02458 ;   _SampleRelatedChannel
                      02459 ;   _SampleRelatedChannel
                      02460 ;   _SampleRelatedChannel
                      02461 ;   _SampleRelatedChannel
                      02462 ;   __mulint
                      02463 ;   __mulint
                      02464 ;   __mulint
                      02465 ;   _SampleRelatedChannel
                      02466 ;   _SampleRelatedChannel
                      02467 ;   _SampleRelatedChannel
                      02468 ;   _SampleRelatedChannel
                      02469 ;   _SampleRelatedChannel
                      02470 ;   __mulint
                      02471 ;   __mulint
                      02472 ;   __mulint
                      02473 ;9 compiler assigned registers:
                      02474 ;   STK00
                      02475 ;   r0x1037
                      02476 ;   r0x1038
                      02477 ;   r0x1039
                      02478 ;   r0x103A
                      02479 ;   STK02
                      02480 ;   STK01
                      02481 ;   r0x103B
                      02482 ;   r0x103C
                      02483 ;; Starting pCode block
03DC                  02484 _All_Adc_Convert        ;Function start
                      02485 ; 2 exit points
                      02486 ;       .line   543; "3S4SVoltmeter2.c" BT_VIN_AD=SampleRelatedChannel(BT_VIN_channel,VREF_VDD); //BTAD1.2MS
03DC   3C0C           02487         MOVAI   0x0c
03DD   5600           02488         MOVRA   STK00
03DE   3C20           02489         MOVAI   0x20
03DF   8000           02490         CALL    _SampleRelatedChannel
03E0   5600           02491         MOVRA   (_BT_VIN_AD + 1)
03E1   5800           02492         MOVAR   STK00
03E2   5600           02493         MOVRA   _BT_VIN_AD
                      02494 ;       .line   544; "3S4SVoltmeter2.c" B3_VIN_AD=SampleRelatedChannel(B3_VIN_channel,VREF_VDD); //B3AD1.2MS
03E3   3C0C           02495         MOVAI   0x0c
03E4   5600           02496         MOVRA   STK00
03E5   3C30           02497         MOVAI   0x30
03E6   8000           02498         CALL    _SampleRelatedChannel
03E7   5600           02499         MOVRA   (_B3_VIN_AD + 1)
03E8   5800           02500         MOVAR   STK00
03E9   5600           02501         MOVRA   _B3_VIN_AD
                      02502 ;       .line   545; "3S4SVoltmeter2.c" B2_VIN_AD=SampleRelatedChannel(B2_VIN_channel,VREF_VDD); //B2AD1.2MS
03EA   3C0C           02503         MOVAI   0x0c
03EB   5600           02504         MOVRA   STK00
03EC   3C40           02505         MOVAI   0x40
03ED   8000           02506         CALL    _SampleRelatedChannel
03EE   5600           02507         MOVRA   (_B2_VIN_AD + 1)
03EF   5800           02508         MOVAR   STK00
03F0   5600           02509         MOVRA   _B2_VIN_AD
                      02510 ;       .line   546; "3S4SVoltmeter2.c" B1_VIN_AD=SampleRelatedChannel(B1_VIN_channel,VREF_VDD); //B1AD1.2MS
03F1   3C0C           02511         MOVAI   0x0c
03F2   5600           02512         MOVRA   STK00
03F3   3C50           02513         MOVAI   0x50
03F4   8000           02514         CALL    _SampleRelatedChannel
03F5   5600           02515         MOVRA   (_B1_VIN_AD + 1)
03F6   5800           02516         MOVAR   STK00
03F7   5600           02517         MOVRA   _B1_VIN_AD
                      02518 ;       .line   547; "3S4SVoltmeter2.c" NTC_AD=SampleRelatedChannel(NTC_channel,VREF_VDD); //NTCAD1.2MS  
03F8   3C0C           02519         MOVAI   0x0c
03F9   5600           02520         MOVRA   STK00
03FA   3C10           02521         MOVAI   0x10
03FB   8000           02522         CALL    _SampleRelatedChannel
03FC   5600           02523         MOVRA   (_NTC_AD + 1)
03FD   5800           02524         MOVAR   STK00
03FE   5600           02525         MOVRA   _NTC_AD
                      02526 ;;swapping arguments (AOP_TYPEs 1/3)
                      02527 ;;unsigned compare: left >= lit(0xD71=3441), size=2
                      02528 ;       .line   550; "3S4SVoltmeter2.c" if(B1_Ratio_VIN_AD>3440)//B1AD
03FF   3C0D           02529         MOVAI   0x0d
0400   4800           02530         RSUBAR  (_B1_Ratio_VIN_AD + 1)
0401   E587           02531         JBSET   PFLAG,2
0402   A000           02532         GOTO    _00426_DS_
0403   3C71           02533         MOVAI   0x71
0404   4800           02534         RSUBAR  _B1_Ratio_VIN_AD
0405                  02535 _00426_DS_
0405   E187           02536         JBSET   PFLAG,0
0406   A000           02537         GOTO    _00344_DS_
                      02538 ;;genSkipc:3195: created from rifx:00DE608C
                      02539 ;       .line   552; "3S4SVoltmeter2.c" VIN_AD_Temp1=B1_Ratio_VIN_AD-3440;
0407   3C90           02540         MOVAI   0x90
0408   7C00           02541         ADDAR   _B1_Ratio_VIN_AD
0409   5600           02542         MOVRA   r0x1037
040A   3CF2           02543         MOVAI   0xf2
040B   5600           02544         MOVRA   r0x1038
040C   5800           02545         MOVAR   (_B1_Ratio_VIN_AD + 1)
040D   F187           02546         JBCLR   PFLAG,0
040E   6000           02547         JZAR    (_B1_Ratio_VIN_AD + 1)
040F   7E00           02548         ADDRA   r0x1038
                      02549 ;       .line   553; "3S4SVoltmeter2.c" if(B1_VIN_AD>VIN_AD_Temp1)
0410   5800           02550         MOVAR   (_B1_VIN_AD + 1)
0411   4800           02551         RSUBAR  r0x1038
0412   E587           02552         JBSET   PFLAG,2
0413   A000           02553         GOTO    _00427_DS_
0414   5800           02554         MOVAR   _B1_VIN_AD
0415   4800           02555         RSUBAR  r0x1037
0416                  02556 _00427_DS_
0416   F187           02557         JBCLR   PFLAG,0
0417   A000           02558         GOTO    _00341_DS_
                      02559 ;;genSkipc:3195: created from rifx:00DE608C
                      02560 ;       .line   555; "3S4SVoltmeter2.c" B1_VIN_AD=B1_VIN_AD-VIN_AD_Temp1;       
0418   5800           02561         MOVAR   r0x1037
0419   4A00           02562         RSUBRA  _B1_VIN_AD
041A   5800           02563         MOVAR   r0x1038
041B   E187           02564         JBSET   PFLAG,0
041C   6000           02565         JZAR    r0x1038
041D   4A00           02566         RSUBRA  (_B1_VIN_AD + 1)
041E   A000           02567         GOTO    _00345_DS_
041F                  02568 _00341_DS_
                      02569 ;       .line   559; "3S4SVoltmeter2.c" B1_VIN_AD=0;
041F   7600           02570         CLRR    _B1_VIN_AD
0420   7600           02571         CLRR    (_B1_VIN_AD + 1)
0421   A000           02572         GOTO    _00345_DS_
0422                  02573 _00344_DS_
                      02574 ;       .line   564; "3S4SVoltmeter2.c" VIN_AD_Temp1=3440-B1_Ratio_VIN_AD; 
0422   5800           02575         MOVAR   _B1_Ratio_VIN_AD
0423   3A70           02576         ISUBAI  0x70
0424   5600           02577         MOVRA   r0x1037
0425   5800           02578         MOVAR   (_B1_Ratio_VIN_AD + 1)
0426   E187           02579         JBSET   PFLAG,0
0427   6400           02580         INCAR   (_B1_Ratio_VIN_AD + 1)
0428   3A0D           02581         ISUBAI  0x0d
0429   5600           02582         MOVRA   r0x1038
                      02583 ;       .line   565; "3S4SVoltmeter2.c" B1_VIN_AD=B1_VIN_AD+VIN_AD_Temp1;
042A   5800           02584         MOVAR   r0x1037
042B   7E00           02585         ADDRA   _B1_VIN_AD
042C   5800           02586         MOVAR   r0x1038
042D   F187           02587         JBCLR   PFLAG,0
042E   6000           02588         JZAR    r0x1038
042F   7E00           02589         ADDRA   (_B1_VIN_AD + 1)
                      02590 ;;swapping arguments (AOP_TYPEs 1/3)
                      02591 ;;unsigned compare: left >= lit(0xD71=3441), size=2
0430                  02592 _00345_DS_
                      02593 ;       .line   569; "3S4SVoltmeter2.c" if(B2_Ratio_VIN_AD>3440)//B1AD
0430   3C0D           02594         MOVAI   0x0d
0431   4800           02595         RSUBAR  (_B2_Ratio_VIN_AD + 1)
0432   E587           02596         JBSET   PFLAG,2
0433   A000           02597         GOTO    _00428_DS_
0434   3C71           02598         MOVAI   0x71
0435   4800           02599         RSUBAR  _B2_Ratio_VIN_AD
0436                  02600 _00428_DS_
0436   E187           02601         JBSET   PFLAG,0
0437   A000           02602         GOTO    _00350_DS_
                      02603 ;;genSkipc:3195: created from rifx:00DE608C
                      02604 ;       .line   571; "3S4SVoltmeter2.c" VIN_AD_Temp1=B2_Ratio_VIN_AD-3440;
0438   3C90           02605         MOVAI   0x90
0439   7C00           02606         ADDAR   _B2_Ratio_VIN_AD
043A   5600           02607         MOVRA   r0x1037
043B   3CF2           02608         MOVAI   0xf2
043C   5600           02609         MOVRA   r0x1038
043D   5800           02610         MOVAR   (_B2_Ratio_VIN_AD + 1)
043E   F187           02611         JBCLR   PFLAG,0
043F   6000           02612         JZAR    (_B2_Ratio_VIN_AD + 1)
0440   7E00           02613         ADDRA   r0x1038
                      02614 ;       .line   572; "3S4SVoltmeter2.c" if(B2_VIN_AD>VIN_AD_Temp1)
0441   5800           02615         MOVAR   (_B2_VIN_AD + 1)
0442   4800           02616         RSUBAR  r0x1038
0443   E587           02617         JBSET   PFLAG,2
0444   A000           02618         GOTO    _00429_DS_
0445   5800           02619         MOVAR   _B2_VIN_AD
0446   4800           02620         RSUBAR  r0x1037
0447                  02621 _00429_DS_
0447   F187           02622         JBCLR   PFLAG,0
0448   A000           02623         GOTO    _00347_DS_
                      02624 ;;genSkipc:3195: created from rifx:00DE608C
                      02625 ;       .line   574; "3S4SVoltmeter2.c" B2_VIN_AD=B2_VIN_AD-VIN_AD_Temp1;       
0449   5800           02626         MOVAR   r0x1037
044A   4A00           02627         RSUBRA  _B2_VIN_AD
044B   5800           02628         MOVAR   r0x1038
044C   E187           02629         JBSET   PFLAG,0
044D   6000           02630         JZAR    r0x1038
044E   4A00           02631         RSUBRA  (_B2_VIN_AD + 1)
044F   A000           02632         GOTO    _00351_DS_
0450                  02633 _00347_DS_
                      02634 ;       .line   578; "3S4SVoltmeter2.c" B2_VIN_AD=0;
0450   7600           02635         CLRR    _B2_VIN_AD
0451   7600           02636         CLRR    (_B2_VIN_AD + 1)
0452   A000           02637         GOTO    _00351_DS_
0453                  02638 _00350_DS_
                      02639 ;       .line   583; "3S4SVoltmeter2.c" VIN_AD_Temp1=3440-B2_Ratio_VIN_AD; 
0453   5800           02640         MOVAR   _B2_Ratio_VIN_AD
0454   3A70           02641         ISUBAI  0x70
0455   5600           02642         MOVRA   r0x1037
0456   5800           02643         MOVAR   (_B2_Ratio_VIN_AD + 1)
0457   E187           02644         JBSET   PFLAG,0
0458   6400           02645         INCAR   (_B2_Ratio_VIN_AD + 1)
0459   3A0D           02646         ISUBAI  0x0d
045A   5600           02647         MOVRA   r0x1038
                      02648 ;       .line   584; "3S4SVoltmeter2.c" B2_VIN_AD=B2_VIN_AD+VIN_AD_Temp1;
045B   5800           02649         MOVAR   r0x1037
045C   7E00           02650         ADDRA   _B2_VIN_AD
045D   5800           02651         MOVAR   r0x1038
045E   F187           02652         JBCLR   PFLAG,0
045F   6000           02653         JZAR    r0x1038
0460   7E00           02654         ADDRA   (_B2_VIN_AD + 1)
                      02655 ;;swapping arguments (AOP_TYPEs 1/3)
                      02656 ;;unsigned compare: left >= lit(0xD71=3441), size=2
0461                  02657 _00351_DS_
                      02658 ;       .line   588; "3S4SVoltmeter2.c" if(B3_Ratio_VIN_AD>3440)//B1AD
0461   3C0D           02659         MOVAI   0x0d
0462   4800           02660         RSUBAR  (_B3_Ratio_VIN_AD + 1)
0463   E587           02661         JBSET   PFLAG,2
0464   A000           02662         GOTO    _00430_DS_
0465   3C71           02663         MOVAI   0x71
0466   4800           02664         RSUBAR  _B3_Ratio_VIN_AD
0467                  02665 _00430_DS_
0467   E187           02666         JBSET   PFLAG,0
0468   A000           02667         GOTO    _00356_DS_
                      02668 ;;genSkipc:3195: created from rifx:00DE608C
                      02669 ;       .line   590; "3S4SVoltmeter2.c" VIN_AD_Temp1=B3_Ratio_VIN_AD-3440;
0469   3C90           02670         MOVAI   0x90
046A   7C00           02671         ADDAR   _B3_Ratio_VIN_AD
046B   5600           02672         MOVRA   r0x1037
046C   3CF2           02673         MOVAI   0xf2
046D   5600           02674         MOVRA   r0x1038
046E   5800           02675         MOVAR   (_B3_Ratio_VIN_AD + 1)
046F   F187           02676         JBCLR   PFLAG,0
0470   6000           02677         JZAR    (_B3_Ratio_VIN_AD + 1)
0471   7E00           02678         ADDRA   r0x1038
                      02679 ;       .line   591; "3S4SVoltmeter2.c" if(B3_VIN_AD>VIN_AD_Temp1)
0472   5800           02680         MOVAR   (_B3_VIN_AD + 1)
0473   4800           02681         RSUBAR  r0x1038
0474   E587           02682         JBSET   PFLAG,2
0475   A000           02683         GOTO    _00431_DS_
0476   5800           02684         MOVAR   _B3_VIN_AD
0477   4800           02685         RSUBAR  r0x1037
0478                  02686 _00431_DS_
0478   F187           02687         JBCLR   PFLAG,0
0479   A000           02688         GOTO    _00353_DS_
                      02689 ;;genSkipc:3195: created from rifx:00DE608C
                      02690 ;       .line   593; "3S4SVoltmeter2.c" B3_VIN_AD=B3_VIN_AD-VIN_AD_Temp1;       
047A   5800           02691         MOVAR   r0x1037
047B   4A00           02692         RSUBRA  _B3_VIN_AD
047C   5800           02693         MOVAR   r0x1038
047D   E187           02694         JBSET   PFLAG,0
047E   6000           02695         JZAR    r0x1038
047F   4A00           02696         RSUBRA  (_B3_VIN_AD + 1)
0480   A000           02697         GOTO    _00357_DS_
0481                  02698 _00353_DS_
                      02699 ;       .line   597; "3S4SVoltmeter2.c" B3_VIN_AD=0;
0481   7600           02700         CLRR    _B3_VIN_AD
0482   7600           02701         CLRR    (_B3_VIN_AD + 1)
0483   A000           02702         GOTO    _00357_DS_
0484                  02703 _00356_DS_
                      02704 ;       .line   602; "3S4SVoltmeter2.c" VIN_AD_Temp1=3440-B3_Ratio_VIN_AD; 
0484   5800           02705         MOVAR   _B3_Ratio_VIN_AD
0485   3A70           02706         ISUBAI  0x70
0486   5600           02707         MOVRA   r0x1037
0487   5800           02708         MOVAR   (_B3_Ratio_VIN_AD + 1)
0488   E187           02709         JBSET   PFLAG,0
0489   6400           02710         INCAR   (_B3_Ratio_VIN_AD + 1)
048A   3A0D           02711         ISUBAI  0x0d
048B   5600           02712         MOVRA   r0x1038
                      02713 ;       .line   603; "3S4SVoltmeter2.c" B3_VIN_AD=B3_VIN_AD+VIN_AD_Temp1;
048C   5800           02714         MOVAR   r0x1037
048D   7E00           02715         ADDRA   _B3_VIN_AD
048E   5800           02716         MOVAR   r0x1038
048F   F187           02717         JBCLR   PFLAG,0
0490   6000           02718         JZAR    r0x1038
0491   7E00           02719         ADDRA   (_B3_VIN_AD + 1)
0492                  02720 _00357_DS_
                      02721 ;       .line   607; "3S4SVoltmeter2.c" if(BT_3S_Series_Flag)//3
0492   E400           02722         JBSET   _Flag1,2
0493   A000           02723         GOTO    _00371_DS_
                      02724 ;;swapping arguments (AOP_TYPEs 1/3)
                      02725 ;;unsigned compare: left >= lit(0xD71=3441), size=2
                      02726 ;       .line   609; "3S4SVoltmeter2.c" if(BT_Ratio_VIN_AD>3440)//B1AD
0494   3C0D           02727         MOVAI   0x0d
0495   4800           02728         RSUBAR  (_BT_Ratio_VIN_AD + 1)
0496   E587           02729         JBSET   PFLAG,2
0497   A000           02730         GOTO    _00432_DS_
0498   3C71           02731         MOVAI   0x71
0499   4800           02732         RSUBAR  _BT_Ratio_VIN_AD
049A                  02733 _00432_DS_
049A   E187           02734         JBSET   PFLAG,0
049B   A000           02735         GOTO    _00362_DS_
                      02736 ;;genSkipc:3195: created from rifx:00DE608C
                      02737 ;       .line   611; "3S4SVoltmeter2.c" VIN_AD_Temp1=(BT_Ratio_VIN_AD-3440)*3/4;
049C   3C90           02738         MOVAI   0x90
049D   7C00           02739         ADDAR   _BT_Ratio_VIN_AD
049E   5600           02740         MOVRA   r0x1039
049F   3CF2           02741         MOVAI   0xf2
04A0   5600           02742         MOVRA   r0x103A
04A1   5800           02743         MOVAR   (_BT_Ratio_VIN_AD + 1)
04A2   F187           02744         JBCLR   PFLAG,0
04A3   6000           02745         JZAR    (_BT_Ratio_VIN_AD + 1)
04A4   7E00           02746         ADDRA   r0x103A
04A5   5800           02747         MOVAR   r0x1039
04A6   5600           02748         MOVRA   STK02
04A7   5800           02749         MOVAR   r0x103A
04A8   5600           02750         MOVRA   STK01
04A9   3C03           02751         MOVAI   0x03
04AA   5600           02752         MOVRA   STK00
04AB   3C00           02753         MOVAI   0x00
04AC   8000           02754         CALL    __mulint
04AD   5600           02755         MOVRA   r0x103A
04AE   5800           02756         MOVAR   STK00
04AF   5600           02757         MOVRA   r0x1039
                      02758 ;;shiftRight_Left2ResultLit:5216: shCount=1, size=2, sign=0, same=0, offr=0
04B0   D187           02759         BCLR    PFLAG,0
04B1   4C00           02760         RRAR    r0x103A
04B2   5600           02761         MOVRA   r0x1038
04B3   4C00           02762         RRAR    r0x1039
04B4   5600           02763         MOVRA   r0x1037
                      02764 ;;shiftRight_Left2ResultLit:5216: shCount=1, size=2, sign=0, same=1, offr=0
04B5   D187           02765         BCLR    PFLAG,0
04B6   4E00           02766         RRR     r0x1038
04B7   4E00           02767         RRR     r0x1037
                      02768 ;       .line   612; "3S4SVoltmeter2.c" if(BT_VIN_AD>VIN_AD_Temp1)
04B8   5800           02769         MOVAR   (_BT_VIN_AD + 1)
04B9   4800           02770         RSUBAR  r0x1038
04BA   E587           02771         JBSET   PFLAG,2
04BB   A000           02772         GOTO    _00433_DS_
04BC   5800           02773         MOVAR   _BT_VIN_AD
04BD   4800           02774         RSUBAR  r0x1037
04BE                  02775 _00433_DS_
04BE   F187           02776         JBCLR   PFLAG,0
04BF   A000           02777         GOTO    _00359_DS_
                      02778 ;;genSkipc:3195: created from rifx:00DE608C
                      02779 ;       .line   614; "3S4SVoltmeter2.c" BT_VIN_AD=BT_VIN_AD-VIN_AD_Temp1;       
04C0   5800           02780         MOVAR   r0x1037
04C1   4A00           02781         RSUBRA  _BT_VIN_AD
04C2   5800           02782         MOVAR   r0x1038
04C3   E187           02783         JBSET   PFLAG,0
04C4   6000           02784         JZAR    r0x1038
04C5   4A00           02785         RSUBRA  (_BT_VIN_AD + 1)
04C6   A000           02786         GOTO    _00372_DS_
04C7                  02787 _00359_DS_
                      02788 ;       .line   618; "3S4SVoltmeter2.c" BT_VIN_AD=0;
04C7   7600           02789         CLRR    _BT_VIN_AD
04C8   7600           02790         CLRR    (_BT_VIN_AD + 1)
04C9   A000           02791         GOTO    _00372_DS_
04CA                  02792 _00362_DS_
                      02793 ;       .line   623; "3S4SVoltmeter2.c" VIN_AD_Temp1=(3440-BT_Ratio_VIN_AD)*3/4; 
04CA   5800           02794         MOVAR   _BT_Ratio_VIN_AD
04CB   3A70           02795         ISUBAI  0x70
04CC   5600           02796         MOVRA   r0x1039
04CD   5800           02797         MOVAR   (_BT_Ratio_VIN_AD + 1)
04CE   E187           02798         JBSET   PFLAG,0
04CF   6400           02799         INCAR   (_BT_Ratio_VIN_AD + 1)
04D0   3A0D           02800         ISUBAI  0x0d
04D1   5600           02801         MOVRA   r0x103A
04D2   5800           02802         MOVAR   r0x1039
04D3   5600           02803         MOVRA   STK02
04D4   5800           02804         MOVAR   r0x103A
04D5   5600           02805         MOVRA   STK01
04D6   3C03           02806         MOVAI   0x03
04D7   5600           02807         MOVRA   STK00
04D8   3C00           02808         MOVAI   0x00
04D9   8000           02809         CALL    __mulint
04DA   5600           02810         MOVRA   r0x103A
04DB   5800           02811         MOVAR   STK00
04DC   5600           02812         MOVRA   r0x1039
                      02813 ;;shiftRight_Left2ResultLit:5216: shCount=1, size=2, sign=0, same=0, offr=0
04DD   D187           02814         BCLR    PFLAG,0
04DE   4C00           02815         RRAR    r0x103A
04DF   5600           02816         MOVRA   r0x1038
04E0   4C00           02817         RRAR    r0x1039
04E1   5600           02818         MOVRA   r0x1037
                      02819 ;;shiftRight_Left2ResultLit:5216: shCount=1, size=2, sign=0, same=1, offr=0
04E2   D187           02820         BCLR    PFLAG,0
04E3   4E00           02821         RRR     r0x1038
04E4   4E00           02822         RRR     r0x1037
                      02823 ;       .line   624; "3S4SVoltmeter2.c" BT_VIN_AD=BT_VIN_AD+VIN_AD_Temp1;
04E5   5800           02824         MOVAR   r0x1037
04E6   7E00           02825         ADDRA   _BT_VIN_AD
04E7   5800           02826         MOVAR   r0x1038
04E8   F187           02827         JBCLR   PFLAG,0
04E9   6000           02828         JZAR    r0x1038
04EA   7E00           02829         ADDRA   (_BT_VIN_AD + 1)
04EB   A000           02830         GOTO    _00372_DS_
                      02831 ;;swapping arguments (AOP_TYPEs 1/3)
                      02832 ;;unsigned compare: left >= lit(0xD71=3441), size=2
04EC                  02833 _00371_DS_
                      02834 ;       .line   629; "3S4SVoltmeter2.c" if(BT_Ratio_VIN_AD>3440)//B1AD
04EC   3C0D           02835         MOVAI   0x0d
04ED   4800           02836         RSUBAR  (_BT_Ratio_VIN_AD + 1)
04EE   E587           02837         JBSET   PFLAG,2
04EF   A000           02838         GOTO    _00434_DS_
04F0   3C71           02839         MOVAI   0x71
04F1   4800           02840         RSUBAR  _BT_Ratio_VIN_AD
04F2                  02841 _00434_DS_
04F2   E187           02842         JBSET   PFLAG,0
04F3   A000           02843         GOTO    _00368_DS_
                      02844 ;;genSkipc:3195: created from rifx:00DE608C
                      02845 ;       .line   631; "3S4SVoltmeter2.c" VIN_AD_Temp1=BT_Ratio_VIN_AD-3440;
04F4   3C90           02846         MOVAI   0x90
04F5   7C00           02847         ADDAR   _BT_Ratio_VIN_AD
04F6   5600           02848         MOVRA   r0x1037
04F7   3CF2           02849         MOVAI   0xf2
04F8   5600           02850         MOVRA   r0x1038
04F9   5800           02851         MOVAR   (_BT_Ratio_VIN_AD + 1)
04FA   F187           02852         JBCLR   PFLAG,0
04FB   6000           02853         JZAR    (_BT_Ratio_VIN_AD + 1)
04FC   7E00           02854         ADDRA   r0x1038
                      02855 ;       .line   632; "3S4SVoltmeter2.c" if(BT_VIN_AD>VIN_AD_Temp1)
04FD   5800           02856         MOVAR   (_BT_VIN_AD + 1)
04FE   4800           02857         RSUBAR  r0x1038
04FF   E587           02858         JBSET   PFLAG,2
0500   A000           02859         GOTO    _00435_DS_
0501   5800           02860         MOVAR   _BT_VIN_AD
0502   4800           02861         RSUBAR  r0x1037
0503                  02862 _00435_DS_
0503   F187           02863         JBCLR   PFLAG,0
0504   A000           02864         GOTO    _00365_DS_
                      02865 ;;genSkipc:3195: created from rifx:00DE608C
                      02866 ;       .line   634; "3S4SVoltmeter2.c" BT_VIN_AD=BT_VIN_AD-VIN_AD_Temp1;       
0505   5800           02867         MOVAR   r0x1037
0506   4A00           02868         RSUBRA  _BT_VIN_AD
0507   5800           02869         MOVAR   r0x1038
0508   E187           02870         JBSET   PFLAG,0
0509   6000           02871         JZAR    r0x1038
050A   4A00           02872         RSUBRA  (_BT_VIN_AD + 1)
050B   A000           02873         GOTO    _00372_DS_
050C                  02874 _00365_DS_
                      02875 ;       .line   638; "3S4SVoltmeter2.c" BT_VIN_AD=0;
050C   7600           02876         CLRR    _BT_VIN_AD
050D   7600           02877         CLRR    (_BT_VIN_AD + 1)
050E   A000           02878         GOTO    _00372_DS_
050F                  02879 _00368_DS_
                      02880 ;       .line   643; "3S4SVoltmeter2.c" VIN_AD_Temp1=3440-BT_Ratio_VIN_AD; 
050F   5800           02881         MOVAR   _BT_Ratio_VIN_AD
0510   3A70           02882         ISUBAI  0x70
0511   5600           02883         MOVRA   r0x1037
0512   5800           02884         MOVAR   (_BT_Ratio_VIN_AD + 1)
0513   E187           02885         JBSET   PFLAG,0
0514   6400           02886         INCAR   (_BT_Ratio_VIN_AD + 1)
0515   3A0D           02887         ISUBAI  0x0d
0516   5600           02888         MOVRA   r0x1038
                      02889 ;       .line   644; "3S4SVoltmeter2.c" BT_VIN_AD=BT_VIN_AD+VIN_AD_Temp1;
0517   5800           02890         MOVAR   r0x1037
0518   7E00           02891         ADDRA   _BT_VIN_AD
0519   5800           02892         MOVAR   r0x1038
051A   F187           02893         JBCLR   PFLAG,0
051B   6000           02894         JZAR    r0x1038
051C   7E00           02895         ADDRA   (_BT_VIN_AD + 1)
051D                  02896 _00372_DS_
                      02897 ;       .line   651; "3S4SVoltmeter2.c" B1_Single_VIN_AD=B1_VIN_AD;//B1;
051D   5800           02898         MOVAR   _B1_VIN_AD
051E   5600           02899         MOVRA   _B1_Single_VIN_AD
051F   5800           02900         MOVAR   (_B1_VIN_AD + 1)
0520   5600           02901         MOVRA   (_B1_Single_VIN_AD + 1)
                      02902 ;       .line   652; "3S4SVoltmeter2.c" VIN_AD_Temp2=B2_VIN_AD*2;//B2
0521   D187           02903         BCLR    PFLAG,0
0522   5000           02904         RLAR    _B2_VIN_AD
0523   5600           02905         MOVRA   r0x1039
0524   5600           02906         MOVRA   r0x1037
0525   5000           02907         RLAR    (_B2_VIN_AD + 1)
0526   5600           02908         MOVRA   r0x103A
0527   5600           02909         MOVRA   r0x1038
                      02910 ;;126   MOVAR   r0x1037
                      02911 ;;127   MOVAR   r0x1038
                      02912 ;       .line   653; "3S4SVoltmeter2.c" if(VIN_AD_Temp2>B1_VIN_AD)
0528   5800           02913         MOVAR   r0x103A
0529   4800           02914         RSUBAR  (_B1_VIN_AD + 1)
052A   E587           02915         JBSET   PFLAG,2
052B   A000           02916         GOTO    _00436_DS_
052C   5800           02917         MOVAR   r0x1039
052D   4800           02918         RSUBAR  _B1_VIN_AD
052E                  02919 _00436_DS_
052E   F187           02920         JBCLR   PFLAG,0
052F   A000           02921         GOTO    _00374_DS_
                      02922 ;;genSkipc:3195: created from rifx:00DE608C
                      02923 ;       .line   655; "3S4SVoltmeter2.c" B2_Single_VIN_AD=VIN_AD_Temp2-B1_VIN_AD;//B2 
0530   5800           02924         MOVAR   _B1_VIN_AD
0531   4800           02925         RSUBAR  r0x1039
0532   5600           02926         MOVRA   _B2_Single_VIN_AD
0533   5800           02927         MOVAR   (_B1_VIN_AD + 1)
0534   E187           02928         JBSET   PFLAG,0
0535   6400           02929         INCAR   (_B1_VIN_AD + 1)
0536   4800           02930         RSUBAR  r0x103A
0537   5600           02931         MOVRA   (_B2_Single_VIN_AD + 1)
0538   A000           02932         GOTO    _00375_DS_
0539                  02933 _00374_DS_
                      02934 ;       .line   659; "3S4SVoltmeter2.c" B2_Single_VIN_AD=0;  
0539   7600           02935         CLRR    _B2_Single_VIN_AD
053A   7600           02936         CLRR    (_B2_Single_VIN_AD + 1)
053B                  02937 _00375_DS_
                      02938 ;       .line   663; "3S4SVoltmeter2.c" if(BT_4S_Series_Flag)//4
053B   E600           02939         JBSET   _Flag1,3
053C   A000           02940         GOTO    _00388_DS_
                      02941 ;       .line   666; "3S4SVoltmeter2.c" VIN_AD_Temp2=B3_VIN_AD*3;//B3
053D   5800           02942         MOVAR   _B3_VIN_AD
053E   5600           02943         MOVRA   STK02
053F   5800           02944         MOVAR   (_B3_VIN_AD + 1)
0540   5600           02945         MOVRA   STK01
0541   3C03           02946         MOVAI   0x03
0542   5600           02947         MOVRA   STK00
0543   3C00           02948         MOVAI   0x00
0544   8000           02949         CALL    __mulint
0545   5600           02950         MOVRA   r0x103B
0546   5800           02951         MOVAR   STK00
0547   5600           02952         MOVRA   r0x1039
0548   5600           02953         MOVRA   r0x103C
                      02954 ;;130   MOVAR   r0x103C
                      02955 ;;129   MOVAR   r0x103B
                      02956 ;;128   MOVAR   r0x103A
                      02957 ;       .line   667; "3S4SVoltmeter2.c" if(VIN_AD_Temp2>VIN_AD_Temp1)
0549   5800           02958         MOVAR   r0x103B
054A   5600           02959         MOVRA   r0x103A
054B   4800           02960         RSUBAR  r0x1038
054C   E587           02961         JBSET   PFLAG,2
054D   A000           02962         GOTO    _00437_DS_
054E   5800           02963         MOVAR   r0x1039
054F   4800           02964         RSUBAR  r0x1037
0550                  02965 _00437_DS_
0550   F187           02966         JBCLR   PFLAG,0
0551   A000           02967         GOTO    _00377_DS_
                      02968 ;;genSkipc:3195: created from rifx:00DE608C
                      02969 ;       .line   669; "3S4SVoltmeter2.c" B3_Single_VIN_AD=VIN_AD_Temp2-VIN_AD_Temp1;//B3 
0552   5800           02970         MOVAR   r0x1037
0553   4800           02971         RSUBAR  r0x1039
0554   5600           02972         MOVRA   _B3_Single_VIN_AD
0555   5800           02973         MOVAR   r0x1038
0556   E187           02974         JBSET   PFLAG,0
0557   6400           02975         INCAR   r0x1038
0558   4800           02976         RSUBAR  r0x103A
0559   5600           02977         MOVRA   (_B3_Single_VIN_AD + 1)
055A   A000           02978         GOTO    _00378_DS_
055B                  02979 _00377_DS_
                      02980 ;       .line   673; "3S4SVoltmeter2.c" B3_Single_VIN_AD=0;  
055B   7600           02981         CLRR    _B3_Single_VIN_AD
055C   7600           02982         CLRR    (_B3_Single_VIN_AD + 1)
055D                  02983 _00378_DS_
                      02984 ;       .line   676; "3S4SVoltmeter2.c" VIN_AD_Temp2=BT_VIN_AD*4;//BT
055D   D187           02985         BCLR    PFLAG,0
055E   5000           02986         RLAR    _BT_VIN_AD
055F   5600           02987         MOVRA   r0x1039
0560   5000           02988         RLAR    (_BT_VIN_AD + 1)
0561   5600           02989         MOVRA   r0x103A
0562   D187           02990         BCLR    PFLAG,0
0563   5200           02991         RLR     r0x1039
0564   5200           02992         RLR     r0x103A
                      02993 ;       .line   677; "3S4SVoltmeter2.c" if(VIN_AD_Temp2>VIN_AD_Temp1)
0565   5800           02994         MOVAR   r0x103A
0566   4800           02995         RSUBAR  r0x103B
0567   E587           02996         JBSET   PFLAG,2
0568   A000           02997         GOTO    _00438_DS_
0569   5800           02998         MOVAR   r0x1039
056A   4800           02999         RSUBAR  r0x103C
056B                  03000 _00438_DS_
056B   F187           03001         JBCLR   PFLAG,0
056C   A000           03002         GOTO    _00380_DS_
                      03003 ;;genSkipc:3195: created from rifx:00DE608C
                      03004 ;       .line   679; "3S4SVoltmeter2.c" BT_Single_VIN_AD=VIN_AD_Temp2-VIN_AD_Temp1;//BT 
056D   5800           03005         MOVAR   r0x103C
056E   4800           03006         RSUBAR  r0x1039
056F   5600           03007         MOVRA   _BT_Single_VIN_AD
0570   5800           03008         MOVAR   r0x103B
0571   E187           03009         JBSET   PFLAG,0
0572   6400           03010         INCAR   r0x103B
0573   4800           03011         RSUBAR  r0x103A
0574   5600           03012         MOVRA   (_BT_Single_VIN_AD + 1)
0575   A000           03013         GOTO    _00390_DS_
0576                  03014 _00380_DS_
                      03015 ;       .line   683; "3S4SVoltmeter2.c" BT_Single_VIN_AD=0;  
0576   7600           03016         CLRR    _BT_Single_VIN_AD
0577   7600           03017         CLRR    (_BT_Single_VIN_AD + 1)
0578   A000           03018         GOTO    _00390_DS_
0579                  03019 _00388_DS_
                      03020 ;       .line   686; "3S4SVoltmeter2.c" else if(BT_3S_Series_Flag)//3
0579   E400           03021         JBSET   _Flag1,2
057A   A000           03022         GOTO    _00390_DS_
                      03023 ;       .line   688; "3S4SVoltmeter2.c" B3_Single_VIN_AD=0;     
057B   7600           03024         CLRR    _B3_Single_VIN_AD
057C   7600           03025         CLRR    (_B3_Single_VIN_AD + 1)
                      03026 ;       .line   690; "3S4SVoltmeter2.c" VIN_AD_Temp2=BT_VIN_AD*4;//BT
057D   D187           03027         BCLR    PFLAG,0
057E   5000           03028         RLAR    _BT_VIN_AD
057F   5600           03029         MOVRA   r0x1039
0580   5000           03030         RLAR    (_BT_VIN_AD + 1)
0581   5600           03031         MOVRA   r0x103A
0582   D187           03032         BCLR    PFLAG,0
0583   5200           03033         RLR     r0x1039
0584   5200           03034         RLR     r0x103A
                      03035 ;       .line   691; "3S4SVoltmeter2.c" if(VIN_AD_Temp2>VIN_AD_Temp1)
0585   5800           03036         MOVAR   r0x103A
0586   4800           03037         RSUBAR  r0x1038
0587   E587           03038         JBSET   PFLAG,2
0588   A000           03039         GOTO    _00439_DS_
0589   5800           03040         MOVAR   r0x1039
058A   4800           03041         RSUBAR  r0x1037
058B                  03042 _00439_DS_
058B   F187           03043         JBCLR   PFLAG,0
058C   A000           03044         GOTO    _00383_DS_
                      03045 ;;genSkipc:3195: created from rifx:00DE608C
                      03046 ;       .line   693; "3S4SVoltmeter2.c" BT_Single_VIN_AD=VIN_AD_Temp2-VIN_AD_Temp1;//BT 
058D   5800           03047         MOVAR   r0x1037
058E   4800           03048         RSUBAR  r0x1039
058F   5600           03049         MOVRA   _BT_Single_VIN_AD
0590   5800           03050         MOVAR   r0x1038
0591   E187           03051         JBSET   PFLAG,0
0592   6400           03052         INCAR   r0x1038
0593   4800           03053         RSUBAR  r0x103A
0594   5600           03054         MOVRA   (_BT_Single_VIN_AD + 1)
0595   A000           03055         GOTO    _00390_DS_
0596                  03056 _00383_DS_
                      03057 ;       .line   697; "3S4SVoltmeter2.c" BT_Single_VIN_AD=0;  
0596   7600           03058         CLRR    _BT_Single_VIN_AD
0597   7600           03059         CLRR    (_BT_Single_VIN_AD + 1)
0598                  03060 _00390_DS_
0598   000C           03061         RETURN  
                      03062 ; exit point of _All_Adc_Convert
                      03063 
                      03064 ;***
                      03065 ;  pBlock Stats: dbName = C
                      03066 ;***
                      03067 ;entry:  _ADC_Value_Ratio       ;Function start
                      03068 ; 2 exit points
                      03069 ;has an exit
                      03070 ;functions called:
                      03071 ;   _SampleRelatedChannel
                      03072 ;   _SampleRelatedChannel
                      03073 ;   _SampleRelatedChannel
                      03074 ;   _SampleRelatedChannel
                      03075 ;   _SampleRelatedChannel
                      03076 ;   _EEPROM_Write
                      03077 ;   _EEPROM_Write
                      03078 ;   _EEPROM_Write
                      03079 ;   _EEPROM_Write
                      03080 ;   _EEPROM_Write
                      03081 ;   _EEPROM_Write
                      03082 ;   _EEPROM_Write
                      03083 ;   _EEPROM_Write
                      03084 ;   _EEPROM_Write
                      03085 ;   _EEPROM_Write
                      03086 ;   _EEPROM_Read
                      03087 ;   _EEPROM_Read
                      03088 ;   _EEPROM_Read
                      03089 ;   _EEPROM_Read
                      03090 ;   _EEPROM_Read
                      03091 ;   _EEPROM_Read
                      03092 ;   _EEPROM_Read
                      03093 ;   _EEPROM_Read
                      03094 ;   _EEPROM_Read
                      03095 ;   _EEPROM_Read
                      03096 ;   _Delay1mS_1M
                      03097 ;   _Delay1mS_1M
                      03098 ;   _SampleRelatedChannel
                      03099 ;   _SampleRelatedChannel
                      03100 ;   _SampleRelatedChannel
                      03101 ;   _SampleRelatedChannel
                      03102 ;   _SampleRelatedChannel
                      03103 ;   _EEPROM_Write
                      03104 ;   _EEPROM_Write
                      03105 ;   _EEPROM_Write
                      03106 ;   _EEPROM_Write
                      03107 ;   _EEPROM_Write
                      03108 ;   _EEPROM_Write
                      03109 ;   _EEPROM_Write
                      03110 ;   _EEPROM_Write
                      03111 ;   _EEPROM_Write
                      03112 ;   _EEPROM_Write
                      03113 ;   _EEPROM_Read
                      03114 ;   _EEPROM_Read
                      03115 ;   _EEPROM_Read
                      03116 ;   _EEPROM_Read
                      03117 ;   _EEPROM_Read
                      03118 ;   _EEPROM_Read
                      03119 ;   _EEPROM_Read
                      03120 ;   _EEPROM_Read
                      03121 ;   _EEPROM_Read
                      03122 ;   _EEPROM_Read
                      03123 ;   _Delay1mS_1M
                      03124 ;   _Delay1mS_1M
                      03125 ;17 compiler assigned registers:
                      03126 ;   r0x103E
                      03127 ;   STK00
                      03128 ;   r0x103F
                      03129 ;   r0x1040
                      03130 ;   r0x1041
                      03131 ;   r0x1042
                      03132 ;   r0x1043
                      03133 ;   r0x1044
                      03134 ;   r0x1045
                      03135 ;   r0x1046
                      03136 ;   r0x1047
                      03137 ;   r0x1048
                      03138 ;   r0x1049
                      03139 ;   r0x104A
                      03140 ;   r0x104B
                      03141 ;   r0x104C
                      03142 ;   r0x104D
                      03143 ;; Starting pCode block
0599                  03144 _ADC_Value_Ratio        ;Function start
                      03145 ; 2 exit points
                      03146 ;       .line   462; "3S4SVoltmeter2.c" RLED_ON;//LED
0599   CA00           03147         BSET    _IOP2bits,5
                      03148 ;       .line   463; "3S4SVoltmeter2.c" GLED_ON;//LED
059A   CA00           03149         BSET    _IOP0bits,5
                      03150 ;       .line   465; "3S4SVoltmeter2.c" while(1)//
059B   7600           03151         CLRR    r0x103E
059C                  03152 _00280_DS_
                      03153 ;       .line   467; "3S4SVoltmeter2.c" JI_Temp++;//4.2V2.5%10VNTC300K
059C   6600           03154         INCR    r0x103E
                      03155 ;       .line   468; "3S4SVoltmeter2.c" BT_VIN_AD=SampleRelatedChannel(BT_VIN_channel,VREF_VDD); //BTAD1.2MS
059D   3C0C           03156         MOVAI   0x0c
059E   5600           03157         MOVRA   STK00
059F   3C20           03158         MOVAI   0x20
05A0   8000           03159         CALL    _SampleRelatedChannel
05A1   5600           03160         MOVRA   (_BT_VIN_AD + 1)
05A2   5800           03161         MOVAR   STK00
05A3   5600           03162         MOVRA   _BT_VIN_AD
                      03163 ;       .line   469; "3S4SVoltmeter2.c" B3_VIN_AD=SampleRelatedChannel(B3_VIN_channel,VREF_VDD); //B3AD1.2MS
05A4   3C0C           03164         MOVAI   0x0c
05A5   5600           03165         MOVRA   STK00
05A6   3C30           03166         MOVAI   0x30
05A7   8000           03167         CALL    _SampleRelatedChannel
05A8   5600           03168         MOVRA   (_B3_VIN_AD + 1)
05A9   5800           03169         MOVAR   STK00
05AA   5600           03170         MOVRA   _B3_VIN_AD
                      03171 ;       .line   470; "3S4SVoltmeter2.c" B2_VIN_AD=SampleRelatedChannel(B2_VIN_channel,VREF_VDD); //B2AD1.2MS
05AB   3C0C           03172         MOVAI   0x0c
05AC   5600           03173         MOVRA   STK00
05AD   3C40           03174         MOVAI   0x40
05AE   8000           03175         CALL    _SampleRelatedChannel
05AF   5600           03176         MOVRA   (_B2_VIN_AD + 1)
05B0   5800           03177         MOVAR   STK00
05B1   5600           03178         MOVRA   _B2_VIN_AD
                      03179 ;       .line   471; "3S4SVoltmeter2.c" B1_VIN_AD=SampleRelatedChannel(B1_VIN_channel,VREF_VDD); //B1AD1.2MS
05B2   3C0C           03180         MOVAI   0x0c
05B3   5600           03181         MOVRA   STK00
05B4   3C50           03182         MOVAI   0x50
05B5   8000           03183         CALL    _SampleRelatedChannel
05B6   5600           03184         MOVRA   (_B1_VIN_AD + 1)
05B7   5800           03185         MOVAR   STK00
05B8   5600           03186         MOVRA   _B1_VIN_AD
                      03187 ;       .line   472; "3S4SVoltmeter2.c" NTC_AD=SampleRelatedChannel(NTC_channel,VREF_VDD); //NTCAD1.2MS  
05B9   3C0C           03188         MOVAI   0x0c
05BA   5600           03189         MOVRA   STK00
05BB   3C10           03190         MOVAI   0x10
05BC   8000           03191         CALL    _SampleRelatedChannel
05BD   5600           03192         MOVRA   (_NTC_AD + 1)
05BE   5800           03193         MOVAR   STK00
05BF   5600           03194         MOVRA   _NTC_AD
                      03195 ;;unsigned compare: left < lit(0x64=100), size=1
                      03196 ;       .line   473; "3S4SVoltmeter2.c" if(JI_Temp>=100)
05C0   3C64           03197         MOVAI   0x64
05C1   4800           03198         RSUBAR  r0x103E
05C2   E187           03199         JBSET   PFLAG,0
05C3   A000           03200         GOTO    _00280_DS_
                      03201 ;;genSkipc:3195: created from rifx:00DE608C
                      03202 ;;swapping arguments (AOP_TYPEs 1/3)
                      03203 ;;unsigned compare: left >= lit(0xF6A=3946), size=2
                      03204 ;       .line   475; "3S4SVoltmeter2.c" if((NTC_AD>3945)&&(NTC_AD<3980)&&(B1_VIN_AD>=3350)&&(B1_VIN_AD<=3530)&&(B2_VIN_AD>=3350)&&(B2_VIN_AD<=3530)&&(B3_VIN_AD>=3350)&&(B3_VIN_AD<=3530)&&(BT_VIN_AD>=3350)&&(BT_VIN_AD<=3530))//
05C4   3C0F           03205         MOVAI   0x0f
05C5   4800           03206         RSUBAR  (_NTC_AD + 1)
05C6   E587           03207         JBSET   PFLAG,2
05C7   A000           03208         GOTO    _00326_DS_
05C8   3C6A           03209         MOVAI   0x6a
05C9   4800           03210         RSUBAR  _NTC_AD
05CA                  03211 _00326_DS_
05CA   E187           03212         JBSET   PFLAG,0
05CB   A000           03213         GOTO    _00264_DS_
                      03214 ;;genSkipc:3195: created from rifx:00DE608C
                      03215 ;;unsigned compare: left < lit(0xF8C=3980), size=2
05CC   3C0F           03216         MOVAI   0x0f
05CD   4800           03217         RSUBAR  (_NTC_AD + 1)
05CE   E587           03218         JBSET   PFLAG,2
05CF   A000           03219         GOTO    _00327_DS_
05D0   3C8C           03220         MOVAI   0x8c
05D1   4800           03221         RSUBAR  _NTC_AD
05D2                  03222 _00327_DS_
05D2   F187           03223         JBCLR   PFLAG,0
05D3   A000           03224         GOTO    _00264_DS_
                      03225 ;;genSkipc:3195: created from rifx:00DE608C
                      03226 ;;unsigned compare: left < lit(0xD16=3350), size=2
05D4   3C0D           03227         MOVAI   0x0d
05D5   4800           03228         RSUBAR  (_B1_VIN_AD + 1)
05D6   E587           03229         JBSET   PFLAG,2
05D7   A000           03230         GOTO    _00328_DS_
05D8   3C16           03231         MOVAI   0x16
05D9   4800           03232         RSUBAR  _B1_VIN_AD
05DA                  03233 _00328_DS_
05DA   E187           03234         JBSET   PFLAG,0
05DB   A000           03235         GOTO    _00264_DS_
                      03236 ;;genSkipc:3195: created from rifx:00DE608C
                      03237 ;;swapping arguments (AOP_TYPEs 1/3)
                      03238 ;;unsigned compare: left >= lit(0xDCB=3531), size=2
05DC   3C0D           03239         MOVAI   0x0d
05DD   4800           03240         RSUBAR  (_B1_VIN_AD + 1)
05DE   E587           03241         JBSET   PFLAG,2
05DF   A000           03242         GOTO    _00329_DS_
05E0   3CCB           03243         MOVAI   0xcb
05E1   4800           03244         RSUBAR  _B1_VIN_AD
05E2                  03245 _00329_DS_
05E2   F187           03246         JBCLR   PFLAG,0
05E3   A000           03247         GOTO    _00264_DS_
                      03248 ;;genSkipc:3195: created from rifx:00DE608C
                      03249 ;;unsigned compare: left < lit(0xD16=3350), size=2
05E4   3C0D           03250         MOVAI   0x0d
05E5   4800           03251         RSUBAR  (_B2_VIN_AD + 1)
05E6   E587           03252         JBSET   PFLAG,2
05E7   A000           03253         GOTO    _00330_DS_
05E8   3C16           03254         MOVAI   0x16
05E9   4800           03255         RSUBAR  _B2_VIN_AD
05EA                  03256 _00330_DS_
05EA   E187           03257         JBSET   PFLAG,0
05EB   A000           03258         GOTO    _00264_DS_
                      03259 ;;genSkipc:3195: created from rifx:00DE608C
                      03260 ;;swapping arguments (AOP_TYPEs 1/3)
                      03261 ;;unsigned compare: left >= lit(0xDCB=3531), size=2
05EC   3C0D           03262         MOVAI   0x0d
05ED   4800           03263         RSUBAR  (_B2_VIN_AD + 1)
05EE   E587           03264         JBSET   PFLAG,2
05EF   A000           03265         GOTO    _00331_DS_
05F0   3CCB           03266         MOVAI   0xcb
05F1   4800           03267         RSUBAR  _B2_VIN_AD
05F2                  03268 _00331_DS_
05F2   F187           03269         JBCLR   PFLAG,0
05F3   A000           03270         GOTO    _00264_DS_
                      03271 ;;genSkipc:3195: created from rifx:00DE608C
                      03272 ;;unsigned compare: left < lit(0xD16=3350), size=2
05F4   3C0D           03273         MOVAI   0x0d
05F5   4800           03274         RSUBAR  (_B3_VIN_AD + 1)
05F6   E587           03275         JBSET   PFLAG,2
05F7   A000           03276         GOTO    _00332_DS_
05F8   3C16           03277         MOVAI   0x16
05F9   4800           03278         RSUBAR  _B3_VIN_AD
05FA                  03279 _00332_DS_
05FA   E187           03280         JBSET   PFLAG,0
05FB   A000           03281         GOTO    _00264_DS_
                      03282 ;;genSkipc:3195: created from rifx:00DE608C
                      03283 ;;swapping arguments (AOP_TYPEs 1/3)
                      03284 ;;unsigned compare: left >= lit(0xDCB=3531), size=2
05FC   3C0D           03285         MOVAI   0x0d
05FD   4800           03286         RSUBAR  (_B3_VIN_AD + 1)
05FE   E587           03287         JBSET   PFLAG,2
05FF   A000           03288         GOTO    _00333_DS_
0600   3CCB           03289         MOVAI   0xcb
0601   4800           03290         RSUBAR  _B3_VIN_AD
0602                  03291 _00333_DS_
0602   F187           03292         JBCLR   PFLAG,0
0603   A000           03293         GOTO    _00264_DS_
                      03294 ;;genSkipc:3195: created from rifx:00DE608C
                      03295 ;;unsigned compare: left < lit(0xD16=3350), size=2
0604   3C0D           03296         MOVAI   0x0d
0605   4800           03297         RSUBAR  (_BT_VIN_AD + 1)
0606   E587           03298         JBSET   PFLAG,2
0607   A000           03299         GOTO    _00334_DS_
0608   3C16           03300         MOVAI   0x16
0609   4800           03301         RSUBAR  _BT_VIN_AD
060A                  03302 _00334_DS_
060A   E187           03303         JBSET   PFLAG,0
060B   A000           03304         GOTO    _00264_DS_
                      03305 ;;genSkipc:3195: created from rifx:00DE608C
                      03306 ;;swapping arguments (AOP_TYPEs 1/3)
                      03307 ;;unsigned compare: left >= lit(0xDCB=3531), size=2
060C   3C0D           03308         MOVAI   0x0d
060D   4800           03309         RSUBAR  (_BT_VIN_AD + 1)
060E   E587           03310         JBSET   PFLAG,2
060F   A000           03311         GOTO    _00335_DS_
0610   3CCB           03312         MOVAI   0xcb
0611   4800           03313         RSUBAR  _BT_VIN_AD
0612                  03314 _00335_DS_
0612   F187           03315         JBCLR   PFLAG,0
0613   A000           03316         GOTO    _00264_DS_
                      03317 ;;genSkipc:3195: created from rifx:00DE608C
                      03318 ;       .line   478; "3S4SVoltmeter2.c" EEPROM_Write(0x00,0xA5);//,0xA5
0614   3CA5           03319         MOVAI   0xa5
0615   5600           03320         MOVRA   STK00
0616   3C00           03321         MOVAI   0x00
0617   8000           03322         CALL    _EEPROM_Write
                      03323 ;       .line   479; "3S4SVoltmeter2.c" EEPROM_Write(0x01,0xCA);//,0xCA
0618   3CCA           03324         MOVAI   0xca
0619   5600           03325         MOVRA   STK00
061A   3C01           03326         MOVAI   0x01
061B   8000           03327         CALL    _EEPROM_Write
                      03328 ;       .line   480; "3S4SVoltmeter2.c" AD_Temp_L=(uchar)(B1_VIN_AD&0x00FF);//AD8
061C   5800           03329         MOVAR   _B1_VIN_AD
061D   5600           03330         MOVRA   r0x103E
061E   7600           03331         CLRR    r0x103F
061F   5800           03332         MOVAR   r0x103E
0620   5600           03333         MOVRA   r0x1040
                      03334 ;       .line   481; "3S4SVoltmeter2.c" AD_Temp_H=(uchar)((B1_VIN_AD>>8)&0x00FF);//AD8
0621   5800           03335         MOVAR   (_B1_VIN_AD + 1)
0622   5600           03336         MOVRA   r0x103E
0623   7600           03337         CLRR    r0x103F
0624   7600           03338         CLRR    r0x103F
                      03339 ;;157   MOVAR   r0x103E
                      03340 ;;156   MOVAR   r0x1041
                      03341 ;       .line   482; "3S4SVoltmeter2.c" EEPROM_Write(0x02, AD_Temp_H);//,B1_VIN_AD
0625   5800           03342         MOVAR   r0x103E
0626   5600           03343         MOVRA   r0x1041
0627   5600           03344         MOVRA   STK00
0628   3C02           03345         MOVAI   0x02
0629   8000           03346         CALL    _EEPROM_Write
                      03347 ;       .line   483; "3S4SVoltmeter2.c" EEPROM_Write(0x03,AD_Temp_L);//,B1_VIN_AD                                                       
062A   5800           03348         MOVAR   r0x1040
062B   5600           03349         MOVRA   STK00
062C   3C03           03350         MOVAI   0x03
062D   8000           03351         CALL    _EEPROM_Write
                      03352 ;       .line   484; "3S4SVoltmeter2.c" AD_Temp_L=(uchar)(B2_VIN_AD&0x00FF);//AD8
062E   5800           03353         MOVAR   _B2_VIN_AD
062F   5600           03354         MOVRA   r0x103E
0630   7600           03355         CLRR    r0x103F
0631   5800           03356         MOVAR   r0x103E
0632   5600           03357         MOVRA   r0x1040
                      03358 ;       .line   485; "3S4SVoltmeter2.c" AD_Temp_H=(uchar)((B2_VIN_AD>>8)&0x00FF);//AD8
0633   5800           03359         MOVAR   (_B2_VIN_AD + 1)
0634   5600           03360         MOVRA   r0x103E
0635   7600           03361         CLRR    r0x103F
0636   7600           03362         CLRR    r0x103F
                      03363 ;;150   MOVAR   r0x103E
                      03364 ;;149   MOVAR   r0x1041
                      03365 ;       .line   486; "3S4SVoltmeter2.c" EEPROM_Write(0x04, AD_Temp_H);//,B2_VIN_AD
0637   5800           03366         MOVAR   r0x103E
0638   5600           03367         MOVRA   r0x1041
0639   5600           03368         MOVRA   STK00
063A   3C04           03369         MOVAI   0x04
063B   8000           03370         CALL    _EEPROM_Write
                      03371 ;       .line   487; "3S4SVoltmeter2.c" EEPROM_Write(0x05,AD_Temp_L);//,B2_VIN_AD
063C   5800           03372         MOVAR   r0x1040
063D   5600           03373         MOVRA   STK00
063E   3C05           03374         MOVAI   0x05
063F   8000           03375         CALL    _EEPROM_Write
                      03376 ;       .line   488; "3S4SVoltmeter2.c" AD_Temp_L=(uchar)(B3_VIN_AD&0x00FF);//AD8
0640   5800           03377         MOVAR   _B3_VIN_AD
0641   5600           03378         MOVRA   r0x103E
0642   7600           03379         CLRR    r0x103F
0643   5800           03380         MOVAR   r0x103E
0644   5600           03381         MOVRA   r0x1040
                      03382 ;       .line   489; "3S4SVoltmeter2.c" AD_Temp_H=(uchar)((B3_VIN_AD>>8)&0x00FF);//AD8
0645   5800           03383         MOVAR   (_B3_VIN_AD + 1)
0646   5600           03384         MOVRA   r0x103E
0647   7600           03385         CLRR    r0x103F
0648   7600           03386         CLRR    r0x103F
                      03387 ;;140   MOVAR   r0x103E
                      03388 ;;139   MOVAR   r0x1041
                      03389 ;       .line   490; "3S4SVoltmeter2.c" EEPROM_Write(0x06, AD_Temp_H);//,B3_VIN_AD
0649   5800           03390         MOVAR   r0x103E
064A   5600           03391         MOVRA   r0x1041
064B   5600           03392         MOVRA   STK00
064C   3C06           03393         MOVAI   0x06
064D   8000           03394         CALL    _EEPROM_Write
                      03395 ;       .line   491; "3S4SVoltmeter2.c" EEPROM_Write(0x07,AD_Temp_L);//,B3_VIN_AD
064E   5800           03396         MOVAR   r0x1040
064F   5600           03397         MOVRA   STK00
0650   3C07           03398         MOVAI   0x07
0651   8000           03399         CALL    _EEPROM_Write
                      03400 ;       .line   492; "3S4SVoltmeter2.c" AD_Temp_L=(uchar)(BT_VIN_AD&0x00FF);//AD8
0652   5800           03401         MOVAR   _BT_VIN_AD
0653   5600           03402         MOVRA   r0x103E
0654   7600           03403         CLRR    r0x103F
0655   5800           03404         MOVAR   r0x103E
0656   5600           03405         MOVRA   r0x1040
                      03406 ;       .line   493; "3S4SVoltmeter2.c" AD_Temp_H=(uchar)((BT_VIN_AD>>8)&0x00FF);//AD8
0657   5800           03407         MOVAR   (_BT_VIN_AD + 1)
0658   5600           03408         MOVRA   r0x103E
0659   7600           03409         CLRR    r0x103F
065A   7600           03410         CLRR    r0x103F
                      03411 ;;109   MOVAR   r0x103E
                      03412 ;;108   MOVAR   r0x1041
                      03413 ;       .line   494; "3S4SVoltmeter2.c" EEPROM_Write(0x08, AD_Temp_H);//,BT_VIN_AD
065B   5800           03414         MOVAR   r0x103E
065C   5600           03415         MOVRA   r0x1041
065D   5600           03416         MOVRA   STK00
065E   3C08           03417         MOVAI   0x08
065F   8000           03418         CALL    _EEPROM_Write
                      03419 ;       .line   495; "3S4SVoltmeter2.c" EEPROM_Write(0x09,AD_Temp_L);//,BT_VIN_AD 
0660   5800           03420         MOVAR   r0x1040
0661   5600           03421         MOVRA   STK00
0662   3C09           03422         MOVAI   0x09
0663   8000           03423         CALL    _EEPROM_Write
                      03424 ;       .line   498; "3S4SVoltmeter2.c" Flag1_A5=EEPROM_Data_Value=EEPROM_Read(0x00);//EEPROM 
0664   3C00           03425         MOVAI   0x00
0665   8000           03426         CALL    _EEPROM_Read
0666   5600           03427         MOVRA   r0x103F
0667   5600           03428         MOVRA   _EEPROM_Data_Value
0668   5600           03429         MOVRA   r0x103E
                      03430 ;;167   MOVAR   r0x103E
                      03431 ;;169   MOVAR   r0x103E
                      03432 ;       .line   499; "3S4SVoltmeter2.c" Flag2_CA=EEPROM_Data_Value=EEPROM_Read(0x01);//EEPROM 
0669   3C01           03433         MOVAI   0x01
066A   8000           03434         CALL    _EEPROM_Read
066B   5600           03435         MOVRA   r0x1042
066C   5600           03436         MOVRA   _EEPROM_Data_Value
066D   5600           03437         MOVRA   r0x103E
                      03438 ;;161   MOVAR   r0x103E
                      03439 ;;165   MOVAR   r0x103E
                      03440 ;       .line   500; "3S4SVoltmeter2.c" AD_Temp_H=EEPROM_Data_Value=EEPROM_Read(0x02);//EEPROM
066E   3C02           03441         MOVAI   0x02
066F   8000           03442         CALL    _EEPROM_Read
0670   5600           03443         MOVRA   r0x1041
0671   5600           03444         MOVRA   _EEPROM_Data_Value
0672   5600           03445         MOVRA   r0x103E
                      03446 ;;147   MOVAR   r0x103E
                      03447 ;;155   MOVAR   r0x103E
                      03448 ;       .line   501; "3S4SVoltmeter2.c" AD_Temp_L=EEPROM_Data_Value=EEPROM_Read(0x03);//EEPROM                                                      
0673   3C03           03449         MOVAI   0x03
0674   8000           03450         CALL    _EEPROM_Read
0675   5600           03451         MOVRA   r0x1048
0676   5600           03452         MOVRA   r0x1046
0677   5600           03453         MOVRA   r0x1040
0678   5600           03454         MOVRA   r0x103E
                      03455 ;;136   MOVAR   r0x103E
0679   5800           03456         MOVAR   r0x103E
067A   5600           03457         MOVRA   _EEPROM_Data_Value
                      03458 ;;112   MOVAR   r0x1041
                      03459 ;       .line   502; "3S4SVoltmeter2.c" B1_Ratio_Read_Value=AD_Temp_H;
067B   5600           03460         MOVRA   r0x103E
067C   7600           03461         CLRR    r0x1043
                      03462 ;;104   MOVAR   r0x103E
                      03463 ;       .line   503; "3S4SVoltmeter2.c" B1_Ratio_Read_Value=((B1_Ratio_Read_Value<<8)+AD_Temp_L);                                                         
067D   7600           03464         CLRR    r0x1045
                      03465 ;;148   MOVAR   r0x1040
067E   7600           03466         CLRR    r0x1047
                      03467 ;;162   MOVAR   r0x1046
067F   3C00           03468         MOVAI   0x00
0680   5600           03469         MOVRA   r0x1049
0681   5800           03470         MOVAR   r0x1048
0682   7C00           03471         ADDAR   r0x1045
0683   5600           03472         MOVRA   r0x103E
                      03473 ;;111   MOVAR   r0x1044
0684   5800           03474         MOVAR   r0x1041
0685   5600           03475         MOVRA   r0x1044
0686   5600           03476         MOVRA   r0x1043
0687   5800           03477         MOVAR   r0x1049
0688   F187           03478         JBCLR   PFLAG,0
0689   6000           03479         JZAR    r0x1049
068A   7E00           03480         ADDRA   r0x1043
                      03481 ;       .line   504; "3S4SVoltmeter2.c" AD_Temp_H=EEPROM_Data_Value=EEPROM_Read(0x04);//EEPROM
068B   3C04           03482         MOVAI   0x04
068C   8000           03483         CALL    _EEPROM_Read
068D   5600           03484         MOVRA   r0x1041
068E   5600           03485         MOVRA   _EEPROM_Data_Value
068F   5600           03486         MOVRA   r0x1045
                      03487 ;;141   MOVAR   r0x1045
                      03488 ;;151   MOVAR   r0x1045
                      03489 ;       .line   505; "3S4SVoltmeter2.c" AD_Temp_L=EEPROM_Data_Value=EEPROM_Read(0x05);//EEPROM                                                      
0690   3C05           03490         MOVAI   0x05
0691   8000           03491         CALL    _EEPROM_Read
0692   5600           03492         MOVRA   r0x1045
0693   5800           03493         MOVAR   r0x1045
0694   5600           03494         MOVRA   r0x1048
0695   5600           03495         MOVRA   r0x1040
0696   5800           03496         MOVAR   r0x1045
0697   5600           03497         MOVRA   _EEPROM_Data_Value
                      03498 ;;115   MOVAR   r0x1041
                      03499 ;       .line   506; "3S4SVoltmeter2.c" B2_Ratio_Read_Value=AD_Temp_H;
0698   5600           03500         MOVRA   r0x1045
0699   7600           03501         CLRR    r0x1044
                      03502 ;;110   MOVAR   r0x1045
                      03503 ;       .line   507; "3S4SVoltmeter2.c" B2_Ratio_Read_Value=((B2_Ratio_Read_Value<<8)+AD_Temp_L);                                                                 
069A   7600           03504         CLRR    r0x1046
                      03505 ;;138   MOVAR   r0x1040
069B   7600           03506         CLRR    r0x1049
                      03507 ;;145   MOVAR   r0x1048
069C   3C00           03508         MOVAI   0x00
069D   5600           03509         MOVRA   r0x104B
                      03510 ;;144   MOVAR   r0x104A
069E   5800           03511         MOVAR   r0x1048
069F   5600           03512         MOVRA   r0x104A
06A0   7C00           03513         ADDAR   r0x1046
06A1   5600           03514         MOVRA   r0x1045
                      03515 ;;114   MOVAR   r0x1047
06A2   5800           03516         MOVAR   r0x1041
06A3   5600           03517         MOVRA   r0x1047
06A4   5600           03518         MOVRA   r0x1044
06A5   5800           03519         MOVAR   r0x104B
06A6   F187           03520         JBCLR   PFLAG,0
06A7   6000           03521         JZAR    r0x104B
06A8   7E00           03522         ADDRA   r0x1044
                      03523 ;       .line   508; "3S4SVoltmeter2.c" AD_Temp_H=EEPROM_Data_Value=EEPROM_Read(0x06);//EEPROM
06A9   3C06           03524         MOVAI   0x06
06AA   8000           03525         CALL    _EEPROM_Read
06AB   5600           03526         MOVRA   r0x1041
06AC   5600           03527         MOVRA   _EEPROM_Data_Value
06AD   5600           03528         MOVRA   r0x1046
                      03529 ;;152   MOVAR   r0x1046
                      03530 ;;158   MOVAR   r0x1046
                      03531 ;       .line   509; "3S4SVoltmeter2.c" AD_Temp_L=EEPROM_Data_Value=EEPROM_Read(0x07);//EEPROM                                                      
06AE   3C07           03532         MOVAI   0x07
06AF   8000           03533         CALL    _EEPROM_Read
06B0   5600           03534         MOVRA   r0x1040
06B1   5600           03535         MOVRA   r0x1046
                      03536 ;;142   MOVAR   r0x1046
06B2   5800           03537         MOVAR   r0x1046
06B3   5600           03538         MOVRA   _EEPROM_Data_Value
                      03539 ;;118   MOVAR   r0x1041
                      03540 ;       .line   510; "3S4SVoltmeter2.c" B3_Ratio_Read_Value=AD_Temp_H;
06B4   5600           03541         MOVRA   r0x1046
06B5   7600           03542         CLRR    r0x1047
                      03543 ;;113   MOVAR   r0x1046
                      03544 ;       .line   511; "3S4SVoltmeter2.c" B3_Ratio_Read_Value=((B3_Ratio_Read_Value<<8)+AD_Temp_L);                                                         
06B6   7600           03545         CLRR    r0x1048
                      03546 ;;123   MOVAR   r0x1040
06B7   5600           03547         MOVRA   r0x104A
06B8   7600           03548         CLRR    r0x104B
                      03549 ;;119   MOVAR   r0x104A
                      03550 ;;125   MOVAR   r0x104B
                      03551 ;;122   MOVAR   r0x104C
06B9   5800           03552         MOVAR   r0x1040
06BA   5600           03553         MOVRA   r0x104C
06BB   7C00           03554         ADDAR   r0x1048
06BC   5600           03555         MOVRA   r0x1046
                      03556 ;;117   MOVAR   r0x1049
06BD   5800           03557         MOVAR   r0x1041
06BE   5600           03558         MOVRA   r0x1049
06BF   5600           03559         MOVRA   r0x1047
                      03560 ;;124   MOVAR   r0x104D
06C0   3C00           03561         MOVAI   0x00
06C1   5600           03562         MOVRA   r0x104D
06C2   F187           03563         JBCLR   PFLAG,0
06C3   6000           03564         JZAR    r0x104D
06C4   7E00           03565         ADDRA   r0x1047
                      03566 ;       .line   512; "3S4SVoltmeter2.c" AD_Temp_H=EEPROM_Data_Value=EEPROM_Read(0x08);//EEPROM
06C5   3C08           03567         MOVAI   0x08
06C6   8000           03568         CALL    _EEPROM_Read
06C7   5600           03569         MOVRA   r0x1041
06C8   5600           03570         MOVRA   _EEPROM_Data_Value
06C9   5600           03571         MOVRA   r0x1048
                      03572 ;;159   MOVAR   r0x1048
                      03573 ;;163   MOVAR   r0x1048
                      03574 ;       .line   513; "3S4SVoltmeter2.c" AD_Temp_L=EEPROM_Data_Value=EEPROM_Read(0x09);//EEPROM                                                      
06CA   3C09           03575         MOVAI   0x09
06CB   8000           03576         CALL    _EEPROM_Read
06CC   5600           03577         MOVRA   r0x1040
06CD   5600           03578         MOVRA   _EEPROM_Data_Value
06CE   5600           03579         MOVRA   r0x1048
                      03580 ;;143   MOVAR   r0x1048
                      03581 ;;153   MOVAR   r0x1048
                      03582 ;       .line   514; "3S4SVoltmeter2.c" BT_Ratio_Read_Value=AD_Temp_H;
06CF   5800           03583         MOVAR   r0x1041
06D0   5600           03584         MOVRA   r0x104A
06D1   5600           03585         MOVRA   r0x1048
06D2   7600           03586         CLRR    r0x1049
                      03587 ;;116   MOVAR   r0x1048
                      03588 ;       .line   515; "3S4SVoltmeter2.c" BT_Ratio_Read_Value=((BT_Ratio_Read_Value<<8)+AD_Temp_L);                                                                 
06D3   7600           03589         CLRR    r0x1041
                      03590 ;;121   MOVAR   r0x1040
06D4   7600           03591         CLRR    r0x104C
                      03592 ;;107   MOVAR   r0x104B
06D5   3C00           03593         MOVAI   0x00
06D6   5600           03594         MOVRA   r0x104D
                      03595 ;;106   MOVAR   r0x1040
                      03596 ;;120   MOVAR   r0x104B
06D7   5800           03597         MOVAR   r0x1040
06D8   5600           03598         MOVRA   r0x104B
06D9   5600           03599         MOVRA   r0x1040
06DA   7C00           03600         ADDAR   r0x1041
06DB   5600           03601         MOVRA   r0x1048
06DC   5800           03602         MOVAR   r0x104A
06DD   5600           03603         MOVRA   r0x1049
06DE   5800           03604         MOVAR   r0x104D
06DF   F187           03605         JBCLR   PFLAG,0
06E0   6000           03606         JZAR    r0x104D
06E1   7E00           03607         ADDRA   r0x1049
                      03608 ;       .line   516; "3S4SVoltmeter2.c" if((Flag1_A5==0xA5)&&(Flag2_CA==0xCA)&&(B1_Ratio_Read_Value==B1_VIN_AD)&&(B2_Ratio_Read_Value==B2_VIN_AD)&&(B3_Ratio_Read_Value==B3_VIN_AD)&&(BT_Ratio_Read_Value==BT_VIN_AD))
06E2   5800           03609         MOVAR   r0x103F
06E3   39A5           03610         XORAI   0xa5
06E4   E587           03611         JBSET   PFLAG,2
06E5   A000           03612         GOTO    _00264_DS_
06E6   5800           03613         MOVAR   r0x1042
06E7   39CA           03614         XORAI   0xca
06E8   E587           03615         JBSET   PFLAG,2
06E9   A000           03616         GOTO    _00264_DS_
06EA   5800           03617         MOVAR   _B1_VIN_AD
06EB   4000           03618         XORAR   r0x103E
06EC   E587           03619         JBSET   PFLAG,2
06ED   A000           03620         GOTO    _00264_DS_
06EE   5800           03621         MOVAR   (_B1_VIN_AD + 1)
06EF   4000           03622         XORAR   r0x1043
06F0   E587           03623         JBSET   PFLAG,2
06F1   A000           03624         GOTO    _00264_DS_
06F2   5800           03625         MOVAR   _B2_VIN_AD
06F3   4000           03626         XORAR   r0x1045
06F4   E587           03627         JBSET   PFLAG,2
06F5   A000           03628         GOTO    _00264_DS_
06F6   5800           03629         MOVAR   (_B2_VIN_AD + 1)
06F7   4000           03630         XORAR   r0x1044
06F8   E587           03631         JBSET   PFLAG,2
06F9   A000           03632         GOTO    _00264_DS_
06FA   5800           03633         MOVAR   _B3_VIN_AD
06FB   4000           03634         XORAR   r0x1046
06FC   E587           03635         JBSET   PFLAG,2
06FD   A000           03636         GOTO    _00264_DS_
06FE   5800           03637         MOVAR   (_B3_VIN_AD + 1)
06FF   4000           03638         XORAR   r0x1047
0700   E587           03639         JBSET   PFLAG,2
0701   A000           03640         GOTO    _00264_DS_
0702   5800           03641         MOVAR   _BT_VIN_AD
0703   4000           03642         XORAR   r0x1048
0704   E587           03643         JBSET   PFLAG,2
0705   A000           03644         GOTO    _00264_DS_
0706   5800           03645         MOVAR   (_BT_VIN_AD + 1)
0707   4000           03646         XORAR   r0x1049
0708   E587           03647         JBSET   PFLAG,2
0709   A000           03648         GOTO    _00264_DS_
                      03649 ;       .line   518; "3S4SVoltmeter2.c" RLED_OFF;//LED
070A   DA00           03650         BCLR    _IOP2bits,5
070B                  03651 _00254_DS_
                      03652 ;       .line   521; "3S4SVoltmeter2.c" Delay1mS_1M(500);//250Ms          
070B   3CF4           03653         MOVAI   0xf4
070C   5600           03654         MOVRA   STK00
070D   3C01           03655         MOVAI   0x01
070E   8000           03656         CALL    _Delay1mS_1M
                      03657 ;       .line   522; "3S4SVoltmeter2.c" GLED=!GLED;
070F   7600           03658         CLRR    r0x103E
0710   FA00           03659         JBCLR   _IOP0bits,5
0711   6600           03660         INCR    r0x103E
0712   5800           03661         MOVAR   r0x103E
0713   3C00           03662         MOVAI   0x00
0714   F587           03663         JBCLR   PFLAG,2
0715   3C01           03664         MOVAI   0x01
0716   5600           03665         MOVRA   r0x103E
0717   5600           03666         MOVRA   r0x103F
                      03667 ;;137   MOVAR   r0x103F
0718   4C00           03668         RRAR    r0x103E
0719   E187           03669         JBSET   PFLAG,0
071A   DA00           03670         BCLR    _IOP0bits,5
071B   F187           03671         JBCLR   PFLAG,0
071C   CA00           03672         BSET    _IOP0bits,5
071D   A000           03673         GOTO    _00254_DS_
071E                  03674 _00264_DS_
                      03675 ;       .line   528; "3S4SVoltmeter2.c" GLED_OFF;//LED
071E   DA00           03676         BCLR    _IOP0bits,5
071F                  03677 _00275_DS_
                      03678 ;       .line   531; "3S4SVoltmeter2.c" Delay1mS_1M(250);//250Ms          
071F   3CFA           03679         MOVAI   0xfa
0720   5600           03680         MOVRA   STK00
0721   3C00           03681         MOVAI   0x00
0722   8000           03682         CALL    _Delay1mS_1M
                      03683 ;       .line   532; "3S4SVoltmeter2.c" RLED=!RLED;
0723   7600           03684         CLRR    r0x103E
0724   FA00           03685         JBCLR   _IOP2bits,5
0725   6600           03686         INCR    r0x103E
0726   5800           03687         MOVAR   r0x103E
0727   3C00           03688         MOVAI   0x00
0728   F587           03689         JBCLR   PFLAG,2
0729   3C01           03690         MOVAI   0x01
072A   5600           03691         MOVRA   r0x103E
072B   5600           03692         MOVRA   r0x103F
                      03693 ;;105   MOVAR   r0x103F
072C   4C00           03694         RRAR    r0x103E
072D   E187           03695         JBSET   PFLAG,0
072E   DA00           03696         BCLR    _IOP2bits,5
072F   F187           03697         JBCLR   PFLAG,0
0730   CA00           03698         BSET    _IOP2bits,5
0731   A000           03699         GOTO    _00275_DS_
0732   000C           03700         RETURN  
                      03701 ; exit point of _ADC_Value_Ratio
                      03702 
                      03703 ;***
                      03704 ;  pBlock Stats: dbName = C
                      03705 ;***
                      03706 ;entry:  _LCD_write_hanzi       ;Function start
                      03707 ; 2 exit points
                      03708 ;has an exit
                      03709 ;functions called:
                      03710 ;   _LCD_set_XY
                      03711 ;   __gptrget1
                      03712 ;   _LCD_write_byte
                      03713 ;   _LCD_set_XY
                      03714 ;   __gptrget1
                      03715 ;   _LCD_write_byte
                      03716 ;   _LCD_set_XY
                      03717 ;   __gptrget1
                      03718 ;   _LCD_write_byte
                      03719 ;   _LCD_set_XY
                      03720 ;   __gptrget1
                      03721 ;   _LCD_write_byte
                      03722 ;9 compiler assigned registers:
                      03723 ;   r0x1052
                      03724 ;   STK00
                      03725 ;   r0x1053
                      03726 ;   STK01
                      03727 ;   r0x1054
                      03728 ;   r0x1055
                      03729 ;   r0x1056
                      03730 ;   r0x1057
                      03731 ;   r0x1058
                      03732 ;; Starting pCode block
0733                  03733 _LCD_write_hanzi        ;Function start
                      03734 ; 2 exit points
                      03735 ;       .line   433; "3S4SVoltmeter2.c" void LCD_write_hanzi(uchar row,uchar page,uchar c)
0733   5600           03736         MOVRA   r0x1052
0734   5800           03737         MOVAR   STK00
0735   5600           03738         MOVRA   r0x1053
0736   5800           03739         MOVAR   STK01
0737   5600           03740         MOVRA   r0x1054
                      03741 ;       .line   436; "3S4SVoltmeter2.c" ClrWdt();//
0738   000E           03742         clrwdt
                      03743 ;       .line   437; "3S4SVoltmeter2.c" LCD_set_XY((row*16)+19,page);//  
0739   4400           03744         SWAPAR  r0x1052
073A   3EF0           03745         ANDAI   0xf0
073B   5600           03746         MOVRA   r0x1055
073C   3C13           03747         MOVAI   0x13
073D   7C00           03748         ADDAR   r0x1055
073E   5600           03749         MOVRA   r0x1052
073F   5800           03750         MOVAR   r0x1053
0740   5600           03751         MOVRA   STK00
0741   5800           03752         MOVAR   r0x1052
0742   8000           03753         CALL    _LCD_set_XY
                      03754 ;       .line   438; "3S4SVoltmeter2.c" for(i=0; i<16;i++) 
0743   4400           03755         SWAPAR  r0x1054
0744   3EF0           03756         ANDAI   0xf0
0745   5600           03757         MOVRA   r0x1055
0746   D187           03758         BCLR    PFLAG,0
0747   5200           03759         RLR     r0x1055
0748   7600           03760         CLRR    r0x1054
                      03761 ;;unsigned compare: left < lit(0x10=16), size=1
0749                  03762 _00240_DS_
0749   3C10           03763         MOVAI   0x10
074A   4800           03764         RSUBAR  r0x1054
074B   F187           03765         JBCLR   PFLAG,0
074C   A000           03766         GOTO    _00243_DS_
                      03767 ;;genSkipc:3195: created from rifx:00DE608C
                      03768 ;       .line   440; "3S4SVoltmeter2.c" LCD_write_byte(hanzi[c*32+i],1); 
074D   5800           03769         MOVAR   r0x1054
074E   7C00           03770         ADDAR   r0x1055
074F   5600           03771         MOVRA   r0x1056
0750   5800           03772         MOVAR   r0x1056
0751   3F00           03773         ADDAI   (_hanzi + 0)
0752   5600           03774         MOVRA   r0x1056
0753   3C00           03775         MOVAI   high (_hanzi + 0)
0754   F187           03776         JBCLR   PFLAG,0
0755   3F01           03777         ADDAI   0x01
0756   5600           03778         MOVRA   r0x1057
0757   5800           03779         MOVAR   r0x1056
0758   5600           03780         MOVRA   STK01
0759   5800           03781         MOVAR   r0x1057
075A   5600           03782         MOVRA   STK00
075B   3C80           03783         MOVAI   0x80
075C   8000           03784         CALL    __gptrget1
075D   5600           03785         MOVRA   r0x1058
075E   3C01           03786         MOVAI   0x01
075F   5600           03787         MOVRA   STK00
0760   5800           03788         MOVAR   r0x1058
0761   8000           03789         CALL    _LCD_write_byte
                      03790 ;       .line   438; "3S4SVoltmeter2.c" for(i=0; i<16;i++) 
0762   6600           03791         INCR    r0x1054
0763   A000           03792         GOTO    _00240_DS_
0764                  03793 _00243_DS_
                      03794 ;       .line   442; "3S4SVoltmeter2.c" ClrWdt();//
0764   000E           03795         clrwdt
                      03796 ;       .line   443; "3S4SVoltmeter2.c" LCD_set_XY((row*16)+19,page+1);//  
0765   6600           03797         INCR    r0x1053
0766   5800           03798         MOVAR   r0x1053
0767   5600           03799         MOVRA   STK00
0768   5800           03800         MOVAR   r0x1052
0769   8000           03801         CALL    _LCD_set_XY
                      03802 ;       .line   444; "3S4SVoltmeter2.c" for(i=16; i<32;i++) 
076A   3C10           03803         MOVAI   0x10
076B   5600           03804         MOVRA   r0x1052
                      03805 ;;unsigned compare: left < lit(0x20=32), size=1
076C                  03806 _00244_DS_
076C   3C20           03807         MOVAI   0x20
076D   4800           03808         RSUBAR  r0x1052
076E   F187           03809         JBCLR   PFLAG,0
076F   A000           03810         GOTO    _00248_DS_
                      03811 ;;genSkipc:3195: created from rifx:00DE608C
                      03812 ;       .line   446; "3S4SVoltmeter2.c" LCD_write_byte(hanzi[c*32+i],1);
0770   5800           03813         MOVAR   r0x1052
0771   7C00           03814         ADDAR   r0x1055
0772   5600           03815         MOVRA   r0x1053
0773   5800           03816         MOVAR   r0x1053
0774   3F00           03817         ADDAI   (_hanzi + 0)
0775   5600           03818         MOVRA   r0x1053
0776   3C00           03819         MOVAI   high (_hanzi + 0)
0777   F187           03820         JBCLR   PFLAG,0
0778   3F01           03821         ADDAI   0x01
0779   5600           03822         MOVRA   r0x1054
077A   5800           03823         MOVAR   r0x1053
077B   5600           03824         MOVRA   STK01
077C   5800           03825         MOVAR   r0x1054
077D   5600           03826         MOVRA   STK00
077E   3C80           03827         MOVAI   0x80
077F   8000           03828         CALL    __gptrget1
0780   5600           03829         MOVRA   r0x1056
0781   3C01           03830         MOVAI   0x01
0782   5600           03831         MOVRA   STK00
0783   5800           03832         MOVAR   r0x1056
0784   8000           03833         CALL    _LCD_write_byte
                      03834 ;       .line   444; "3S4SVoltmeter2.c" for(i=16; i<32;i++) 
0785   6600           03835         INCR    r0x1052
0786   A000           03836         GOTO    _00244_DS_
0787                  03837 _00248_DS_
0787   000C           03838         RETURN  
                      03839 ; exit point of _LCD_write_hanzi
                      03840 
                      03841 ;***
                      03842 ;  pBlock Stats: dbName = C
                      03843 ;***
                      03844 ;entry:  _LCD_write_shu57       ;Function start
                      03845 ; 2 exit points
                      03846 ;has an exit
                      03847 ;functions called:
                      03848 ;   __mulchar
                      03849 ;   _LCD_set_XY
                      03850 ;   __mulchar
                      03851 ;   __gptrget1
                      03852 ;   _LCD_write_byte
                      03853 ;   __mulchar
                      03854 ;   _LCD_set_XY
                      03855 ;   __mulchar
                      03856 ;   __gptrget1
                      03857 ;   _LCD_write_byte
                      03858 ;7 compiler assigned registers:
                      03859 ;   r0x1059
                      03860 ;   STK00
                      03861 ;   r0x105A
                      03862 ;   STK01
                      03863 ;   r0x105B
                      03864 ;   r0x105C
                      03865 ;   r0x105D
                      03866 ;; Starting pCode block
0788                  03867 _LCD_write_shu57        ;Function start
                      03868 ; 2 exit points
                      03869 ;       .line   416; "3S4SVoltmeter2.c" void LCD_write_shu57(uchar row,uchar page,uchar c)
0788   5600           03870         MOVRA   r0x1059
0789   5800           03871         MOVAR   STK00
078A   5600           03872         MOVRA   r0x105A
078B   5800           03873         MOVAR   STK01
078C   5600           03874         MOVRA   r0x105B
                      03875 ;       .line   419; "3S4SVoltmeter2.c" ClrWdt();//
078D   000E           03876         clrwdt
                      03877 ;       .line   420; "3S4SVoltmeter2.c" LCD_set_XY(row*6, page);//  
078E   3C06           03878         MOVAI   0x06
078F   5600           03879         MOVRA   STK00
0790   5800           03880         MOVAR   r0x1059
0791   8000           03881         CALL    __mulchar
0792   5600           03882         MOVRA   r0x105C
0793   5800           03883         MOVAR   r0x105A
0794   5600           03884         MOVRA   STK00
0795   5800           03885         MOVAR   r0x105C
0796   8000           03886         CALL    _LCD_set_XY
                      03887 ;       .line   421; "3S4SVoltmeter2.c" for(i=0; i<5;i++) 
0797   3C05           03888         MOVAI   0x05
0798   5600           03889         MOVRA   STK00
0799   5800           03890         MOVAR   r0x105B
079A   8000           03891         CALL    __mulchar
079B   5600           03892         MOVRA   r0x1059
079C   7600           03893         CLRR    r0x105A
                      03894 ;;unsigned compare: left < lit(0x5=5), size=1
079D                  03895 _00232_DS_
079D   3C05           03896         MOVAI   0x05
079E   4800           03897         RSUBAR  r0x105A
079F   F187           03898         JBCLR   PFLAG,0
07A0   A000           03899         GOTO    _00235_DS_
                      03900 ;;genSkipc:3195: created from rifx:00DE608C
                      03901 ;       .line   423; "3S4SVoltmeter2.c" LCD_write_byte(shuzi57[c*5+i],1); 
07A1   5800           03902         MOVAR   r0x105A
07A2   7C00           03903         ADDAR   r0x1059
07A3   5600           03904         MOVRA   r0x105B
07A4   5800           03905         MOVAR   r0x105B
07A5   3F00           03906         ADDAI   (_shuzi57 + 0)
07A6   5600           03907         MOVRA   r0x105B
07A7   3C00           03908         MOVAI   high (_shuzi57 + 0)
07A8   F187           03909         JBCLR   PFLAG,0
07A9   3F01           03910         ADDAI   0x01
07AA   5600           03911         MOVRA   r0x105C
07AB   5800           03912         MOVAR   r0x105B
07AC   5600           03913         MOVRA   STK01
07AD   5800           03914         MOVAR   r0x105C
07AE   5600           03915         MOVRA   STK00
07AF   3C80           03916         MOVAI   0x80
07B0   8000           03917         CALL    __gptrget1
07B1   5600           03918         MOVRA   r0x105D
07B2   3C01           03919         MOVAI   0x01
07B3   5600           03920         MOVRA   STK00
07B4   5800           03921         MOVAR   r0x105D
07B5   8000           03922         CALL    _LCD_write_byte
                      03923 ;       .line   421; "3S4SVoltmeter2.c" for(i=0; i<5;i++) 
07B6   6600           03924         INCR    r0x105A
07B7   A000           03925         GOTO    _00232_DS_
07B8                  03926 _00235_DS_
                      03927 ;       .line   425; "3S4SVoltmeter2.c" ClrWdt();//       
07B8   000E           03928         clrwdt
07B9   000C           03929         RETURN  
                      03930 ; exit point of _LCD_write_shu57
                      03931 
                      03932 ;***
                      03933 ;  pBlock Stats: dbName = C
                      03934 ;***
                      03935 ;entry:  _LCD_clear     ;Function start
                      03936 ; 2 exit points
                      03937 ;has an exit
                      03938 ;functions called:
                      03939 ;   _LCD_set_XY
                      03940 ;   _LCD_write_byte
                      03941 ;   _LCD_set_XY
                      03942 ;   _LCD_write_byte
                      03943 ;3 compiler assigned registers:
                      03944 ;   STK00
                      03945 ;   r0x105E
                      03946 ;   r0x105F
                      03947 ;; Starting pCode block
07BA                  03948 _LCD_clear      ;Function start
                      03949 ; 2 exit points
                      03950 ;       .line   401; "3S4SVoltmeter2.c" LCD_set_XY(0,0);
07BA   3C00           03951         MOVAI   0x00
07BB   5600           03952         MOVRA   STK00
07BC   3C00           03953         MOVAI   0x00
07BD   8000           03954         CALL    _LCD_set_XY
                      03955 ;       .line   402; "3S4SVoltmeter2.c" for(t=0;t<6;t++)
07BE   7600           03956         CLRR    r0x105E
                      03957 ;;unsigned compare: left < lit(0x6=6), size=1
07BF                  03958 _00223_DS_
07BF   3C06           03959         MOVAI   0x06
07C0   4800           03960         RSUBAR  r0x105E
07C1   F187           03961         JBCLR   PFLAG,0
07C2   A000           03962         GOTO    _00227_DS_
                      03963 ;;genSkipc:3195: created from rifx:00DE608C
                      03964 ;       .line   404; "3S4SVoltmeter2.c" for(k=0;k<84;k++)
07C3   7600           03965         CLRR    r0x105F
                      03966 ;;unsigned compare: left < lit(0x54=84), size=1
07C4                  03967 _00219_DS_
07C4   3C54           03968         MOVAI   0x54
07C5   4800           03969         RSUBAR  r0x105F
07C6   F187           03970         JBCLR   PFLAG,0
07C7   A000           03971         GOTO    _00225_DS_
                      03972 ;;genSkipc:3195: created from rifx:00DE608C
                      03973 ;       .line   406; "3S4SVoltmeter2.c" LCD_write_byte(0x00,1);
07C8   3C01           03974         MOVAI   0x01
07C9   5600           03975         MOVRA   STK00
07CA   3C00           03976         MOVAI   0x00
07CB   8000           03977         CALL    _LCD_write_byte
                      03978 ;       .line   407; "3S4SVoltmeter2.c" ClrWdt();//                       
07CC   000E           03979         clrwdt
                      03980 ;       .line   404; "3S4SVoltmeter2.c" for(k=0;k<84;k++)
07CD   6600           03981         INCR    r0x105F
07CE   A000           03982         GOTO    _00219_DS_
07CF                  03983 _00225_DS_
                      03984 ;       .line   402; "3S4SVoltmeter2.c" for(t=0;t<6;t++)
07CF   6600           03985         INCR    r0x105E
07D0   A000           03986         GOTO    _00223_DS_
07D1                  03987 _00227_DS_
07D1   000C           03988         RETURN  
                      03989 ; exit point of _LCD_clear
                      03990 
                      03991 ;***
                      03992 ;  pBlock Stats: dbName = C
                      03993 ;***
                      03994 ;entry:  _LCD_set_XY    ;Function start
                      03995 ; 2 exit points
                      03996 ;has an exit
                      03997 ;functions called:
                      03998 ;   _LCD_write_byte
                      03999 ;   _LCD_write_byte
                      04000 ;   _LCD_write_byte
                      04001 ;   _LCD_write_byte
                      04002 ;3 compiler assigned registers:
                      04003 ;   r0x1050
                      04004 ;   STK00
                      04005 ;   r0x1051
                      04006 ;; Starting pCode block
07D2                  04007 _LCD_set_XY     ;Function start
                      04008 ; 2 exit points
                      04009 ;       .line   388; "3S4SVoltmeter2.c" void LCD_set_XY(unsigned char X, unsigned char Y)
07D2   5600           04010         MOVRA   r0x1050
07D3   5800           04011         MOVAR   STK00
07D4   5600           04012         MOVRA   r0x1051
                      04013 ;       .line   390; "3S4SVoltmeter2.c" LCD_write_byte(0x40 | Y, 0);// column
07D5   CC00           04014         BSET    r0x1051,6
07D6   3C00           04015         MOVAI   0x00
07D7   5600           04016         MOVRA   STK00
07D8   5800           04017         MOVAR   r0x1051
07D9   8000           04018         CALL    _LCD_write_byte
                      04019 ;       .line   391; "3S4SVoltmeter2.c" LCD_write_byte(0x80 | X, 0);// row
07DA   CE00           04020         BSET    r0x1050,7
07DB   3C00           04021         MOVAI   0x00
07DC   5600           04022         MOVRA   STK00
07DD   5800           04023         MOVAR   r0x1050
07DE   8000           04024         CALL    _LCD_write_byte
07DF   000C           04025         RETURN  
                      04026 ; exit point of _LCD_set_XY
                      04027 
                      04028 ;***
                      04029 ;  pBlock Stats: dbName = C
                      04030 ;***
                      04031 ;entry:  _LCD_init      ;Function start
                      04032 ; 2 exit points
                      04033 ;has an exit
                      04034 ;functions called:
                      04035 ;   _Delay1mS_1M
                      04036 ;   _Delay1mS_1M
                      04037 ;   _LCD_write_byte
                      04038 ;   _LCD_write_byte
                      04039 ;   _LCD_write_byte
                      04040 ;   _LCD_write_byte
                      04041 ;   _Delay1mS_1M
                      04042 ;   _Delay1mS_1M
                      04043 ;   _LCD_write_byte
                      04044 ;   _LCD_write_byte
                      04045 ;   _LCD_write_byte
                      04046 ;   _LCD_write_byte
                      04047 ;1 compiler assigned register :
                      04048 ;   STK00
                      04049 ;; Starting pCode block
07E0                  04050 _LCD_init       ;Function start
                      04051 ; 2 exit points
                      04052 ;       .line   372; "3S4SVoltmeter2.c" SCE_H;
07E0   DE00           04053         BCLR    _OEP1bits,7
07E1   CE00           04054         BSET    _PUP1bits,7
                      04055 ;       .line   373; "3S4SVoltmeter2.c" RES_H;
07E2   D800           04056         BCLR    _OEP1bits,4
07E3   C800           04057         BSET    _PUP1bits,4
                      04058 ;       .line   374; "3S4SVoltmeter2.c" Delay1mS_1M(1);
07E4   3C01           04059         MOVAI   0x01
07E5   5600           04060         MOVRA   STK00
07E6   3C00           04061         MOVAI   0x00
07E7   8000           04062         CALL    _Delay1mS_1M
                      04063 ;       .line   375; "3S4SVoltmeter2.c" RES_L;          
07E8   C800           04064         BSET    _OEP1bits,4
07E9   D800           04065         BCLR    _IOP1bits,4
                      04066 ;       .line   376; "3S4SVoltmeter2.c" Delay1mS_1M(1);
07EA   3C01           04067         MOVAI   0x01
07EB   5600           04068         MOVRA   STK00
07EC   3C00           04069         MOVAI   0x00
07ED   8000           04070         CALL    _Delay1mS_1M
                      04071 ;       .line   377; "3S4SVoltmeter2.c" RES_H;
07EE   D800           04072         BCLR    _OEP1bits,4
07EF   C800           04073         BSET    _PUP1bits,4
                      04074 ;       .line   378; "3S4SVoltmeter2.c" LCD_write_byte(0x21,0);//Lcd,
07F0   3C00           04075         MOVAI   0x00
07F1   5600           04076         MOVRA   STK00
07F2   3C21           04077         MOVAI   0x21
07F3   8000           04078         CALL    _LCD_write_byte
                      04079 ;       .line   379; "3S4SVoltmeter2.c" LCD_write_byte(0xC6,0);//(--
07F4   3C00           04080         MOVAI   0x00
07F5   5600           04081         MOVRA   STK00
07F6   3CC6           04082         MOVAI   0xc6
07F7   8000           04083         CALL    _LCD_write_byte
                      04084 ;       .line   380; "3S4SVoltmeter2.c" LCD_write_byte(0x20,0);//
07F8   3C00           04085         MOVAI   0x00
07F9   5600           04086         MOVRA   STK00
07FA   3C20           04087         MOVAI   0x20
07FB   8000           04088         CALL    _LCD_write_byte
                      04089 ;       .line   381; "3S4SVoltmeter2.c" LCD_write_byte(0x0C,0);//
07FC   3C00           04090         MOVAI   0x00
07FD   5600           04091         MOVRA   STK00
07FE   3C0C           04092         MOVAI   0x0c
07FF   8000           04093         CALL    _LCD_write_byte
0800   000C           04094         RETURN  
                      04095 ; exit point of _LCD_init
                      04096 
                      04097 ;***
                      04098 ;  pBlock Stats: dbName = C
                      04099 ;***
                      04100 ;entry:  _LCD_write_byte        ;Function start
                      04101 ; 2 exit points
                      04102 ;has an exit
                      04103 ;3 compiler assigned registers:
                      04104 ;   r0x104E
                      04105 ;   STK00
                      04106 ;   r0x104F
                      04107 ;; Starting pCode block
0801                  04108 _LCD_write_byte ;Function start
                      04109 ; 2 exit points
                      04110 ;       .line   343; "3S4SVoltmeter2.c" void LCD_write_byte(unsigned char dt, unsigned char command)
0801   5600           04111         MOVRA   r0x104E
0802   5800           04112         MOVAR   STK00
0803   5600           04113         MOVRA   r0x104F
                      04114 ;       .line   346; "3S4SVoltmeter2.c" SCE_L;
0804   CE00           04115         BSET    _OEP1bits,7
0805   DE00           04116         BCLR    _IOP1bits,7
                      04117 ;       .line   347; "3S4SVoltmeter2.c" if(command)
0806   3C00           04118         MOVAI   0x00
0807   5C00           04119         ORAR    r0x104F
0808   F587           04120         JBCLR   PFLAG,2
0809   A000           04121         GOTO    _00192_DS_
                      04122 ;       .line   348; "3S4SVoltmeter2.c" { DC_H;}
080A   D000           04123         BCLR    _OEP0bits,0
080B   C000           04124         BSET    _PUP0bits,0
080C   A000           04125         GOTO    _00206_DS_
080D                  04126 _00192_DS_
                      04127 ;       .line   350; "3S4SVoltmeter2.c" { DC_L;}        
080D   C000           04128         BSET    _OEP0bits,0
080E   D000           04129         BCLR    _IOP0bits,0
080F                  04130 _00206_DS_
                      04131 ;       .line   351; "3S4SVoltmeter2.c" for(i=0;i<8;i++)
080F   7600           04132         CLRR    r0x104F
                      04133 ;;unsigned compare: left < lit(0x8=8), size=1
0810                  04134 _00197_DS_
0810   3C08           04135         MOVAI   0x08
0811   4800           04136         RSUBAR  r0x104F
0812   F187           04137         JBCLR   PFLAG,0
0813   A000           04138         GOTO    _00200_DS_
                      04139 ;;genSkipc:3195: created from rifx:00DE608C
                      04140 ;       .line   353; "3S4SVoltmeter2.c" if(dt&0x80)
0814   EE00           04141         JBSET   r0x104E,7
0815   A000           04142         GOTO    _00195_DS_
                      04143 ;       .line   354; "3S4SVoltmeter2.c" {SDIN_H;}
0816   D600           04144         BCLR    _OEP0bits,3
0817   C600           04145         BSET    _PUP0bits,3
0818   A000           04146         GOTO    _00196_DS_
0819                  04147 _00195_DS_
                      04148 ;       .line   356; "3S4SVoltmeter2.c" {SDIN_L;}
0819   C600           04149         BSET    _OEP0bits,3
081A   D600           04150         BCLR    _IOP0bits,3
081B                  04151 _00196_DS_
                      04152 ;       .line   357; "3S4SVoltmeter2.c" dt=dt<<1;               
081B   D187           04153         BCLR    PFLAG,0
081C   5200           04154         RLR     r0x104E
                      04155 ;       .line   358; "3S4SVoltmeter2.c" SCLK_L;
081D   C800           04156         BSET    _OEP0bits,4
081E   D800           04157         BCLR    _IOP0bits,4
                      04158 ;       .line   359; "3S4SVoltmeter2.c" Nop();          
081F   0000           04159         nop
                      04160 ;       .line   360; "3S4SVoltmeter2.c" SCLK_H; 
0820   D800           04161         BCLR    _OEP0bits,4
0821   C800           04162         BSET    _PUP0bits,4
                      04163 ;       .line   351; "3S4SVoltmeter2.c" for(i=0;i<8;i++)
0822   6600           04164         INCR    r0x104F
0823   A000           04165         GOTO    _00197_DS_
0824                  04166 _00200_DS_
                      04167 ;       .line   362; "3S4SVoltmeter2.c" DC_H;   
0824   D000           04168         BCLR    _OEP0bits,0
0825   C000           04169         BSET    _PUP0bits,0
                      04170 ;       .line   363; "3S4SVoltmeter2.c" SCE_H;  
0826   DE00           04171         BCLR    _OEP1bits,7
0827   CE00           04172         BSET    _PUP1bits,7
                      04173 ;       .line   364; "3S4SVoltmeter2.c" SDIN_H;
0828   D600           04174         BCLR    _OEP0bits,3
0829   C600           04175         BSET    _PUP0bits,3
082A   000C           04176         RETURN  
                      04177 ; exit point of _LCD_write_byte
                      04178 
                      04179 ;***
                      04180 ;  pBlock Stats: dbName = C
                      04181 ;***
                      04182 ;entry:  _EEPROM_Write  ;Function start
                      04183 ; 2 exit points
                      04184 ;has an exit
                      04185 ;1 compiler assigned register :
                      04186 ;   STK00
                      04187 ;; Starting pCode block
082B                  04188 _EEPROM_Write   ;Function start
                      04189 ; 2 exit points
                      04190 ;       .line   321; "3S4SVoltmeter2.c" void                            EEPROM_Write(uchar      Address,uchar   Data)//EEPROM
082B   5600           04191         MOVRA   _EEAR
082C   5800           04192         MOVAR   STK00
082D   5600           04193         MOVRA   _EEDR
                      04194 ;       .line   325; "3S4SVoltmeter2.c" EEPROM_EEMASK_Set;//
082E   3C5A           04195         MOVAI   0x5a
082F   5600           04196         MOVRA   _EEMASK
0830   3CA5           04197         MOVAI   0xa5
0831   5600           04198         MOVRA   _EEMASK
                      04199 ;       .line   326; "3S4SVoltmeter2.c" EEPROM_Write_Data;//
0832   CC00           04200         BSET    _EECRbits,6
                      04201 ;       .line   327; "3S4SVoltmeter2.c" EEPROM_Start_Run;//EEPROM
0833   CE00           04202         BSET    _EECRbits,7
                      04203 ;       .line   328; "3S4SVoltmeter2.c" Nop();
0834   0000           04204         nop
                      04205 ;       .line   329; "3S4SVoltmeter2.c" Nop();
0835   0000           04206         nop
                      04207 ;       .line   330; "3S4SVoltmeter2.c" Nop();
0836   0000           04208         nop
                      04209 ;       .line   331; "3S4SVoltmeter2.c" Nop();
0837   0000           04210         nop
                      04211 ;       .line   332; "3S4SVoltmeter2.c" Nop();//                                                                                                                                                            
0838   0000           04212         nop
0839   000C           04213         RETURN  
                      04214 ; exit point of _EEPROM_Write
                      04215 
                      04216 ;***
                      04217 ;  pBlock Stats: dbName = C
                      04218 ;***
                      04219 ;entry:  _EEPROM_Read   ;Function start
                      04220 ; 2 exit points
                      04221 ;has an exit
                      04222 ;1 compiler assigned register :
                      04223 ;   r0x103D
                      04224 ;; Starting pCode block
083A                  04225 _EEPROM_Read    ;Function start
                      04226 ; 2 exit points
                      04227 ;       .line   304; "3S4SVoltmeter2.c" uchar      EEPROM_Read(uchar    Address)//EEPROM
083A   5600           04228         MOVRA   _EEAR
                      04229 ;       .line   308; "3S4SVoltmeter2.c" EEPROM_EEMASK_Set;//                   
083B   3C5A           04230         MOVAI   0x5a
083C   5600           04231         MOVRA   _EEMASK
083D   3CA5           04232         MOVAI   0xa5
083E   5600           04233         MOVRA   _EEMASK
                      04234 ;       .line   309; "3S4SVoltmeter2.c" EEPROM_Read_Data;//
083F   DC00           04235         BCLR    _EECRbits,6
                      04236 ;       .line   310; "3S4SVoltmeter2.c" EEPROM_Start_Run;//EEPROM
0840   CE00           04237         BSET    _EECRbits,7
                      04238 ;       .line   311; "3S4SVoltmeter2.c" Nop();
0841   0000           04239         nop
                      04240 ;       .line   312; "3S4SVoltmeter2.c" Nop();
0842   0000           04241         nop
                      04242 ;       .line   313; "3S4SVoltmeter2.c" Nop();
0843   0000           04243         nop
                      04244 ;       .line   314; "3S4SVoltmeter2.c" Nop();
0844   0000           04245         nop
                      04246 ;       .line   315; "3S4SVoltmeter2.c" Nop();//    
0845   0000           04247         nop
                      04248 ;       .line   316; "3S4SVoltmeter2.c" EEPROM_Data_Temp=EEPROM_EEDR_Data;      
0846   5800           04249         MOVAR   _EEDR
0847   5600           04250         MOVRA   r0x103D
                      04251 ;       .line   317; "3S4SVoltmeter2.c" return EEPROM_Data_Temp;        
0848   5800           04252         MOVAR   r0x103D
0849   000C           04253         RETURN  
                      04254 ; exit point of _EEPROM_Read
                      04255 
                      04256 
                      04257 ;       code size estimation:
                      04258 ;        2093+    0 =  2093 instructions ( 4186 byte)
                      04259 
                      04260         end
gpasm-2.0.0_beta2 (Nov  6 2017)3S4SVoltmeter2.asm 2018-5-29  13:34:37          PAGE  2


SYMBOL TABLE
  LABEL                             VALUE

ADCR0                             000001B8
ADCR1                             000001B9
ADIOS0                            000001BC
ADIOS1                            000001BD
ADRH                              000001BA
ADRL                              000001BB
EEAR                              000001B6
EECR                              000001B4
EEDR                              000001B7
EEMASK                            000001B5
END_OF_INTERRUPT                  00000012
FSR0                              00000184
FSR1                              00000185
HIBYTE                            00000183
IICCR                             000001B0
IICDR                             000001B2
IICSR                             000001B1
INDF0                             00000180
INDF1                             00000181
INDF2                             00000182
INDF3                             00000189
INTE                              0000018A
INTE1                             0000018D
INTF                              0000018B
INTF1                             0000018E
IOP0                              00000190
IOP1                              00000194
IOP2                              00000198
KBCR                              0000018F
MCR                               00000188
OEP0                              00000191
OEP1                              00000195
OEP2                              00000199
OSADJCR                           000001BE
OSCM                              0000018C
PCL                               00000186
PDP0                              00000193
PDP1                              00000197
PDP2                              0000019B
PFLAG                             00000187
PUP0                              00000192
PUP1                              00000196
PUP2                              0000019A
SADDR                             000001CA
SADEN                             000001CB
SBUF                              000001C9
SCON                              000001C8
STK00                             00000006
STK01                             00000005
STK02                             00000004
STK03                             00000003
STK04                             00000002
STK05                             00000001
STK06                             00000000
T0CNT                             000001A1
T0CR                              000001A0
T0DATA                            000001A3
T0LOAD                            000001A2
T1CNTH                            000001A9
T1CNTL                            000001AA
T1CR                              000001A8
T1DATAH                           000001AD
T1DATAL                           000001AE
T1LOADH                           000001AB
T1LOADL                           000001AC
T2CNTH                            000001C1
T2CNTL                            000001C2
T2CR                              000001C0
T2LOADH                           000001C3
T2LOADL                           000001C4
T3CNT                             000001C6
T3CR                              000001C5
T3LOAD                            000001C7
_00106_DS_                        0000001E
_00112_DS_                        00000028
_00114_DS_                        0000004B
_00116_DS_                        00000127
_00118_DS_                        00000125
_00119_DS_                        00000148
_00130_DS_                        000002B2
_00168_DS_                        0000003A
_00169_DS_                        00000042
_00171_DS_                        000000EB
_00172_DS_                        000000F3
_00173_DS_                        000000FB
_00174_DS_                        00000103
_00175_DS_                        0000010B
_00176_DS_                        00000113
_00177_DS_                        0000011B
_00178_DS_                        00000123
_00192_DS_                        0000080D
_00195_DS_                        00000819
_00196_DS_                        0000081B
_00197_DS_                        00000810
_00200_DS_                        00000824
_00206_DS_                        0000080F
_00219_DS_                        000007C4
_00223_DS_                        000007BF
_00225_DS_                        000007CF
_00227_DS_                        000007D1
_00232_DS_                        0000079D
_00235_DS_                        000007B8
_00240_DS_                        00000749
_00243_DS_                        00000764
_00244_DS_                        0000076C
_00248_DS_                        00000787
_00254_DS_                        0000070B
_00264_DS_                        0000071E
_00275_DS_                        0000071F
_00280_DS_                        0000059C
_00326_DS_                        000005CA
_00327_DS_                        000005D2
_00328_DS_                        000005DA
_00329_DS_                        000005E2
_00330_DS_                        000005EA
_00331_DS_                        000005F2
_00332_DS_                        000005FA
_00333_DS_                        00000602
_00334_DS_                        0000060A
_00335_DS_                        00000612
_00341_DS_                        0000041F
_00344_DS_                        00000422
_00345_DS_                        00000430
_00347_DS_                        00000450
_00350_DS_                        00000453
_00351_DS_                        00000461
_00353_DS_                        00000481
_00356_DS_                        00000484
_00357_DS_                        00000492
_00359_DS_                        000004C7
_00362_DS_                        000004CA
_00365_DS_                        0000050C
_00368_DS_                        0000050F
_00371_DS_                        000004EC
_00372_DS_                        0000051D
_00374_DS_                        00000539
_00375_DS_                        0000053B
_00377_DS_                        0000055B
_00378_DS_                        0000055D
_00380_DS_                        00000576
_00383_DS_                        00000596
_00388_DS_                        00000579
_00390_DS_                        00000598
_00426_DS_                        00000405
_00427_DS_                        00000416
_00428_DS_                        00000436
_00429_DS_                        00000447
_00430_DS_                        00000467
_00431_DS_                        00000478
_00432_DS_                        0000049A
_00433_DS_                        000004BE
_00434_DS_                        000004F2
_00435_DS_                        00000503
_00436_DS_                        0000052E
_00437_DS_                        00000550
_00438_DS_                        0000056B
_00439_DS_                        0000058B
_00444_DS_                        00000391
_00447_DS_                        000003AA
_00454_DS_                        000003A9
_00455_DS_                        000003B9
_00457_DS_                        000003A4
_00459_DS_                        000003C7
_00466_DS_                        000003C6
_00467_DS_                        000003D6
_00469_DS_                        000003C1
_00472_DS_                        000003BE
_00475_DS_                        000003DB
_00488_DS_                        000002E1
_00491_DS_                        000002ED
_00497_DS_                        00000324
_00500_DS_                        00000317
_00501_DS_                        00000330
_00502_DS_                        000002DC
_00506_DS_                        000002E8
_00509_DS_                        00000339
_00526_DS_                        000002E6
_00540_DS_                        0000031D
_00541_DS_                        0000032A
_00546_DS_                        000002BE
_00549_DS_                        000002C5
_00550_DS_                        000002B8
_00554_DS_                        000002CB
_00560_DS_                        0000000E
_ABuf                             00000000
_ADCR0                            00000000
_ADCR0bits                        00000000
_ADCR1                            00000000
_ADCR1bits                        00000000
_ADC_Ratio_Inter_JI               00000000
_ADC_Value_Ratio                  00000599
_ADH_temp                         00000000
_ADIOS0                           00000000
_ADIOS0bits                       00000000
_ADIOS1                           00000000
_ADIOS1bits                       00000000
_ADL_temp                         00000000
_ADRH                             00000000
_ADRHbits                         00000000
_ADRL                             00000000
_ADRLbits                         00000000
_AD_Init                          00000000
_AD_Init_mode                     00000388
_All_Adc_Convert                  000003DC
_B1_Ratio_VIN_AD                  00000000
_B1_Single_VIN_AD                 00000000
_B1_VIN_AD                        00000000
_B2_Ratio_VIN_AD                  00000000
_B2_Single_VIN_AD                 00000000
_B2_VIN_AD                        00000000
_B3_Ratio_VIN_AD                  00000000
_B3_Single_VIN_AD                 00000000
_B3_VIN_AD                        00000000
_BT_Ratio_VIN_AD                  00000000
_BT_Single_VIN_AD                 00000000
_BT_VIN_AD                        00000000
_CONFIG0                          00008000
_CONFIG1                          00008001
_Data_OSADJCR                     00000000
_Delay1mS_1M                      000002B5
_EEAR                             00000000
_EEARbits                         00000000
_EECR                             00000000
_EECRbits                         00000000
_EEDR                             00000000
_EEDRbits                         00000000
_EEMASK                           00000000
_EEMASKbits                       00000000
_EEPROM_Data_Value                00000000
_EEPROM_Read                      0000083A
_EEPROM_Write                     0000082B
_FSR0                             00000000
_FSR0bits                         00000000
_FSR1                             00000000
_FSR1bits                         00000000
_Flag1                            00000000
_HIBYTE                           00000000
_HIBYTEbits                       00000000
_IICCR                            00000000
_IICCRbits                        00000000
_IICDR                            00000000
_IICDRbits                        00000000
_IICSR                            00000000
_IICSRbits                        00000000
_INDF0                            00000000
_INDF0bits                        00000000
_INDF1                            00000000
_INDF1bits                        00000000
_INDF2                            00000000
_INDF2bits                        00000000
_INDF3                            00000000
_INDF3bits                        00000000
_INTE                             00000000
_INTE1                            00000000
_INTE1bits                        00000000
_INTEbits                         00000000
_INTF                             00000000
_INTF1                            00000000
_INTF1bits                        00000000
_INTFbits                         00000000
_IOP0                             00000000
_IOP0bits                         00000000
_IOP1                             00000000
_IOP1bits                         00000000
_IOP2                             00000000
_IOP2bits                         00000000
_IO_AD                            00000000
_InitRam                          00000379
_KBCR                             00000000
_KBCRbits                         00000000
_LCD_clear                        000007BA
_LCD_init                         000007E0
_LCD_set_XY                       000007D2
_LCD_write_byte                   00000801
_LCD_write_hanzi                  00000733
_LCD_write_shu57                  00000788
_LooP_JI                          00000000
_MCR                              00000000
_MCRbits                          00000000
_NTC_AD                           00000000
_OEP0                             00000000
_OEP0bits                         00000000
_OEP1                             00000000
_OEP1bits                         00000000
_OEP2                             00000000
_OEP2bits                         00000000
_OSADJCR                          00000000
_OSADJCRbits                      00000000
_OSCM                             00000000
_OSCMbits                         00000000
_PCL                              00000000
_PCLbits                          00000000
_PDP0                             00000000
_PDP0bits                         00000000
_PDP1                             00000000
_PDP1bits                         00000000
_PDP2                             00000000
_PDP2bits                         00000000
_PFLAG                            00000000
_PFLAGbits                        00000000
_PUP0                             00000000
_PUP0bits                         00000000
_PUP1                             00000000
_PUP1bits                         00000000
_PUP2                             00000000
_PUP2bits                         00000000
_Ratio_Flag1_A5                   00000000
_Ratio_Flag2_CA                   00000000
_Read_EEPROM_Temp_H               00000000
_Read_EEPROM_Temp_L               00000000
_SADDR                            00000000
_SADDRbits                        00000000
_SADEN                            00000000
_SADENbits                        00000000
_SBUF                             00000000
_SBUFbits                         00000000
_SCON                             00000000
_SCONbits                         00000000
_SEC_VIN_AD                       00000000
_SampleRelatedChannel             000002CC
_StatusBuf                        00000000
_T0CNT                            00000000
_T0CNTbits                        00000000
_T0CR                             00000000
_T0CRbits                         00000000
_T0DATA                           00000000
_T0DATAbits                       00000000
_T0LOAD                           00000000
_T0LOADbits                       00000000
_T1CNTH                           00000000
_T1CNTHbits                       00000000
_T1CNTL                           00000000
_T1CNTLbits                       00000000
_T1CR                             00000000
_T1CRbits                         00000000
_T1DATAH                          00000000
_T1DATAHbits                      00000000
_T1DATAL                          00000000
_T1DATALbits                      00000000
_T1LOADH                          00000000
_T1LOADHbits                      00000000
_T1LOADL                          00000000
_T1LOADLbits                      00000000
_T2CNTH                           00000000
_T2CNTHbits                       00000000
_T2CNTL                           00000000
_T2CNTLbits                       00000000
_T2CR                             00000000
_T2CRbits                         00000000
_T2LOADH                          00000000
_T2LOADHbits                      00000000
_T2LOADL                          00000000
_T2LOADLbits                      00000000
_T3CNT                            00000000
_T3CNTbits                        00000000
_T3CR                             00000000
_T3CRbits                         00000000
_T3LOAD                           00000000
_T3LOADbits                       00000000
__7333                            00000001
__gptrget1                        00000000
__mulchar                         00000000
__mulint                          00000000
__sdcc_interrupt                  00000008
_code_3S4SVoltmeter2_037F         0000037F
_code_3S4SVoltmeter2_0385         00000385
_hanzi                            00000000
_initial                          00000358
_int_isr                          00000008
_main                             00000000
_shuzi57                          00000000
r0x1027                           0000003D
r0x1028                           0000003C
r0x1029                           0000003E
r0x102A                           0000002F
r0x102B                           00000030
r0x102C                           00000031
r0x102D                           00000032
r0x102E                           00000033
r0x102F                           00000034
r0x1030                           00000035
r0x1031                           00000036
r0x1032                           00000037
r0x1033                           00000038
r0x1034                           00000039
r0x1035                           0000003B
r0x1036                           0000003A
r0x1037                           00000029
r0x1038                           0000002A
r0x1039                           0000002B
r0x103A                           0000002C
r0x103B                           0000002E
r0x103C                           0000002D
r0x103D                           00000006
r0x103E                           00000019
r0x103F                           0000001A
r0x1040                           0000001B
r0x1041                           0000001C
r0x1042                           0000001D
r0x1043                           0000001E
r0x1044                           00000020
r0x1045                           0000001F
r0x1046                           00000021
r0x1047                           00000022
r0x1048                           00000023
r0x1049                           00000024
r0x104A                           00000025
r0x104B                           00000026
r0x104C                           00000027
r0x104D                           00000028
r0x104E                           00000007
r0x104F                           00000008
r0x1050                           00000009
r0x1051                           0000000A
r0x1052                           00000012
r0x1053                           00000013
r0x1054                           00000014
r0x1055                           00000015
r0x1056                           00000016
r0x1057                           00000017
r0x1058                           00000018
r0x1059                           0000000D
r0x105A                           0000000E
r0x105B                           0000000F
r0x105C                           00000010
r0x105D                           00000011
r0x105E                           0000000B
r0x105F                           0000000C
r0x1060                           00000000
r0x1061                           00000001
r0x1062                           00000002
r0x1063                           00000003
r0x1064                           00000004
r0x1065                           00000005
ADCHS0                            ADCR0,4
ADCHS1                            ADCR0,5
ADCHS2                            ADCR0,6
ADCHS3                            ADCR0,7
ADCKS0                            ADCR1,4
ADCKS1                            ADCR1,5
ADEN                              ADCR0,0
ADEOC                             ADCR0,1
ADIE                              INTE,6
ADIF                              INTF,6
ADR0                              ADRL,0
ADR1                              ADRL,1
ADR10                             ADRH,6
ADR11                             ADRH,7
ADR2                              ADRL,2
ADR3                              ADRL,3
ADR4                              ADRH,0
ADR5                              ADRH,1
ADR6                              ADRH,2
ADR7                              ADRH,3
ADR8                              ADRH,4
ADR9                              ADRH,5
ADRSEL                            ADCR1,7
ADSPS0                            ADCR1,0
ADSPS1                            ADCR1,1
ADVRS0                            ADCR0,2
ADVRS1                            ADCR0,3
AN0EN                             ADIOS0,0
AN10EN                            ADIOS1,2
AN11EN                            ADIOS1,3
AN12EN                            ADIOS1,4
AN13EN                            ADIOS1,5
AN1EN                             ADIOS0,1
AN2EN                             ADIOS0,2
AN3EN                             ADIOS0,3
AN4EN                             ADIOS0,4
AN5EN                             ADIOS0,5
AN6EN                             ADIOS0,6
AN7EN                             ADIOS0,7
AN8EN                             ADIOS1,0
AN9EN                             ADIOS1,1
BUZ0OE                            T0CR,5
C                                 PFLAG,0
CLKS                              OSCM,2
DC                                PFLAG,1
EEA0                              EEAR,0
EEA1                              EEAR,1
EEA2                              EEAR,2
EEA3                              EEAR,3
EEA4                              EEAR,4
EEA5                              EEAR,5
EED0                              EEDR,0
EED1                              EEDR,1
EED2                              EEDR,2
EED3                              EEDR,3
EED4                              EEDR,4
EED5                              EEDR,5
EED6                              EEDR,6
EED7                              EEDR,7
EEMASK0                           EEMASK,0
EEMASK1                           EEMASK,1
EEMASK2                           EEMASK,2
EEMASK3                           EEMASK,3
EEMASK4                           EEMASK,4
EEMASK5                           EEMASK,5
EEMASK6                           EEMASK,6
EEMASK7                           EEMASK,7
EERW                              EECR,6
EETRIG                            EECR,7
FSR00                             FSR0,0
FSR01                             FSR0,1
FSR02                             FSR0,2
FSR03                             FSR0,3
FSR04                             FSR0,4
FSR05                             FSR0,5
FSR06                             FSR0,6
FSR07                             FSR0,7
FSR10                             FSR1,0
FSR11                             FSR1,1
FSR12                             FSR1,2
FSR13                             FSR1,3
FSR14                             FSR1,4
FSR15                             FSR1,5
FSR16                             FSR1,6
FSR17                             FSR1,7
GIE                               MCR,7
HFEN                              OSCM,0
HIBYTE0                           HIBYTE,0
HIBYTE1                           HIBYTE,1
HIBYTE2                           HIBYTE,2
HIBYTE3                           HIBYTE,3
HIBYTE4                           HIBYTE,4
HIBYTE5                           HIBYTE,5
HIBYTE6                           HIBYTE,6
HIBYTE7                           HIBYTE,7
IICACK                            IICSR,3
IICCKS0                           IICCR,4
IICCKS1                           IICCR,5
IICDR0                            IICDR,0
IICDR1                            IICDR,1
IICDR2                            IICDR,2
IICDR3                            IICDR,3
IICDR4                            IICDR,4
IICDR5                            IICDR,5
IICDR6                            IICDR,6
IICDR7                            IICDR,7
IICEN                             IICCR,7
IICIE                             INTE,5
IICIF                             INTF,5
IICIMS                            IICCR,0
IICRD                             IICSR,5
IICRDTP                           IICCR,1
IICRS                             IICCR,6
IICSTP                            IICSR,6
IICSTR                            IICSR,7
IICTYP0                           IICCR,2
IICTYP1                           IICCR,3
IICWR                             IICSR,4
INDF00                            INDF0,0
INDF01                            INDF0,1
INDF02                            INDF0,2
INDF03                            INDF0,3
INDF04                            INDF0,4
INDF05                            INDF0,5
INDF06                            INDF0,6
INDF07                            INDF0,7
INDF10                            INDF1,0
INDF11                            INDF1,1
INDF12                            INDF1,2
INDF13                            INDF1,3
INDF14                            INDF1,4
INDF15                            INDF1,5
INDF16                            INDF1,6
INDF17                            INDF1,7
INDF20                            INDF2,0
INDF21                            INDF2,1
INDF22                            INDF2,2
INDF23                            INDF2,3
INDF24                            INDF2,4
INDF25                            INDF2,5
INDF26                            INDF2,6
INDF27                            INDF2,7
INDF30                            INDF3,0
INDF31                            INDF3,1
INDF32                            INDF3,2
INDF33                            INDF3,3
INDF34                            INDF3,4
INDF35                            INDF3,5
INDF36                            INDF3,6
INDF37                            INDF3,7
INT0IE                            INTE,2
INT0IF                            INTF,2
INT1IE                            INTE,3
INT1IF                            INTF,3
INT2IE                            INTE1,2
INT2IF                            INTF1,2
INT3IE                            INTE1,3
INT3IF                            INTF1,3
KBCR0                             KBCR,0
KBCR1                             KBCR,1
KBCR2                             KBCR,2
KBCR3                             KBCR,3
KBCR4                             KBCR,4
KBCR5                             KBCR,5
KBCR6                             KBCR,6
KBCR7                             KBCR,7
KBIE                              INTE,4
KBIF                              INTF,4
LFEN                              OSCM,1
MINT00                            MCR,0
MINT01                            MCR,1
MINT10                            MCR,2
MINT11                            MCR,3
OSADJEN                           OSADJCR,7
OSADJTR0                          OSADJCR,0
OSADJTR1                          OSADJCR,1
OSADJTR2                          OSADJCR,2
OSADJTR3                          OSADJCR,3
OSADJTR4                          OSADJCR,4
OSADJTR5                          OSADJCR,5
P00D                              IOP0,0
P00OE                             OEP0,0
P00PD                             PDP0,0
P00PU                             PUP0,0
P01D                              IOP0,1
P01OE                             OEP0,1
P01PD                             PDP0,1
P01PU                             PUP0,1
P02D                              IOP0,2
P02OE                             OEP0,2
P02PD                             PDP0,2
P02PU                             PUP0,2
P03D                              IOP0,3
P03OE                             OEP0,3
P03PD                             PDP0,3
P03PU                             PUP0,3
P04D                              IOP0,4
P04OE                             OEP0,4
P04PD                             PDP0,4
P04PU                             PUP0,4
P05D                              IOP0,5
P05OE                             OEP0,5
P05PD                             PDP0,5
P05PU                             PUP0,5
P06D                              IOP0,6
P06OE                             OEP0,6
P06PD                             PDP0,6
P06PU                             PUP0,6
P07D                              IOP0,7
P07OE                             OEP0,7
P07PD                             PDP0,7
P07PU                             PUP0,7
P10D                              IOP1,0
P10OE                             OEP1,0
P10PD                             PDP1,0
P10PU                             PUP1,0
P11D                              IOP1,1
P11OE                             OEP1,1
P11PD                             PDP1,1
P11PU                             PUP1,1
P12D                              IOP1,2
P12OE                             OEP1,2
P12PD                             PDP1,2
P12PU                             PUP1,2
P13D                              IOP1,3
P13OE                             OEP1,3
P13PD                             PDP1,3
P13PU                             PUP1,3
P14D                              IOP1,4
P14OE                             OEP1,4
P14PD                             PDP1,4
P14PU                             PUP1,4
P15D                              IOP1,5
P15OE                             OEP1,5
P15PD                             PDP1,5
P15PU                             PUP1,5
P16D                              IOP1,6
P16OE                             OEP1,6
P16PD                             PDP1,6
P16PU                             PUP1,6
P17D                              IOP1,7
P17OE                             OEP1,7
P17PD                             PDP1,7
P17PU                             PUP1,7
P20D                              IOP2,0
P20OE                             OEP2,0
P20PD                             PDP2,0
P20PU                             PUP2,0
P21D                              IOP2,1
P21OE                             OEP2,1
P21PD                             PDP2,1
P21PU                             PUP2,1
P22D                              IOP2,2
P22OE                             OEP2,2
P22PD                             PDP2,2
P22PU                             PUP2,2
P23D                              IOP2,3
P23OE                             OEP2,3
P23PD                             PDP2,3
P23PU                             PUP2,3
P24D                              IOP2,4
P24OE                             OEP2,4
P24PD                             PDP2,4
P24PU                             PUP2,4
P25D                              IOP2,5
P25OE                             OEP2,5
P25PD                             PDP2,5
P25PU                             PUP2,5
PC0                               PCL,0
PC1                               PCL,1
PC2                               PCL,2
PC3                               PCL,3
PC4                               PCL,4
PC5                               PCL,5
PC6                               PCL,6
PC7                               PCL,7
PD                                MCR,4
PWM0OE                            T0CR,6
PWM1OE                            T1CR,6
RACK                              IICSR,1
RB8                               SCON,2
REN                               SCON,4
RI                                SCON,0
SACK                              IICSR,2
SADDR0                            SADDR,0
SADDR1                            SADDR,1
SADDR2                            SADDR,2
SADDR3                            SADDR,3
SADDR4                            SADDR,4
SADDR5                            SADDR,5
SADDR6                            SADDR,6
SADDR7                            SADDR,7
SADEN0                            SADEN,0
SADEN1                            SADEN,1
SADEN2                            SADEN,2
SADEN3                            SADEN,3
SADEN4                            SADEN,4
SADEN5                            SADEN,5
SADEN6                            SADEN,6
SADEN7                            SADEN,7
SBUF0                             SBUF,0
SBUF1                             SBUF,1
SBUF2                             SBUF,2
SBUF3                             SBUF,3
SBUF4                             SBUF,4
SBUF5                             SBUF,5
SBUF6                             SBUF,6
SBUF7                             SBUF,7
SM0                               SCON,7
SM1                               SCON,6
SM2                               SCON,5
SMOD                              T2CR,6
SSTAT                             T2CR,5
STATUS                            PFLAG
STBH                              OSCM,4
STBL                              OSCM,5
T0CKS0                            T0CR,3
T0CKS1                            T0CR,4
T0CNT0                            T0CNT,0
T0CNT1                            T0CNT,1
T0CNT2                            T0CNT,2
T0CNT3                            T0CNT,3
T0CNT4                            T0CNT,4
T0CNT5                            T0CNT,5
T0CNT6                            T0CNT,6
T0CNT7                            T0CNT,7
T0DATA0                           T0DATA,0
T0DATA1                           T0DATA,1
T0DATA2                           T0DATA,2
T0DATA3                           T0DATA,3
T0DATA4                           T0DATA,4
T0DATA5                           T0DATA,5
T0DATA6                           T0DATA,6
T0DATA7                           T0DATA,7
T0EN                              T0CR,7
T0IE                              INTE,0
T0IF                              INTF,0
T0LOAD0                           T0LOAD,0
T0LOAD1                           T0LOAD,1
T0LOAD2                           T0LOAD,2
T0LOAD3                           T0LOAD,3
T0LOAD4                           T0LOAD,4
T0LOAD5                           T0LOAD,5
T0LOAD6                           T0LOAD,6
T0LOAD7                           T0LOAD,7
T0PRS0                            T0CR,0
T0PRS1                            T0CR,1
T0PRS2                            T0CR,2
T1CKS0                            T1CR,3
T1CKS1                            T1CR,4
T1CNT0                            T1CNTL,0
T1CNT1                            T1CNTL,1
T1CNT10                           T1CNTH,2
T1CNT11                           T1CNTH,3
T1CNT12                           T1CNTH,4
T1CNT13                           T1CNTH,5
T1CNT14                           T1CNTH,6
T1CNT15                           T1CNTH,7
T1CNT2                            T1CNTL,2
T1CNT3                            T1CNTL,3
T1CNT4                            T1CNTL,4
T1CNT5                            T1CNTL,5
T1CNT6                            T1CNTL,6
T1CNT7                            T1CNTL,7
T1CNT8                            T1CNTH,0
T1CNT9                            T1CNTH,1
T1DATA0                           T1DATAL,0
T1DATA1                           T1DATAL,1
T1DATA10                          T1DATAH,2
T1DATA11                          T1DATAH,3
T1DATA12                          T1DATAH,4
T1DATA13                          T1DATAH,5
T1DATA14                          T1DATAH,6
T1DATA15                          T1DATAH,7
T1DATA2                           T1DATAL,2
T1DATA3                           T1DATAL,3
T1DATA4                           T1DATAL,4
T1DATA5                           T1DATAL,5
T1DATA6                           T1DATAL,6
T1DATA7                           T1DATAL,7
T1DATA8                           T1DATAH,0
T1DATA9                           T1DATAH,1
T1EN                              T1CR,7
T1IE                              INTE,1
T1IF                              INTF,1
T1LOAD0                           T1LOADL,0
T1LOAD1                           T1LOADL,1
T1LOAD10                          T1LOADH,2
T1LOAD11                          T1LOADH,3
T1LOAD12                          T1LOADH,4
T1LOAD13                          T1LOADH,5
T1LOAD14                          T1LOADH,6
T1LOAD15                          T1LOADH,7
T1LOAD2                           T1LOADL,2
T1LOAD3                           T1LOADL,3
T1LOAD4                           T1LOADL,4
T1LOAD5                           T1LOADL,5
T1LOAD6                           T1LOADL,6
T1LOAD7                           T1LOADL,7
T1LOAD8                           T1LOADH,0
T1LOAD9                           T1LOADH,1
T1PRS0                            T1CR,0
T1PRS1                            T1CR,1
T1PRS2                            T1CR,2
T2CKS0                            T2CR,3
T2CKS1                            T2CR,4
T2CNT0                            T2CNTL,0
T2CNT1                            T2CNTL,1
T2CNT10                           T2CNTH,2
T2CNT11                           T2CNTH,3
T2CNT12                           T2CNTH,4
T2CNT13                           T2CNTH,5
T2CNT14                           T2CNTH,6
T2CNT15                           T2CNTH,7
T2CNT2                            T2CNTL,2
T2CNT3                            T2CNTL,3
T2CNT4                            T2CNTL,4
T2CNT5                            T2CNTL,5
T2CNT6                            T2CNTL,6
T2CNT7                            T2CNTL,7
T2CNT8                            T2CNTH,0
T2CNT9                            T2CNTH,1
T2EN                              T2CR,7
T2IE                              INTE1,0
T2IF                              INTF1,0
T2LOAD0                           T2LOADL,0
T2LOAD1                           T2LOADL,1
T2LOAD10                          T2LOADH,2
T2LOAD11                          T2LOADH,3
T2LOAD12                          T2LOADH,4
T2LOAD13                          T2LOADH,5
T2LOAD14                          T2LOADH,6
T2LOAD15                          T2LOADH,7
T2LOAD2                           T2LOADL,2
T2LOAD3                           T2LOADL,3
T2LOAD4                           T2LOADL,4
T2LOAD5                           T2LOADL,5
T2LOAD6                           T2LOADL,6
T2LOAD7                           T2LOADL,7
T2LOAD8                           T2LOADH,0
T2LOAD9                           T2LOADH,1
T2PRS0                            T2CR,0
T2PRS1                            T2CR,1
T2PRS2                            T2CR,2
T3CKS0                            T3CR,3
T3CKS1                            T3CR,4
T3CNT0                            T3CNT,0
T3CNT1                            T3CNT,1
T3CNT2                            T3CNT,2
T3CNT3                            T3CNT,3
T3CNT4                            T3CNT,4
T3CNT5                            T3CNT,5
T3CNT6                            T3CNT,6
T3CNT7                            T3CNT,7
T3EN                              T3CR,7
T3IE                              INTE1,1
T3IF                              INTF1,1
T3LOAD0                           T3LOAD,0
T3LOAD1                           T3LOAD,1
T3LOAD2                           T3LOAD,2
T3LOAD3                           T3LOAD,3
T3LOAD4                           T3LOAD,4
T3LOAD5                           T3LOAD,5
T3LOAD6                           T3LOAD,6
T3LOAD7                           T3LOAD,7
T3PRS0                            T3CR,0
T3PRS1                            T3CR,1
T3PRS2                            T3CR,2
TB8                               SCON,3
TI                                SCON,1
TO                                MCR,5
UARTIE                            INTE,7
UARTIF                            INTF,7
Z                                 PFLAG,2

Errors   :     0
Warnings :     0 reported,     0 suppressed
Messages :     0 reported,     0 suppressed

