gplink-2.0.0_beta2 (Jun 23 2017)
Listing File Generated: 2017-6-23  16:57:03
 
 
Address  Value    Disassembly              Source
-------  -----    -----------              ------
                                           ;--------------------------------------------------------
                                           ; File Created by SN-SDCC : ANSI-C Compiler
                                           ; Version 0.0.5 (Jun 22 2017) (MINGW32)
                                           ; This file was generated Fri Jun 23 16:57:03 2017
                                           ;--------------------------------------------------------
                                           ; MC3X port for the RISC core
                                           ;--------------------------------------------------------
                                           ;	.file	"HT_Leds.c"
                                           	list	p=6060
                                           	radix dec
                                           	include "6060.inc"
                                                   
                                           ;MC30P6060.INC  Standard Header File, Version 1.00 by Sinomcu
                                                   
                                           
                                           
                                           ;==========================================================================
                                           ;
                                           ;       Revision History
                                           ;
                                           ;==========================================================================
                                           
                                           ;Rev:   Date:    Reason:
                                           
                                           ;1.00   12/06/21 Initial Release
                                           
                                           ;==========================================================================
                                           ;
                                           ;       Verify Processor
                                           ;
                                           ;==========================================================================
                                           ;==========================================================================
                                           ;
                                           ;       Register Definitions
                                           ;
                                           ;==========================================================================
                                           
                                           ;----- Register Files------------------------------------------------------
                                           
                                           INDF                         EQU     H'0000'
                                           T0CNT                        EQU     H'0001'
                                           PCL                          EQU     H'0002'
                                           STATUS                       EQU     H'0003'
                                           FSR                          EQU     H'0004'
                                           P0                           EQU     H'0005'
                                           P1                           EQU     H'0006'
                                           MCR                          EQU     H'0008'
                                           KBIM                         EQU     H'0009'
                                           PCLATH                       EQU     H'000A'
                                           PDCON                        EQU     H'000B'
                                           ODCON                        EQU     H'000C'
                                           PUCON                        EQU     H'000D'
                                           INTECON                      EQU     H'000E'
                                           INTFLAG                      EQU     H'000F'
                                           T0CR                         EQU     H'0041'
                                           DDR0                         EQU     H'0045'
                                           DDR1         	               EQU     H'0046'
                                           PWMCR                        EQU     H'0048'
                                           T1DATA1                      EQU     H'0049'
                                           T1DATA2                   	 EQU     H'004A'
                                           TM0CR                        EQU     H'004B'
                                           T1CR                         EQU     H'004C'
                                           T1CNT                        EQU     H'004D'
                                           T1LOAD                       EQU     H'004E'
                                           T1DATA0                      EQU     H'004F'
                                           
                                           ;INDF 
                                           #define         INDF7          INDF,7
                                           #define         INDF6          INDF,6
                                           #define         INDF5          INDF,5
                                           #define         INDF4          INDF,4
                                           #define         INDF3          INDF,3
                                           #define         INDF2          INDF,2
                                           #define         INDF1          INDF,1
                                           #define         INDF0          INDF,0
                                           
                                           ;T0CNT 
                                           #define         T0C7           T0CNT,7
                                           #define         T0C6           T0CNT,6
                                           #define         T0C5           T0CNT,5
                                           #define         T0C4           T0CNT,4
                                           #define         T0C3           T0CNT,3
                                           #define         T0C2           T0CNT,2
                                           #define         T0C1           T0CNT,1
                                           #define         T0C0           T0CNT,0
                                           
                                           ;PCL 
                                           #define         PC7             PCL,7
                                           #define         PC6             PCL,6
                                           #define         PC5             PCL,5
                                           #define         PC4             PCL,4
                                           #define         PC3             PCL,3
                                           #define         PC2             PCL,2
                                           #define         PC1             PCL,1
                                           #define         PC0             PCL,0
                                           
                                           ;----- STATUS Bits --------------------------------------------------------
                                           #define	RST	STATUS,7
                                           #define	TO	STATUS,4
                                           #define	PD	STATUS,3
                                           #define	Z	  STATUS,2
                                           #define	DC	STATUS,1
                                           #define	C	  STATUS,0
                                           
                                           ;FSR 
                                           #define         FSR5           FSR,5
                                           #define         FSR4           FSR,4
                                           #define         FSR3           FSR,3
                                           #define         FSR2           FSR,2
                                           #define         FSR1           FSR,1
                                           #define         FSR0           FSR,0
                                           
                                           ;P0 
                                           #define         P03D           P0,3
                                           #define         P02D           P0,2
                                           #define         P01D           P0,1
                                           #define         P00D           P0,0
                                           
                                           ;P1 
                                           #define         P17D           P1,7
                                           #define         P16D           P1,6
                                           #define         P15D           P1,5
                                           #define         P14D           P1,4
                                           #define         P13D           P1,3
                                           #define         P12D           P1,2
                                           #define         P11D           P1,1
                                           #define         P10D           P1,0
                                           
                                           ;----- MCR Bits --------------------------------------------------------
                                           #define	WDTEN	    MCR,7
                                           #define	EIS	      MCR,6
                                           #define	LVDF	    MCR,5
                                           #define	LVDSEL3	  MCR,4
                                           #define	LVDSEL2	  MCR,3
                                           #define	LVDSEL1	  MCR,2
                                           #define	LVDSEL0	  MCR,1
                                           #define	LVDEN	    MCR,0
                                           
                                           ;KBIM 
                                           #define         KBIM5           KBIM,5
                                           #define         KBIM4           KBIM,4
                                           #define         KBIM3           KBIM,3
                                           #define         KBIM2           KBIM,2
                                           #define         KBIM1           KBIM,1
                                           #define         KBIM0           KBIM,0
                                           
                                           ;----- PCLATH Bits --------------------------------------------------------
                                           #define	PCH1	  PCLATH,1
                                           #define	PCH0	  PCLATH,0
                                           
                                           ;PDCON
                                           #define         P12PD           PDCON,6
                                           #define         P11PD           PDCON,5
                                           #define         P10PD           PDCON,4
                                           #define         P03PD           PDCON,3
                                           #define         P02PD           PDCON,2
                                           #define         P01PD           PDCON,1
                                           #define         P00PD           PDCON,0
                                           
                                           ;ODCON
                                           #define         P17OD           ODCON,7
                                           #define         P16OD           ODCON,6
                                           #define         P15OD           ODCON,5
                                           #define         P14OD           ODCON,4
                                           #define         P12OD           ODCON,2
                                           #define         P11OD           ODCON,1
                                           #define         P10OD           ODCON,0
                                           
                                           ;PUCON
                                           #define         P17PU           PUCON,7
                                           #define         P16PU           PUCON,6
                                           #define         P15PU           PUCON,5
                                           #define         P14PU           PUCON,4
                                           #define         P12PU           PUCON,2
                                           #define         P11PU           PUCON,1
                                           #define         P10PU           PUCON,0
                                           
                                           ;----- INTECON Bits --------------------------------------------------------
                                           #define	INTE	  INTECON
                                           #define	GIE	    INTECON,7
                                           #define	INTIE	  INTECON,2
                                           #define	KBIE	  INTECON,1
                                           #define	T0IE	  INTECON,0
                                           
                                           ;----- INTFLAG Bits --------------------------------------------------------
                                           #define	INTF	  INTFLAG
                                           #define	INTIF	  INTF,2
                                           #define	KBIF	  INTF,1
                                           #define	T0IF	  INTF,0
                                           
                                           ;----- T0CR Bits --------------------------------------------------------
                                           #define         INT0M           T0CR,6
                                           #define         T0PTS           T0CR,5
                                           #define         T0SE            T0CR,4
                                           #define         T0PTA           T0CR,3
                                           #define         T0PR2           T0CR,2
                                           #define         T0PR1           T0CR,1
                                           #define         T0PR0           T0CR,0
                                           
                                           ;DDR0
                                           #define         DDR03           DDR0,3
                                           #define         DDR02           DDR0,2
                                           #define         DDR01           DDR0,1
                                           #define         DDR00           DDR0,0
                                           
                                           ;DDR1
                                           #define         DDR17           DDR1,7
                                           #define         DDR16           DDR1,6
                                           #define         DDR15           DDR1,5
                                           #define         DDR14           DDR1,4
                                           #define         DDR13           DDR1,3
                                           #define         DDR12           DDR1,2
                                           #define         DDR11           DDR1,1
                                           #define         DDR10           DDR1,0
                                           
                                           ;PWMCR
                                           #define         PMW0OE          PWMCR,7
                                           #define         PWM1OE          PWMCR,6
                                           #define         PWM2OE          PWMCR,5
                                           #define         DBLCK           PWMCR,4
                                           #define         PWMMD           PWMCR,3
                                           #define         PWMINV          PWMCR,2
                                           #define         PMW1E           PWMCR,1
                                           #define         PWM2E           PWMCR,0
                                           
                                           ;T1DATA1
                                           #define T1DATA17   T1DATA1,7
                                           #define T1DATA16   T1DATA1,6
                                           #define T1DATA15   T1DATA1,5
                                           #define T1DATA14   T1DATA1,4
                                           #define T1DATA13   T1DATA1,3
                                           #define T1DATA12   T1DATA1,2
                                           #define T1DATA11   T1DATA1,1
                                           #define T1DATA10   T1DATA1,0
                                           
                                           ;T1DATA2
                                           #define T1DATA27   T1DATA2,7
                                           #define T1DATA26   T1DATA2,6
                                           #define T1DATA25   T1DATA2,5
                                           #define T1DATA24   T1DATA2,4
                                           #define T1DATA23   T1DATA2,3
                                           #define T1DATA22   T1DATA2,2
                                           #define T1DATA21   T1DATA2,1
                                           #define T1DATA20   T1DATA2,0
                                           
                                           ;------TM0CR -----------------
                                           #define TBS     TM0CR,7
                                           #define T1IE    TM0CR,1
                                           #define T1IF    TM0CR,0
                                           
                                           ;-------T1CR----------
                                           #define TC1EN    T1CR,7
                                           #define PWM0E    T1CR,6
                                           #define BUZE     T1CR,5
                                           #define T1PTS1   T1CR,4
                                           #define T1PTS0   T1CR,3
                                           #define T1PR2    T1CR,2
                                           #define T1PR1    T1CR,1
                                           #define T1PR0    T1CR,0
                                           
                                           ;T1CNT
                                           #define T1C7   T1CNT,7
                                           #define T1C6   T1CNT,6
                                           #define T1C5   T1CNT,5
                                           #define T1C4   T1CNT,4
                                           #define T1C3   T1CNT,3
                                           #define T1C2   T1CNT,2
                                           #define T1C1   T1CNT,1
                                           #define T1C0   T1CNT,0
                                           
                                           ;T1LOAD
                                           #define T1LOAD7   T1LOAD,7
                                           #define T1LOAD6   T1LOAD,6
                                           #define T1LOAD5   T1LOAD,5
                                           #define T1LOAD4   T1LOAD,4
                                           #define T1LOAD3   T1LOAD,3
                                           #define T1LOAD2   T1LOAD,2
                                           #define T1LOAD1   T1LOAD,1
                                           #define T1LOAD0   T1LOAD,0
                                           
                                           ;T1DATA0
                                           #define T1DATA07   T1DATA0,7
                                           #define T1DATA06   T1DATA0,6
                                           #define T1DATA05   T1DATA0,5
                                           #define T1DATA04   T1DATA0,4
                                           #define T1DATA03   T1DATA0,3
                                           #define T1DATA02   T1DATA0,2
                                           #define T1DATA01   T1DATA0,1
                                           #define T1DATA00   T1DATA0,0
                                           
                                           ;--------------------------------------------------------
                                           ; external declarations
                                           ;--------------------------------------------------------
                                           	extern	_INDFbits
                                           	extern	_PCLbits
                                           	extern	_STATUSbits
                                           	extern	_FSRbits
                                           	extern	_P0bits
                                           	extern	_P1bits
                                           	extern	_MCRbits
                                           	extern	_KBIMbits
                                           	extern	_PCLATHbits
                                           	extern	_PDCONbits
                                           	extern	_ODCONbits
                                           	extern	_PUCONbits
                                           	extern	_INTECONbits
                                           	extern	_INTFLAGbits
                                           	extern	_T0CRbits
                                           	extern	_TM0CRbits
                                           	extern	_T0CNTbits
                                           	extern	_DDR0bits
                                           	extern	_DDR1bits
                                           	extern	_T1CRbits
                                           	extern	_PWMCRbits
                                           	extern	_T1CNTbits
                                           	extern	_T1LOADbits
                                           	extern	_T1DATA0bits
                                           	extern	_T1DATA1bits
                                           	extern	_T1DATA2bits
                                           	extern	_INDF
                                           	extern	_T0CNT
                                           	extern	_PCL
                                           	extern	_STATUS
                                           	extern	_FSR
                                           	extern	_P0
                                           	extern	_P1
                                           	extern	_MCR
                                           	extern	_KBIM
                                           	extern	_PCLATH
                                           	extern	_PDCON
                                           	extern	_ODCON
                                           	extern	_PUCON
                                           	extern	_INTECON
                                           	extern	_INTFLAG
                                           	extern	_T0CR
                                           	extern	_DDR0
                                           	extern	_DDR1
                                           	extern	_PWMCR
                                           	extern	_T1DATA1
                                           	extern	_T1DATA2
                                           	extern	_TM0CR
                                           	extern	_T1CR
                                           	extern	_T1CNT
                                           	extern	_T1LOAD
                                           	extern	_T1DATA0
                                           ;--------------------------------------------------------
                                           ; global declarations
                                           ;--------------------------------------------------------
                                           	global	_IIC_read_onebyte
                                           	global	_IIC_write_onebyte
                                           	global	_I2C_ReceiveByte
                                           	global	_I2C_SendByte
                                           	global	_I2C_NoAck
                                           	global	_I2C_Ack
                                           	global	_I2C_Stop
                                           	global	_I2C_Start
                                           	global	_I2C_delay
                                           	global	_Ir_Decode
                                           	global	_Timecontr
                                           	global	_Init_sys
                                           	global	_InitRam
                                           	global	_stop
                                           	global	_main
                                           	global	_int_isr
                                           	global	_n
                                           	global	_ABuf
                                           	global	_StatusBuf
                                           	global	_R_r1
                                           	global	_R_keycount
                                           	global	_R_keyvalue
                                           	global	_R_keybak
                                           	global	_R_timer0count
                                           	global	_R_irtimes
                                           	global	_R_irbytes
                                           	global	_R_irdata
                                           	global	_R_ircount
                                           	global	_R_irtable
                                           	global	_R_timecontr1
                                           	global	_R_timecontr2
                                           	global	_R_timecontr3
                                           	global	_R_timecontr4
                                           	global	_Flag1
                                           	global	_Flag2
                                           	global	_time_us1
                                           	global	_time_key
                                           	global	_time_beep
                                           	global	_key_id
                                           	global	_led_state
                                           	global	_ir_state
                                           	global	_iic_data
                                           	global	_Tab_data
                                           	global	_Tab_data1
                                           	global	_Tab_data2
                                           	global	_Tab_data3
                                           	global	_Tab_data4
                                           	global	_Tab_data5
                                           	global	_Tab_data6
                                           	global	_Tab_data7
                                           	global	_Tab_data8
                                           	global	_Tab_data9
                                           	global	_Tab_data10
                                           	global	_Tab_data11
                                           	global	_GPR
                                           
                                           	global STK06
                                           	global STK05
                                           	global STK04
                                           	global STK03
                                           	global STK02
                                           	global STK01
                                           	global STK00
                                           
                                           sharebank udata_ovr 0x0010
                                           STK06	res 1
                                           STK05	res 1
                                           STK04	res 1
                                           STK03	res 1
                                           STK02	res 1
                                           STK01	res 1
                                           STK00	res 1
                                           
                                           ;--------------------------------------------------------
                                           ; global definitions
                                           ;--------------------------------------------------------
                                           UD_HT_Leds_0	udata
                                           _ABuf	res	1
                                           
                                           UD_HT_Leds_1	udata
                                           _R_r1	res	1
                                           
                                           UD_HT_Leds_2	udata
                                           _R_keycount	res	1
                                           
                                           UD_HT_Leds_3	udata
                                           _R_keyvalue	res	1
                                           
                                           UD_HT_Leds_4	udata
                                           _R_keybak	res	1
                                           
                                           UD_HT_Leds_5	udata
                                           _R_timer0count	res	1
                                           
                                           UD_HT_Leds_6	udata
                                           _R_irtimes	res	1
                                           
                                           UD_HT_Leds_7	udata
                                           _R_irbytes	res	1
                                           
                                           UD_HT_Leds_8	udata
                                           _R_irtable	res	4
                                           
                                           UD_HT_Leds_9	udata
                                           _R_timecontr1	res	1
                                           
                                           UD_HT_Leds_10	udata
                                           _R_timecontr2	res	1
                                           
                                           UD_HT_Leds_11	udata
                                           _R_timecontr3	res	1
                                           
                                           UD_HT_Leds_12	udata
                                           _R_timecontr4	res	1
                                           
                                           UD_HT_Leds_13	udata
                                           _Flag1	res	1
                                           
                                           UD_HT_Leds_14	udata
                                           _Flag2	res	1
                                           
                                           UD_HT_Leds_15	udata
                                           _time_us1	res	1
                                           
                                           UD_HT_Leds_16	udata
                                           _time_key	res	1
                                           
                                           UD_HT_Leds_17	udata
                                           _time_beep	res	1
                                           
                                           UD_HT_Leds_18	udata
                                           _key_id	res	1
                                           
                                           UD_HT_Leds_19	udata
                                           _led_state	res	1
                                           
                                           UD_HT_Leds_20	udata
                                           _ir_state	res	1
                                           
                                           UD_HT_Leds_21	udata
                                           _iic_data	res	1
                                           
                                           ;--------------------------------------------------------
                                           ; absolute symbol definitions
                                           ;--------------------------------------------------------
                                           UD_abs_HT_Leds_7	udata_ovr	0x0007
                                           _GPR
                                           	res	1
                                           ;--------------------------------------------------------
                                           ; compiler-defined variables
                                           ;--------------------------------------------------------
                                           UDL_HT_Leds_0	udata
                                           r0x101B	res	1
                                           r0x101C	res	1
                                           r0x101A	res	1
                                           r0x1014	res	1
                                           r0x1015	res	1
                                           r0x1016	res	1
                                           r0x1018	res	1
                                           r0x1019	res	1
                                           r0x1017	res	1
                                           r0x101D	res	1
                                           r0x101E	res	1
                                           ;--------------------------------------------------------
                                           ; initialized data
                                           ;--------------------------------------------------------
                                           
                                           ID_HT_Leds_0	idata
                                           _n
                                           	db	0x00
                                           
                                           
                                           ID_HT_Leds_1	idata
                                           _StatusBuf
                                           	db	0x00
                                           
                                           
                                           ID_HT_Leds_2	idata
                                           _R_irdata
                                           	db	0x00
                                           
                                           
                                           ID_HT_Leds_3	idata
                                           _R_ircount
                                           	db	0x00
                                           
                                           
                                           ID_HT_Leds_4	code
                                           _Tab_data
000308   0a01     retai   0x1              	retai 0x01
000309   0a09     retai   0x9              	retai 0x09
00030a   0a11     retai   0x11             	retai 0x11
00030b   0a22     retai   0x22             	retai 0x22
00030c   0a17     retai   0x17             	retai 0x17
00030d   0a09     retai   0x9              	retai 0x09
00030e   0a11     retai   0x11             	retai 0x11
00030f   0a22     retai   0x22             	retai 0x22
000310   0a17     retai   0x17             	retai 0x17
000311   0a09     retai   0x9              	retai 0x09
000312   0a11     retai   0x11             	retai 0x11
000313   0a22     retai   0x22             	retai 0x22
000314   0a17     retai   0x17             	retai 0x17
000315   0a09     retai   0x9              	retai 0x09
000316   0a11     retai   0x11             	retai 0x11
000317   0a22     retai   0x22             	retai 0x22
000318   0a17     retai   0x17             	retai 0x17
000319   0a09     retai   0x9              	retai 0x09
00031a   0a11     retai   0x11             	retai 0x11
00031b   0a22     retai   0x22             	retai 0x22
                                           
                                           
                                           ID_HT_Leds_5	code
                                           _Tab_data1
00031c   0a01     retai   0x1              	retai 0x01
00031d   0a09     retai   0x9              	retai 0x09
00031e   0a11     retai   0x11             	retai 0x11
00031f   0a22     retai   0x22             	retai 0x22
000320   0a17     retai   0x17             	retai 0x17
000321   0a09     retai   0x9              	retai 0x09
000322   0a11     retai   0x11             	retai 0x11
000323   0a22     retai   0x22             	retai 0x22
000324   0a17     retai   0x17             	retai 0x17
000325   0a09     retai   0x9              	retai 0x09
000326   0a11     retai   0x11             	retai 0x11
000327   0a22     retai   0x22             	retai 0x22
000328   0a17     retai   0x17             	retai 0x17
000329   0a09     retai   0x9              	retai 0x09
00032a   0a11     retai   0x11             	retai 0x11
00032b   0a22     retai   0x22             	retai 0x22
00032c   0a17     retai   0x17             	retai 0x17
00032d   0a09     retai   0x9              	retai 0x09
00032e   0a11     retai   0x11             	retai 0x11
00032f   0a22     retai   0x22             	retai 0x22
                                           
                                           
                                           ID_HT_Leds_6	code
                                           _Tab_data2
000330   0a01     retai   0x1              	retai 0x01
000331   0a09     retai   0x9              	retai 0x09
000332   0a11     retai   0x11             	retai 0x11
000333   0a22     retai   0x22             	retai 0x22
000334   0a17     retai   0x17             	retai 0x17
000335   0a09     retai   0x9              	retai 0x09
000336   0a11     retai   0x11             	retai 0x11
000337   0a22     retai   0x22             	retai 0x22
000338   0a17     retai   0x17             	retai 0x17
000339   0a09     retai   0x9              	retai 0x09
00033a   0a11     retai   0x11             	retai 0x11
00033b   0a22     retai   0x22             	retai 0x22
00033c   0a17     retai   0x17             	retai 0x17
00033d   0a09     retai   0x9              	retai 0x09
00033e   0a11     retai   0x11             	retai 0x11
00033f   0a22     retai   0x22             	retai 0x22
000340   0a17     retai   0x17             	retai 0x17
000341   0a09     retai   0x9              	retai 0x09
000342   0a11     retai   0x11             	retai 0x11
000343   0a22     retai   0x22             	retai 0x22
                                           
                                           
                                           ID_HT_Leds_7	code
                                           _Tab_data3
000344   0a01     retai   0x1              	retai 0x01
000345   0a09     retai   0x9              	retai 0x09
000346   0a11     retai   0x11             	retai 0x11
000347   0a22     retai   0x22             	retai 0x22
000348   0a17     retai   0x17             	retai 0x17
000349   0a09     retai   0x9              	retai 0x09
00034a   0a11     retai   0x11             	retai 0x11
00034b   0a22     retai   0x22             	retai 0x22
00034c   0a17     retai   0x17             	retai 0x17
00034d   0a09     retai   0x9              	retai 0x09
00034e   0a11     retai   0x11             	retai 0x11
00034f   0a22     retai   0x22             	retai 0x22
000350   0a17     retai   0x17             	retai 0x17
000351   0a09     retai   0x9              	retai 0x09
000352   0a11     retai   0x11             	retai 0x11
000353   0a22     retai   0x22             	retai 0x22
000354   0a17     retai   0x17             	retai 0x17
000355   0a09     retai   0x9              	retai 0x09
000356   0a11     retai   0x11             	retai 0x11
000357   0a22     retai   0x22             	retai 0x22
                                           
                                           
                                           ID_HT_Leds_8	code
                                           _Tab_data4
000358   0a01     retai   0x1              	retai 0x01
000359   0a09     retai   0x9              	retai 0x09
00035a   0a11     retai   0x11             	retai 0x11
00035b   0a22     retai   0x22             	retai 0x22
00035c   0a17     retai   0x17             	retai 0x17
00035d   0a09     retai   0x9              	retai 0x09
00035e   0a11     retai   0x11             	retai 0x11
00035f   0a22     retai   0x22             	retai 0x22
000360   0a17     retai   0x17             	retai 0x17
000361   0a09     retai   0x9              	retai 0x09
000362   0a11     retai   0x11             	retai 0x11
000363   0a22     retai   0x22             	retai 0x22
000364   0a17     retai   0x17             	retai 0x17
000365   0a09     retai   0x9              	retai 0x09
000366   0a11     retai   0x11             	retai 0x11
000367   0a22     retai   0x22             	retai 0x22
000368   0a17     retai   0x17             	retai 0x17
000369   0a09     retai   0x9              	retai 0x09
00036a   0a11     retai   0x11             	retai 0x11
00036b   0a22     retai   0x22             	retai 0x22
                                           
                                           
                                           ID_HT_Leds_9	code
                                           _Tab_data5
00036c   0a01     retai   0x1              	retai 0x01
00036d   0a09     retai   0x9              	retai 0x09
00036e   0a11     retai   0x11             	retai 0x11
00036f   0a22     retai   0x22             	retai 0x22
000370   0a17     retai   0x17             	retai 0x17
000371   0a09     retai   0x9              	retai 0x09
000372   0a11     retai   0x11             	retai 0x11
000373   0a22     retai   0x22             	retai 0x22
000374   0a17     retai   0x17             	retai 0x17
000375   0a09     retai   0x9              	retai 0x09
000376   0a11     retai   0x11             	retai 0x11
000377   0a22     retai   0x22             	retai 0x22
000378   0a17     retai   0x17             	retai 0x17
000379   0a09     retai   0x9              	retai 0x09
00037a   0a11     retai   0x11             	retai 0x11
00037b   0a22     retai   0x22             	retai 0x22
00037c   0a17     retai   0x17             	retai 0x17
00037d   0a09     retai   0x9              	retai 0x09
00037e   0a11     retai   0x11             	retai 0x11
00037f   0a22     retai   0x22             	retai 0x22
                                           
                                           
                                           ID_HT_Leds_10	code
                                           _Tab_data6
000380   0a01     retai   0x1              	retai 0x01
000381   0a09     retai   0x9              	retai 0x09
000382   0a11     retai   0x11             	retai 0x11
000383   0a22     retai   0x22             	retai 0x22
000384   0a17     retai   0x17             	retai 0x17
000385   0a09     retai   0x9              	retai 0x09
000386   0a11     retai   0x11             	retai 0x11
000387   0a22     retai   0x22             	retai 0x22
000388   0a17     retai   0x17             	retai 0x17
000389   0a09     retai   0x9              	retai 0x09
00038a   0a11     retai   0x11             	retai 0x11
00038b   0a22     retai   0x22             	retai 0x22
00038c   0a17     retai   0x17             	retai 0x17
00038d   0a09     retai   0x9              	retai 0x09
00038e   0a11     retai   0x11             	retai 0x11
00038f   0a22     retai   0x22             	retai 0x22
000390   0a17     retai   0x17             	retai 0x17
000391   0a09     retai   0x9              	retai 0x09
000392   0a11     retai   0x11             	retai 0x11
000393   0a22     retai   0x22             	retai 0x22
                                           
                                           
                                           ID_HT_Leds_11	code
                                           _Tab_data7
000394   0a01     retai   0x1              	retai 0x01
000395   0a09     retai   0x9              	retai 0x09
000396   0a11     retai   0x11             	retai 0x11
000397   0a22     retai   0x22             	retai 0x22
000398   0a17     retai   0x17             	retai 0x17
000399   0a09     retai   0x9              	retai 0x09
00039a   0a11     retai   0x11             	retai 0x11
00039b   0a22     retai   0x22             	retai 0x22
00039c   0a17     retai   0x17             	retai 0x17
00039d   0a09     retai   0x9              	retai 0x09
00039e   0a11     retai   0x11             	retai 0x11
00039f   0a22     retai   0x22             	retai 0x22
0003a0   0a17     retai   0x17             	retai 0x17
0003a1   0a09     retai   0x9              	retai 0x09
0003a2   0a11     retai   0x11             	retai 0x11
0003a3   0a22     retai   0x22             	retai 0x22
0003a4   0a17     retai   0x17             	retai 0x17
0003a5   0a09     retai   0x9              	retai 0x09
0003a6   0a11     retai   0x11             	retai 0x11
0003a7   0a22     retai   0x22             	retai 0x22
                                           
                                           
                                           ID_HT_Leds_12	code
                                           _Tab_data8
0003a8   0a01     retai   0x1              	retai 0x01
0003a9   0a09     retai   0x9              	retai 0x09
0003aa   0a11     retai   0x11             	retai 0x11
0003ab   0a22     retai   0x22             	retai 0x22
0003ac   0a17     retai   0x17             	retai 0x17
0003ad   0a09     retai   0x9              	retai 0x09
0003ae   0a11     retai   0x11             	retai 0x11
0003af   0a22     retai   0x22             	retai 0x22
0003b0   0a17     retai   0x17             	retai 0x17
0003b1   0a09     retai   0x9              	retai 0x09
0003b2   0a11     retai   0x11             	retai 0x11
0003b3   0a22     retai   0x22             	retai 0x22
0003b4   0a17     retai   0x17             	retai 0x17
0003b5   0a09     retai   0x9              	retai 0x09
0003b6   0a11     retai   0x11             	retai 0x11
0003b7   0a22     retai   0x22             	retai 0x22
0003b8   0a17     retai   0x17             	retai 0x17
0003b9   0a09     retai   0x9              	retai 0x09
0003ba   0a11     retai   0x11             	retai 0x11
0003bb   0a22     retai   0x22             	retai 0x22
                                           
                                           
                                           ID_HT_Leds_13	code
                                           _Tab_data9
0003bc   0a01     retai   0x1              	retai 0x01
0003bd   0a09     retai   0x9              	retai 0x09
0003be   0a11     retai   0x11             	retai 0x11
0003bf   0a22     retai   0x22             	retai 0x22
0003c0   0a17     retai   0x17             	retai 0x17
0003c1   0a09     retai   0x9              	retai 0x09
0003c2   0a11     retai   0x11             	retai 0x11
0003c3   0a22     retai   0x22             	retai 0x22
0003c4   0a17     retai   0x17             	retai 0x17
0003c5   0a09     retai   0x9              	retai 0x09
0003c6   0a11     retai   0x11             	retai 0x11
0003c7   0a22     retai   0x22             	retai 0x22
0003c8   0a17     retai   0x17             	retai 0x17
0003c9   0a09     retai   0x9              	retai 0x09
0003ca   0a11     retai   0x11             	retai 0x11
0003cb   0a22     retai   0x22             	retai 0x22
0003cc   0a17     retai   0x17             	retai 0x17
0003cd   0a09     retai   0x9              	retai 0x09
0003ce   0a11     retai   0x11             	retai 0x11
0003cf   0a22     retai   0x22             	retai 0x22
                                           
                                           
                                           ID_HT_Leds_14	code
                                           _Tab_data10
0003d0   0a01     retai   0x1              	retai 0x01
0003d1   0a09     retai   0x9              	retai 0x09
0003d2   0a11     retai   0x11             	retai 0x11
0003d3   0a22     retai   0x22             	retai 0x22
0003d4   0a17     retai   0x17             	retai 0x17
0003d5   0a09     retai   0x9              	retai 0x09
0003d6   0a11     retai   0x11             	retai 0x11
0003d7   0a22     retai   0x22             	retai 0x22
0003d8   0a17     retai   0x17             	retai 0x17
0003d9   0a09     retai   0x9              	retai 0x09
0003da   0a11     retai   0x11             	retai 0x11
0003db   0a22     retai   0x22             	retai 0x22
0003dc   0a17     retai   0x17             	retai 0x17
0003dd   0a09     retai   0x9              	retai 0x09
0003de   0a11     retai   0x11             	retai 0x11
0003df   0a22     retai   0x22             	retai 0x22
0003e0   0a17     retai   0x17             	retai 0x17
0003e1   0a09     retai   0x9              	retai 0x09
0003e2   0a11     retai   0x11             	retai 0x11
0003e3   0a22     retai   0x22             	retai 0x22
                                           
                                           
                                           ID_HT_Leds_15	code
                                           _Tab_data11
0003e4   0a01     retai   0x1              	retai 0x01
0003e5   0a09     retai   0x9              	retai 0x09
0003e6   0a11     retai   0x11             	retai 0x11
0003e7   0a22     retai   0x22             	retai 0x22
0003e8   0a17     retai   0x17             	retai 0x17
0003e9   0a09     retai   0x9              	retai 0x09
0003ea   0a11     retai   0x11             	retai 0x11
0003eb   0a22     retai   0x22             	retai 0x22
0003ec   0a17     retai   0x17             	retai 0x17
0003ed   0a09     retai   0x9              	retai 0x09
0003ee   0a11     retai   0x11             	retai 0x11
0003ef   0a22     retai   0x22             	retai 0x22
0003f0   0a17     retai   0x17             	retai 0x17
0003f1   0a09     retai   0x9              	retai 0x09
0003f2   0a11     retai   0x11             	retai 0x11
0003f3   0a22     retai   0x22             	retai 0x22
0003f4   0a17     retai   0x17             	retai 0x17
0003f5   0a09     retai   0x9              	retai 0x09
0003f6   0a11     retai   0x11             	retai 0x11
0003f7   0a22     retai   0x22             	retai 0x22
                                           
                                           ;--------------------------------------------------------
                                           ; overlayable items in internal ram 
                                           ;--------------------------------------------------------
                                           ;	udata_ovr
                                           ;--------------------------------------------------------
                                           ; reset vector 
                                           ;--------------------------------------------------------
                                           STARTUP	code 0x0000
                                           ;--------------------------------------------------------
                                           ; interrupt and initialization code
                                           ;--------------------------------------------------------
                                           c_interrupt	code	0x8
                                           __sdcc_interrupt
                                           ;***
                                           ;  pBlock Stats: dbName = I
                                           ;***
                                           ;entry:  _int_isr	;Function start
                                           ; 0 exit points
                                           ;functions called:
                                           ;   _Ir_Decode
                                           ;   _Ir_Decode
                                           ;2 compiler assigned registers:
                                           ;   r0x101D
                                           ;   r0x101E
                                           ;; Starting pCode block
                                           _int_isr	;Function start
                                           ; 0 exit points
000008   15a6     movra   0x26             	movra _ABuf
000009   1103     swapar  0x3              	swapar _STATUS
00000a   15bc     movra   0x3c             	movra _StatusBuf
                                           	
                                           ;	.line	870; "HT_Leds.c"	T0IF  = 0;
00000b   3c0f     bclr    0xf, 0           	BCLR	_INTFLAGbits,0
                                           ;	.line	871; "HT_Leds.c"	T0CNT = 160;  
00000c   0ba0     movai   0xa0             	MOVAI	0xa0
00000d   1581     movra   0x1              	MOVRA	_T0CNT
                                           ;	.line	873; "HT_Leds.c"	time_us1++;
00000e   19b4     incr    0x34             	INCR	_time_us1
                                           ;;unsigned compare: left < lit(0xCC=204), size=1
                                           ;	.line	874; "HT_Leds.c"	if(time_us1>=204)
00000f   0bcc     movai   0xcc             	MOVAI	0xcc
000010   1234     rsubar  0x34             	RSUBAR	_time_us1
000011   3003     jbset   0x3, 0           	JBSET	STATUS,0
000012   2839     goto    0x39             	GOTO	_00383_DS_
                                           ;;genSkipc:3246: created from rifx:0022609C
                                           ;	.line	876; "HT_Leds.c"	time_us1 = 0;//20ms
000013   1db4     clrr    0x34             	CLRR	_time_us1
                                           ;	.line	877; "HT_Leds.c"	if(time_key > 0)
000014   0b00     movai   0                	MOVAI	0x00
000015   1735     orar    0x35             	ORAR	_time_key
000016   3503     jbclr   0x3, 0x2         	JBCLR	STATUS,2
000017   2819     goto    0x19             	GOTO	_00370_DS_
                                           ;	.line	879; "HT_Leds.c"	time_key--;
000018   1bb5     decr    0x35             	DECR	_time_key
                                           _00370_DS_
                                           ;	.line	881; "HT_Leds.c"	if(time_key == 0)
000019   0b00     movai   0                	MOVAI	0x00
00001a   1735     orar    0x35             	ORAR	_time_key
00001b   3103     jbset   0x3, 0x2         	JBSET	STATUS,2
00001c   281e     goto    0x1e             	GOTO	_00372_DS_
                                           ;	.line	883; "HT_Leds.c"	time_key--;
00001d   1bb5     decr    0x35             	DECR	_time_key
                                           _00372_DS_
                                           ;	.line	885; "HT_Leds.c"	if(time_beep > 0)
00001e   0b00     movai   0                	MOVAI	0x00
00001f   1736     orar    0x36             	ORAR	_time_beep
000020   3503     jbclr   0x3, 0x2         	JBCLR	STATUS,2
000021   2823     goto    0x23             	GOTO	_00374_DS_
                                           ;	.line	887; "HT_Leds.c"	time_beep--;
000022   1bb6     decr    0x36             	DECR	_time_beep
                                           _00374_DS_
                                           ;	.line	889; "HT_Leds.c"	if(time_beep== 0)
000023   0b00     movai   0                	MOVAI	0x00
000024   1736     orar    0x36             	ORAR	_time_beep
000025   3103     jbset   0x3, 0x2         	JBSET	STATUS,2
000026   2828     goto    0x28             	GOTO	_00378_DS_
                                           ;	.line	891; "HT_Leds.c"	time_beep--;
000027   1bb6     decr    0x36             	DECR	_time_beep
                                           _00378_DS_
                                           ;	.line	898; "HT_Leds.c"	if(P00D == 1)
000028   1da0     clrr    0x20             	CLRR	r0x101D
000029   3405     jbclr   0x5, 0           	JBCLR	_P0bits,0
00002a   19a0     incr    0x20             	INCR	r0x101D
                                           ;;106	MOVAR	r0x101D
                                           ;;105	MOVAR	r0x101E
00002b   1620     movar   0x20             	MOVAR	r0x101D
00002c   15a1     movra   0x21             	MOVRA	r0x101E
00002d   0801     xorai   0x1              	XORAI	0x01
00002e   3103     jbset   0x3, 0x2         	JBSET	STATUS,2
00002f   2836     goto    0x36             	GOTO	_00380_DS_
                                           ;	.line	899; "HT_Leds.c"	P0 &= ~0x01;
000030   1605     movar   0x5              	MOVAR	_P0
000031   15a0     movra   0x20             	MOVRA	r0x101D
000032   0bfe     movai   0xfe             	MOVAI	0xfe
000033   1e20     andar   0x20             	ANDAR	r0x101D
000034   1585     movra   0x5              	MOVRA	_P0
000035   2837     goto    0x37             	GOTO	_00381_DS_
                                           _00380_DS_
                                           ;	.line	901; "HT_Leds.c"	P0 |= 0x01; 
000036   3805     bset    0x5, 0           	BSET	_P0,0
                                           _00381_DS_
                                           ;	.line	902; "HT_Leds.c"	P0 = ~P0; 
000037   1c05     comar   0x5              	COMAR	_P0
000038   1585     movra   0x5              	MOVRA	_P0
                                           _00383_DS_
                                           ;	.line	904; "HT_Leds.c"	P0 = ~P0; 
000039   1c05     comar   0x5              	COMAR	_P0
00003a   1585     movra   0x5              	MOVRA	_P0
                                           ;	.line	906; "HT_Leds.c"	R_timer0count++;
00003b   19ab     incr    0x2b             	INCR	_R_timer0count
                                           ;	.line	907; "HT_Leds.c"	if(F_irenflag==1)
00003c   1da0     clrr    0x20             	CLRR	r0x101D
00003d   3632     jbclr   0x32, 0x4        	JBCLR	_Flag1,4
00003e   19a0     incr    0x20             	INCR	r0x101D
                                           ;;102	MOVAR	r0x101D
                                           ;;101	MOVAR	r0x101E
00003f   1620     movar   0x20             	MOVAR	r0x101D
000040   15a1     movra   0x21             	MOVRA	r0x101E
000041   0801     xorai   0x1              	XORAI	0x01
000042   3103     jbset   0x3, 0x2         	JBSET	STATUS,2
000043   2845     goto    0x45             	GOTO	_00385_DS_
                                           ;	.line	908; "HT_Leds.c"	Ir_Decode();
000044   2200     call    0x200            	CALL	_Ir_Decode
                                           ;;swapping arguments (AOP_TYPEs 1/3)
                                           ;;unsigned compare: left >= lit(0xA=10), size=1
                                           _00385_DS_
                                           ;	.line	909; "HT_Leds.c"	if(R_timer0count>9)
000045   0b0a     movai   0xa              	MOVAI	0x0a
000046   122b     rsubar  0x2b             	RSUBAR	_R_timer0count
000047   3003     jbset   0x3, 0           	JBSET	STATUS,0
000048   284b     goto    0x4b             	GOTO	_00387_DS_
                                           ;;genSkipc:3246: created from rifx:0022609C
                                           ;	.line	911; "HT_Leds.c"	R_timer0count=0;
000049   1dab     clrr    0x2b             	CLRR	_R_timer0count
                                           ;	.line	912; "HT_Leds.c"	F_tm0flag = 1;
00004a   38b2     bset    0x32, 0x1        	BSET	_Flag1,1
                                           _00387_DS_
00004b   113c     swapar  0x3c             	swapar _StatusBuf
00004c   1583     movra   0x3              	movra _STATUS
00004d   11a6     swapr   0x26             	swapr _ABuf
00004e   1126     swapar  0x26             	swapar _ABuf
                                           	
                                           END_OF_INTERRUPT
00004f   000d     retie                    	RETIE	
                                           
                                           ;--------------------------------------------------------
                                           ; code
                                           ;--------------------------------------------------------
                                           code_HT_Leds	code
                                           ;***
                                           ;  pBlock Stats: dbName = M
                                           ;***
                                           ;entry:  _main	;Function start
                                           ; 2 exit points
                                           ;has an exit
                                           ;functions called:
                                           ;   _InitRam
                                           ;   _Init_sys
                                           ;   _IIC_read_onebyte
                                           ;   _InitRam
                                           ;   _Init_sys
                                           ;   _IIC_read_onebyte
                                           ;1 compiler assigned register :
                                           ;   r0x101A
                                           ;; Starting pCode block
                                           _main	;Function start
                                           ; 2 exit points
                                           ;	.line	404; "HT_Leds.c"	GIE = 0;
000050   3f8e     bclr    0xe, 0x7         	BCLR	_INTECONbits,7
                                           ;	.line	405; "HT_Leds.c"	DDR1 = R0;
000051   0b01     movai   0x1              	MOVAI	0x01
000052   15c6     movra   0x46             	MOVRA	_DDR1
                                           ;	.line	406; "HT_Leds.c"	DDR10 = R0;
000053   0b01     movai   0x1              	MOVAI	0x01
000054   1599     movra   0x19             	MOVRA	r0x101A
000055   1319     rrar    0x19             	RRAR	r0x101A
000056   3003     jbset   0x3, 0           	JBSET	STATUS,0
000057   3c46     bclr    0x46, 0          	BCLR	_DDR1bits,0
000058   3403     jbclr   0x3, 0           	JBCLR	STATUS,0
000059   3846     bset    0x46, 0          	BSET	_DDR1bits,0
00005a   000e     clrwdt                   	clrwdt
                                           ;	.line	408; "HT_Leds.c"	InitRam();
00005b   21b4     call    0x1b4            	CALL	_InitRam
                                           ;	.line	409; "HT_Leds.c"	Init_sys();
00005c   21d1     call    0x1d1            	CALL	_Init_sys
                                           ;	.line	410; "HT_Leds.c"	GIE = 1;
00005d   3b8e     bset    0xe, 0x7         	BSET	_INTECONbits,7
                                           ;	.line	411; "HT_Leds.c"	led_state = 7;
00005e   0b07     movai   0x7              	MOVAI	0x07
00005f   15b8     movra   0x38             	MOVRA	_led_state
                                           _00252_DS_
                                           ;	.line	414; "HT_Leds.c"	if(time_key == 0)
000060   0b00     movai   0                	MOVAI	0x00
000061   1735     orar    0x35             	ORAR	_time_key
000062   3103     jbset   0x3, 0x2         	JBSET	STATUS,2
000063   2867     goto    0x67             	GOTO	_00220_DS_
                                           ;	.line	416; "HT_Leds.c"	KEY_SEND_PREV = 1;
000064   3a86     bset    0x6, 0x5         	BSET	_P1bits,5
                                           ;	.line	417; "HT_Leds.c"	KEY_SEND_PLAY = 1;
000065   3805     bset    0x5, 0           	BSET	_P0bits,0
                                           ;	.line	418; "HT_Leds.c"	KEY_SEND_NEXT = 1;
000066   3a06     bset    0x6, 0x4         	BSET	_P1bits,4
                                           _00220_DS_
                                           ;	.line	422; "HT_Leds.c"	if(F_irokflag)
000067   31b2     jbset   0x32, 0x3        	JBSET	_Flag1,3
000068   2860     goto    0x60             	GOTO	_00252_DS_
                                           ;	.line	424; "HT_Leds.c"	F_irokflag = 0;
000069   3db2     bclr    0x32, 0x3        	BCLR	_Flag1,3
                                           ;	.line	428; "HT_Leds.c"	if(time_beep == 0)
00006a   0b00     movai   0                	MOVAI	0x00
00006b   1736     orar    0x36             	ORAR	_time_beep
00006c   3103     jbset   0x3, 0x2         	JBSET	STATUS,2
00006d   2870     goto    0x70             	GOTO	_00222_DS_
                                           ;	.line	430; "HT_Leds.c"	time_beep = 5;
00006e   0b05     movai   0x5              	MOVAI	0x05
00006f   15b6     movra   0x36             	MOVRA	_time_beep
                                           _00222_DS_
                                           ;	.line	433; "HT_Leds.c"	switch(R_irtable[2])
000070   1624     movar   0x24             	MOVAR	(_R_irtable + 2)
000071   1599     movra   0x19             	MOVRA	r0x101A
000072   1619     movar   0x19             	MOVAR	r0x101A
000073   0810     xorai   0x10             	XORAI	0x10
000074   3103     jbset   0x3, 0x2         	JBSET	STATUS,2
000075   2877     goto    0x77             	GOTO	_00300_DS_
000076   28d2     goto    0xd2             	GOTO	_00235_DS_
                                           _00300_DS_
000077   1619     movar   0x19             	MOVAR	r0x101A
000078   0812     xorai   0x12             	XORAI	0x12
000079   3103     jbset   0x3, 0x2         	JBSET	STATUS,2
00007a   287c     goto    0x7c             	GOTO	_00301_DS_
00007b   28b6     goto    0xb6             	GOTO	_00224_DS_
                                           _00301_DS_
00007c   1619     movar   0x19             	MOVAR	r0x101A
00007d   081c     xorai   0x1c             	XORAI	0x1c
00007e   3103     jbset   0x3, 0x2         	JBSET	STATUS,2
00007f   2881     goto    0x81             	GOTO	_00302_DS_
000080   28de     goto    0xde             	GOTO	_00241_DS_
                                           _00302_DS_
000081   1619     movar   0x19             	MOVAR	r0x101A
000082   081e     xorai   0x1e             	XORAI	0x1e
000083   3103     jbset   0x3, 0x2         	JBSET	STATUS,2
000084   2886     goto    0x86             	GOTO	_00303_DS_
000085   2860     goto    0x60             	GOTO	_00252_DS_
                                           _00303_DS_
000086   1619     movar   0x19             	MOVAR	r0x101A
000087   0821     xorai   0x21             	XORAI	0x21
000088   3103     jbset   0x3, 0x2         	JBSET	STATUS,2
000089   288b     goto    0x8b             	GOTO	_00304_DS_
00008a   28c2     goto    0xc2             	GOTO	_00228_DS_
                                           _00304_DS_
00008b   1619     movar   0x19             	MOVAR	r0x101A
00008c   0822     xorai   0x22             	XORAI	0x22
00008d   3103     jbset   0x3, 0x2         	JBSET	STATUS,2
00008e   2890     goto    0x90             	GOTO	_00305_DS_
00008f   28d4     goto    0xd4             	GOTO	_00238_DS_
                                           _00305_DS_
000090   1619     movar   0x19             	MOVAR	r0x101A
000091   0847     xorai   0x47             	XORAI	0x47
000092   3103     jbset   0x3, 0x2         	JBSET	STATUS,2
000093   2895     goto    0x95             	GOTO	_00306_DS_
000094   28cd     goto    0xcd             	GOTO	_00233_DS_
                                           _00306_DS_
000095   1619     movar   0x19             	MOVAR	r0x101A
000096   0855     xorai   0x55             	XORAI	0x55
000097   3103     jbset   0x3, 0x2         	JBSET	STATUS,2
000098   289a     goto    0x9a             	GOTO	_00307_DS_
000099   28e8     goto    0xe8             	GOTO	_00244_DS_
                                           _00307_DS_
00009a   1619     movar   0x19             	MOVAR	r0x101A
00009b   0859     xorai   0x59             	XORAI	0x59
00009c   3103     jbset   0x3, 0x2         	JBSET	STATUS,2
00009d   289f     goto    0x9f             	GOTO	_00308_DS_
00009e   28ba     goto    0xba             	GOTO	_00225_DS_
                                           _00308_DS_
00009f   1619     movar   0x19             	MOVAR	r0x101A
0000a0   085a     xorai   0x5a             	XORAI	0x5a
0000a1   3103     jbset   0x3, 0x2         	JBSET	STATUS,2
0000a2   28a4     goto    0xa4             	GOTO	_00309_DS_
0000a3   28af     goto    0xaf             	GOTO	_00223_DS_
                                           _00309_DS_
0000a4   1619     movar   0x19             	MOVAR	r0x101A
0000a5   085b     xorai   0x5b             	XORAI	0x5b
0000a6   3103     jbset   0x3, 0x2         	JBSET	STATUS,2
0000a7   28a9     goto    0xa9             	GOTO	_00310_DS_
0000a8   2860     goto    0x60             	GOTO	_00252_DS_
                                           _00310_DS_
0000a9   1619     movar   0x19             	MOVAR	r0x101A
0000aa   085c     xorai   0x5c             	XORAI	0x5c
0000ab   3103     jbset   0x3, 0x2         	JBSET	STATUS,2
0000ac   28ae     goto    0xae             	GOTO	_00311_DS_
0000ad   28d0     goto    0xd0             	GOTO	_00234_DS_
                                           _00311_DS_
0000ae   2860     goto    0x60             	GOTO	_00252_DS_
                                           _00223_DS_
                                           ;	.line	436; "HT_Leds.c"	led_state = 6;
0000af   0b06     movai   0x6              	MOVAI	0x06
0000b0   15b8     movra   0x38             	MOVRA	_led_state
                                           ;	.line	437; "HT_Leds.c"	T1DATA0 = 0x80;
0000b1   0b80     movai   0x80             	MOVAI	0x80
0000b2   15cf     movra   0x4f             	MOVRA	_T1DATA0
                                           ;	.line	438; "HT_Leds.c"	T1DATA1 = 0x80;
0000b3   0b80     movai   0x80             	MOVAI	0x80
0000b4   15c9     movra   0x49             	MOVRA	_T1DATA1
                                           ;	.line	439; "HT_Leds.c"	break;
0000b5   2860     goto    0x60             	GOTO	_00252_DS_
                                           _00224_DS_
                                           ;	.line	441; "HT_Leds.c"	led_state = 0; 	
0000b6   1db8     clrr    0x38             	CLRR	_led_state
                                           ;	.line	442; "HT_Leds.c"	T1DATA0 = 0;
0000b7   1dcf     clrr    0x4f             	CLRR	_T1DATA0
                                           ;	.line	443; "HT_Leds.c"	T1DATA1 = 0;   	   	   	   	   	
0000b8   1dc9     clrr    0x49             	CLRR	_T1DATA1
                                           ;	.line	444; "HT_Leds.c"	break;
0000b9   2860     goto    0x60             	GOTO	_00252_DS_
                                           _00225_DS_
                                           ;	.line	446; "HT_Leds.c"	led_state++;
0000ba   19b8     incr    0x38             	INCR	_led_state
                                           ;;unsigned compare: left < lit(0xA=10), size=1
                                           ;	.line	447; "HT_Leds.c"	if(led_state>=LED_STATE_MAX)
0000bb   0b0a     movai   0xa              	MOVAI	0x0a
0000bc   1238     rsubar  0x38             	RSUBAR	_led_state
0000bd   3003     jbset   0x3, 0           	JBSET	STATUS,0
0000be   2860     goto    0x60             	GOTO	_00252_DS_
                                           ;;genSkipc:3246: created from rifx:0022609C
                                           ;	.line	449; "HT_Leds.c"	led_state = LED_STATE_MAX;
0000bf   0b0a     movai   0xa              	MOVAI	0x0a
0000c0   15b8     movra   0x38             	MOVRA	_led_state
                                           ;	.line	451; "HT_Leds.c"	break;
0000c1   2860     goto    0x60             	GOTO	_00252_DS_
                                           _00228_DS_
                                           ;	.line	453; "HT_Leds.c"	if(led_state>0)
0000c2   0b00     movai   0                	MOVAI	0x00
0000c3   1738     orar    0x38             	ORAR	_led_state
0000c4   3503     jbclr   0x3, 0x2         	JBCLR	STATUS,2
0000c5   28c7     goto    0xc7             	GOTO	_00230_DS_
                                           ;	.line	454; "HT_Leds.c"	led_state--;
0000c6   1bb8     decr    0x38             	DECR	_led_state
                                           _00230_DS_
                                           ;	.line	455; "HT_Leds.c"	if(led_state==0)
0000c7   0b00     movai   0                	MOVAI	0x00
0000c8   1738     orar    0x38             	ORAR	_led_state
0000c9   3103     jbset   0x3, 0x2         	JBSET	STATUS,2
0000ca   2860     goto    0x60             	GOTO	_00252_DS_
                                           ;	.line	457; "HT_Leds.c"	led_state = 0;
0000cb   1db8     clrr    0x38             	CLRR	_led_state
                                           ;	.line	459; "HT_Leds.c"	break;
0000cc   2860     goto    0x60             	GOTO	_00252_DS_
                                           _00233_DS_
                                           ;	.line	461; "HT_Leds.c"	IIC_read_onebyte(0);
0000cd   0b00     movai   0                	MOVAI	0x00
0000ce   20f3     call    0xf3             	CALL	_IIC_read_onebyte
                                           ;	.line	462; "HT_Leds.c"	break;
0000cf   2860     goto    0x60             	GOTO	_00252_DS_
                                           _00234_DS_
                                           ;	.line	464; "HT_Leds.c"	BT_POWER = 1;  	   	   	   	   	   	
0000d0   3905     bset    0x5, 0x2         	BSET	_P0bits,2
                                           ;	.line	465; "HT_Leds.c"	break;
0000d1   2860     goto    0x60             	GOTO	_00252_DS_
                                           _00235_DS_
                                           ;	.line	467; "HT_Leds.c"	BT_POWER = 0;      	   	   	   	   	   	
0000d2   3d05     bclr    0x5, 0x2         	BCLR	_P0bits,2
                                           ;	.line	468; "HT_Leds.c"	break;
0000d3   2860     goto    0x60             	GOTO	_00252_DS_
                                           _00238_DS_
                                           ;	.line	488; "HT_Leds.c"	if(time_key == 0)
0000d4   0b00     movai   0                	MOVAI	0x00
0000d5   1735     orar    0x35             	ORAR	_time_key
0000d6   3103     jbset   0x3, 0x2         	JBSET	STATUS,2
0000d7   2860     goto    0x60             	GOTO	_00252_DS_
                                           ;	.line	490; "HT_Leds.c"	KEY_SEND_PREV = 0;
0000d8   3e86     bclr    0x6, 0x5         	BCLR	_P1bits,5
                                           ;	.line	491; "HT_Leds.c"	time_key = 5;
0000d9   0b05     movai   0x5              	MOVAI	0x05
0000da   15b5     movra   0x35             	MOVRA	_time_key
                                           ;	.line	492; "HT_Leds.c"	key_id = 1;
0000db   0b01     movai   0x1              	MOVAI	0x01
0000dc   15b7     movra   0x37             	MOVRA	_key_id
                                           ;	.line	494; "HT_Leds.c"	break;
0000dd   2860     goto    0x60             	GOTO	_00252_DS_
                                           _00241_DS_
                                           ;	.line	496; "HT_Leds.c"	if(time_key == 0)
0000de   0b00     movai   0                	MOVAI	0x00
0000df   1735     orar    0x35             	ORAR	_time_key
0000e0   3103     jbset   0x3, 0x2         	JBSET	STATUS,2
0000e1   2860     goto    0x60             	GOTO	_00252_DS_
                                           ;	.line	498; "HT_Leds.c"	KEY_SEND_PLAY = 0;
0000e2   3c05     bclr    0x5, 0           	BCLR	_P0bits,0
                                           ;	.line	499; "HT_Leds.c"	time_key = 5;   
0000e3   0b05     movai   0x5              	MOVAI	0x05
0000e4   15b5     movra   0x35             	MOVRA	_time_key
                                           ;	.line	500; "HT_Leds.c"	key_id = 2;
0000e5   0b02     movai   0x2              	MOVAI	0x02
0000e6   15b7     movra   0x37             	MOVRA	_key_id
                                           ;	.line	502; "HT_Leds.c"	break;
0000e7   2860     goto    0x60             	GOTO	_00252_DS_
                                           _00244_DS_
                                           ;	.line	504; "HT_Leds.c"	if(time_key == 0)
0000e8   0b00     movai   0                	MOVAI	0x00
0000e9   1735     orar    0x35             	ORAR	_time_key
0000ea   3103     jbset   0x3, 0x2         	JBSET	STATUS,2
0000eb   2860     goto    0x60             	GOTO	_00252_DS_
                                           ;	.line	506; "HT_Leds.c"	KEY_SEND_NEXT = 0;
0000ec   3e06     bclr    0x6, 0x4         	BCLR	_P1bits,4
                                           ;	.line	507; "HT_Leds.c"	time_key = 5;  
0000ed   0b05     movai   0x5              	MOVAI	0x05
0000ee   15b5     movra   0x35             	MOVRA	_time_key
                                           ;	.line	508; "HT_Leds.c"	key_id = 3;
0000ef   0b03     movai   0x3              	MOVAI	0x03
0000f0   15b7     movra   0x37             	MOVRA	_key_id
                                           ;	.line	516; "HT_Leds.c"	if(led_state == 7)
0000f1   2860     goto    0x60             	GOTO	_00252_DS_
0000f2   000c     return                   	RETURN	
                                           ; exit point of _main
                                           
                                           ;***
                                           ;  pBlock Stats: dbName = C
                                           ;***
                                           ;entry:  _IIC_read_onebyte	;Function start
                                           ; 2 exit points
                                           ;has an exit
                                           ;functions called:
                                           ;   _I2C_Start
                                           ;   _I2C_SendByte
                                           ;   _I2C_SendByte
                                           ;   _I2C_SendByte
                                           ;   _I2C_SendByte
                                           ;   _I2C_SendByte
                                           ;   _I2C_SendByte
                                           ;   _I2C_SendByte
                                           ;   _I2C_SendByte
                                           ;   _I2C_Ack
                                           ;   _I2C_SendByte
                                           ;   _I2C_Ack
                                           ;   _I2C_Start
                                           ;   _I2C_SendByte
                                           ;   _I2C_Ack
                                           ;   _I2C_ReceiveByte
                                           ;   _I2C_NoAck
                                           ;   _I2C_Stop
                                           ;   _I2C_Start
                                           ;   _I2C_SendByte
                                           ;   _I2C_SendByte
                                           ;   _I2C_SendByte
                                           ;   _I2C_SendByte
                                           ;   _I2C_SendByte
                                           ;   _I2C_SendByte
                                           ;   _I2C_SendByte
                                           ;   _I2C_SendByte
                                           ;   _I2C_Ack
                                           ;   _I2C_SendByte
                                           ;   _I2C_Ack
                                           ;   _I2C_Start
                                           ;   _I2C_SendByte
                                           ;   _I2C_Ack
                                           ;   _I2C_ReceiveByte
                                           ;   _I2C_NoAck
                                           ;   _I2C_Stop
                                           ;1 compiler assigned register :
                                           ;   r0x1017
                                           ;; Starting pCode block
                                           _IIC_read_onebyte	;Function start
                                           ; 2 exit points
                                           ;	.line	832; "HT_Leds.c"	void IIC_read_onebyte(uchar read_add)
0000f3   159f     movra   0x1f             	MOVRA	r0x1017
                                           ;	.line	837; "HT_Leds.c"	I2C_Start();
0000f4   2170     call    0x170            	CALL	_I2C_Start
                                           ;	.line	838; "HT_Leds.c"	I2C_SendByte(0xa0);       //
0000f5   0ba0     movai   0xa0             	MOVAI	0xa0
0000f6   2135     call    0x135            	CALL	_I2C_SendByte
                                           ;	.line	839; "HT_Leds.c"	I2C_SendByte(0xa0);       //
0000f7   0ba0     movai   0xa0             	MOVAI	0xa0
0000f8   2135     call    0x135            	CALL	_I2C_SendByte
                                           ;	.line	840; "HT_Leds.c"	I2C_SendByte(0xa0);       //
0000f9   0ba0     movai   0xa0             	MOVAI	0xa0
0000fa   2135     call    0x135            	CALL	_I2C_SendByte
                                           ;	.line	841; "HT_Leds.c"	I2C_SendByte(0xa0);       //
0000fb   0ba0     movai   0xa0             	MOVAI	0xa0
0000fc   2135     call    0x135            	CALL	_I2C_SendByte
                                           ;	.line	842; "HT_Leds.c"	I2C_SendByte(0xa0);       //
0000fd   0ba0     movai   0xa0             	MOVAI	0xa0
0000fe   2135     call    0x135            	CALL	_I2C_SendByte
                                           ;	.line	843; "HT_Leds.c"	I2C_SendByte(0xa0);       //
0000ff   0ba0     movai   0xa0             	MOVAI	0xa0
000100   2135     call    0x135            	CALL	_I2C_SendByte
                                           ;	.line	844; "HT_Leds.c"	I2C_SendByte(0xa0);       //
000101   0ba0     movai   0xa0             	MOVAI	0xa0
000102   2135     call    0x135            	CALL	_I2C_SendByte
                                           ;	.line	845; "HT_Leds.c"	I2C_SendByte(0xa0);       //
000103   0ba0     movai   0xa0             	MOVAI	0xa0
000104   2135     call    0x135            	CALL	_I2C_SendByte
                                           ;	.line	846; "HT_Leds.c"	I2C_Ack();
000105   2159     call    0x159            	CALL	_I2C_Ack
                                           ;	.line	848; "HT_Leds.c"	I2C_SendByte(read_add);   // 
000106   161f     movar   0x1f             	MOVAR	r0x1017
000107   2135     call    0x135            	CALL	_I2C_SendByte
                                           ;	.line	849; "HT_Leds.c"	I2C_Ack();
000108   2159     call    0x159            	CALL	_I2C_Ack
                                           ;	.line	851; "HT_Leds.c"	I2C_Start();
000109   2170     call    0x170            	CALL	_I2C_Start
                                           ;	.line	852; "HT_Leds.c"	I2C_SendByte(0xa1); //
00010a   0ba1     movai   0xa1             	MOVAI	0xa1
00010b   2135     call    0x135            	CALL	_I2C_SendByte
                                           ;	.line	853; "HT_Leds.c"	I2C_Ack();
00010c   2159     call    0x159            	CALL	_I2C_Ack
                                           ;	.line	854; "HT_Leds.c"	iic_data = I2C_ReceiveByte();
00010d   211e     call    0x11e            	CALL	_I2C_ReceiveByte
00010e   15ba     movra   0x3a             	MOVRA	_iic_data
                                           ;	.line	856; "HT_Leds.c"	I2C_NoAck();
00010f   214e     call    0x14e            	CALL	_I2C_NoAck
                                           ;	.line	857; "HT_Leds.c"	I2C_Stop();   
000110   2165     call    0x165            	CALL	_I2C_Stop
000111   000c     return                   	RETURN	
                                           ; exit point of _IIC_read_onebyte
                                           
                                           ;***
                                           ;  pBlock Stats: dbName = C
                                           ;***
                                           ;entry:  _IIC_write_onebyte	;Function start
                                           ; 2 exit points
                                           ;has an exit
                                           ;functions called:
                                           ;   _I2C_Start
                                           ;   _I2C_SendByte
                                           ;   _I2C_SendByte
                                           ;   _I2C_SendByte
                                           ;   _I2C_Stop
                                           ;   _I2C_Start
                                           ;   _I2C_SendByte
                                           ;   _I2C_SendByte
                                           ;   _I2C_SendByte
                                           ;   _I2C_Stop
                                           ;3 compiler assigned registers:
                                           ;   r0x1018
                                           ;   STK00
                                           ;   r0x1019
                                           ;; Starting pCode block
                                           _IIC_write_onebyte	;Function start
                                           ; 2 exit points
                                           ;	.line	818; "HT_Leds.c"	void IIC_write_onebyte(uchar write_add,uchar write_data)
000112   159d     movra   0x1d             	MOVRA	r0x1018
000113   1616     movar   0x16             	MOVAR	STK00
000114   159e     movra   0x1e             	MOVRA	r0x1019
                                           ;	.line	820; "HT_Leds.c"	I2C_Start();
000115   2170     call    0x170            	CALL	_I2C_Start
                                           ;	.line	821; "HT_Leds.c"	I2C_SendByte(0xa0);       //
000116   0ba0     movai   0xa0             	MOVAI	0xa0
000117   2135     call    0x135            	CALL	_I2C_SendByte
                                           ;	.line	824; "HT_Leds.c"	I2C_SendByte(write_add);  // 
000118   161d     movar   0x1d             	MOVAR	r0x1018
000119   2135     call    0x135            	CALL	_I2C_SendByte
                                           ;	.line	827; "HT_Leds.c"	I2C_SendByte(write_data);  //
00011a   161e     movar   0x1e             	MOVAR	r0x1019
00011b   2135     call    0x135            	CALL	_I2C_SendByte
                                           ;	.line	829; "HT_Leds.c"	I2C_Stop();      
00011c   2165     call    0x165            	CALL	_I2C_Stop
00011d   000c     return                   	RETURN	
                                           ; exit point of _IIC_write_onebyte
                                           
                                           ;***
                                           ;  pBlock Stats: dbName = C
                                           ;***
                                           ;entry:  _I2C_ReceiveByte	;Function start
                                           ; 2 exit points
                                           ;has an exit
                                           ;functions called:
                                           ;   _I2C_delay
                                           ;   _I2C_delay
                                           ;   _I2C_delay
                                           ;   _I2C_delay
                                           ;2 compiler assigned registers:
                                           ;   r0x1015
                                           ;   r0x1016
                                           ;; Starting pCode block
                                           _I2C_ReceiveByte	;Function start
                                           ; 2 exit points
                                           ;	.line	801; "HT_Leds.c"	uchar ReceiveByte=0; 
00011e   1d9b     clrr    0x1b             	CLRR	r0x1015
                                           ;	.line	802; "HT_Leds.c"	SDA_H;     	       	           	       	       	  
00011f   3bc6     bset    0x46, 0x7        	BSET	_DDR1bits,7
                                           ;	.line	803; "HT_Leds.c"	for(i=0;i<8;i++)
000120   1d9c     clrr    0x1c             	CLRR	r0x1016
                                           ;;unsigned compare: left < lit(0x8=8), size=1
                                           _00353_DS_
000121   0b08     movai   0x8              	MOVAI	0x08
000122   121c     rsubar  0x1c             	RSUBAR	r0x1016
000123   3403     jbclr   0x3, 0           	JBCLR	STATUS,0
000124   2931     goto    0x131            	GOTO	_00356_DS_
                                           ;;genSkipc:3246: created from rifx:0022609C
                                           ;	.line	805; "HT_Leds.c"	ReceiveByte<<=1;       
000125   3c03     bclr    0x3, 0           	BCLR	STATUS,0
000126   149b     rlr     0x1b             	RLR	r0x1015
                                           ;	.line	806; "HT_Leds.c"	SCL_L; 
000127   3f46     bclr    0x46, 0x6        	BCLR	_DDR1bits,6
000128   3f06     bclr    0x6, 0x6         	BCLR	_P1bits,6
                                           ;	.line	807; "HT_Leds.c"	I2C_delay(); 
000129   217b     call    0x17b            	CALL	_I2C_delay
                                           ;	.line	808; "HT_Leds.c"	SCL_H; 	       	       	       	    //SCL
00012a   3b46     bset    0x46, 0x6        	BSET	_DDR1bits,6
                                           ;	.line	809; "HT_Leds.c"	I2C_delay();   	       	       	
00012b   217b     call    0x17b            	CALL	_I2C_delay
                                           ;	.line	810; "HT_Leds.c"	if(SDA_read) 
00012c   3386     jbset   0x6, 0x7         	JBSET	_P1bits,7
00012d   292f     goto    0x12f            	GOTO	_00355_DS_
                                           ;	.line	811; "HT_Leds.c"	ReceiveByte|=0x01; 
00012e   381b     bset    0x1b, 0          	BSET	r0x1015,0
                                           _00355_DS_
                                           ;	.line	803; "HT_Leds.c"	for(i=0;i<8;i++)
00012f   199c     incr    0x1c             	INCR	r0x1016
000130   2921     goto    0x121            	GOTO	_00353_DS_
                                           _00356_DS_
                                           ;	.line	814; "HT_Leds.c"	SCL_L;     	       	       	       	   //SCL
000131   3f46     bclr    0x46, 0x6        	BCLR	_DDR1bits,6
000132   3f06     bclr    0x6, 0x6         	BCLR	_P1bits,6
                                           ;	.line	815; "HT_Leds.c"	return ReceiveByte; 
000133   161b     movar   0x1b             	MOVAR	r0x1015
000134   000c     return                   	RETURN	
                                           ; exit point of _I2C_ReceiveByte
                                           
                                           ;***
                                           ;  pBlock Stats: dbName = C
                                           ;***
                                           ;entry:  _I2C_SendByte	;Function start
                                           ; 2 exit points
                                           ;has an exit
                                           ;functions called:
                                           ;   _I2C_delay
                                           ;   _I2C_delay
                                           ;   _I2C_delay
                                           ;   _I2C_delay
                                           ;   _I2C_delay
                                           ;   _I2C_delay
                                           ;2 compiler assigned registers:
                                           ;   r0x1015
                                           ;   r0x1016
                                           ;; Starting pCode block
                                           _I2C_SendByte	;Function start
                                           ; 2 exit points
                                           ;	.line	776; "HT_Leds.c"	void I2C_SendByte(uchar SendByte) //// 
000135   159b     movra   0x1b             	MOVRA	r0x1015
                                           ;	.line	779; "HT_Leds.c"	for(i=0;i<8;i++)
000136   1d9c     clrr    0x1c             	CLRR	r0x1016
                                           ;;unsigned compare: left < lit(0x8=8), size=1
                                           _00343_DS_
000137   0b08     movai   0x8              	MOVAI	0x08
000138   121c     rsubar  0x1c             	RSUBAR	r0x1016
000139   3403     jbclr   0x3, 0           	JBCLR	STATUS,0
00013a   294b     goto    0x14b            	GOTO	_00346_DS_
                                           ;;genSkipc:3246: created from rifx:0022609C
                                           ;	.line	781; "HT_Leds.c"	SCL_L; 	       	       	  //SCL
00013b   3f46     bclr    0x46, 0x6        	BCLR	_DDR1bits,6
00013c   3f06     bclr    0x6, 0x6         	BCLR	_P1bits,6
                                           ;	.line	782; "HT_Leds.c"	I2C_delay(); 
00013d   217b     call    0x17b            	CALL	_I2C_delay
                                           ;	.line	783; "HT_Leds.c"	if((SendByte)&0x80) 
00013e   339b     jbset   0x1b, 0x7        	JBSET	r0x1015,7
00013f   2942     goto    0x142            	GOTO	_00341_DS_
                                           ;	.line	784; "HT_Leds.c"	SDA_H;  
000140   3bc6     bset    0x46, 0x7        	BSET	_DDR1bits,7
000141   2943     goto    0x143            	GOTO	_00342_DS_
                                           _00341_DS_
                                           ;	.line	786; "HT_Leds.c"	SDA_L;    
000142   3fc6     bclr    0x46, 0x7        	BCLR	_DDR1bits,7
                                           _00342_DS_
000143   3f86     bclr    0x6, 0x7         	BCLR	_P1bits,7
                                           ;	.line	787; "HT_Leds.c"	SendByte<<=1; 
000144   3c03     bclr    0x3, 0           	BCLR	STATUS,0
000145   149b     rlr     0x1b             	RLR	r0x1015
                                           ;	.line	788; "HT_Leds.c"	I2C_delay(); 
000146   217b     call    0x17b            	CALL	_I2C_delay
                                           ;	.line	789; "HT_Leds.c"	SCL_H; 	       	        //SDA
000147   3b46     bset    0x46, 0x6        	BSET	_DDR1bits,6
                                           ;	.line	790; "HT_Leds.c"	I2C_delay(); 
000148   217b     call    0x17b            	CALL	_I2C_delay
                                           ;	.line	779; "HT_Leds.c"	for(i=0;i<8;i++)
000149   199c     incr    0x1c             	INCR	r0x1016
00014a   2937     goto    0x137            	GOTO	_00343_DS_
                                           _00346_DS_
                                           ;	.line	792; "HT_Leds.c"	SCL_L;     	       	       	//SCL
00014b   3f46     bclr    0x46, 0x6        	BCLR	_DDR1bits,6
00014c   3f06     bclr    0x6, 0x6         	BCLR	_P1bits,6
00014d   000c     return                   	RETURN	
                                           ; exit point of _I2C_SendByte
                                           
                                           ;***
                                           ;  pBlock Stats: dbName = C
                                           ;***
                                           ;entry:  _I2C_NoAck	;Function start
                                           ; 2 exit points
                                           ;has an exit
                                           ;functions called:
                                           ;   _I2C_delay
                                           ;   _I2C_delay
                                           ;   _I2C_delay
                                           ;   _I2C_delay
                                           ;   _I2C_delay
                                           ;   _I2C_delay
                                           ;   _I2C_delay
                                           ;   _I2C_delay
                                           ;; Starting pCode block
                                           _I2C_NoAck	;Function start
                                           ; 2 exit points
                                           ;	.line	763; "HT_Leds.c"	SCL_L; 
00014e   3f46     bclr    0x46, 0x6        	BCLR	_DDR1bits,6
00014f   3f06     bclr    0x6, 0x6         	BCLR	_P1bits,6
                                           ;	.line	764; "HT_Leds.c"	I2C_delay(); 
000150   217b     call    0x17b            	CALL	_I2C_delay
                                           ;	.line	765; "HT_Leds.c"	SDA_H; 
000151   3bc6     bset    0x46, 0x7        	BSET	_DDR1bits,7
                                           ;	.line	766; "HT_Leds.c"	I2C_delay(); 
000152   217b     call    0x17b            	CALL	_I2C_delay
                                           ;	.line	767; "HT_Leds.c"	SCL_H; 
000153   3b46     bset    0x46, 0x6        	BSET	_DDR1bits,6
                                           ;	.line	768; "HT_Leds.c"	I2C_delay(); 
000154   217b     call    0x17b            	CALL	_I2C_delay
                                           ;	.line	769; "HT_Leds.c"	SCL_L; 
000155   3f46     bclr    0x46, 0x6        	BCLR	_DDR1bits,6
000156   3f06     bclr    0x6, 0x6         	BCLR	_P1bits,6
                                           ;	.line	770; "HT_Leds.c"	I2C_delay(); 
000157   217b     call    0x17b            	CALL	_I2C_delay
000158   000c     return                   	RETURN	
                                           ; exit point of _I2C_NoAck
                                           
                                           ;***
                                           ;  pBlock Stats: dbName = C
                                           ;***
                                           ;entry:  _I2C_Ack	;Function start
                                           ; 2 exit points
                                           ;has an exit
                                           ;functions called:
                                           ;   _I2C_delay
                                           ;   _I2C_delay
                                           ;   _I2C_delay
                                           ;   _I2C_delay
                                           ;   _I2C_delay
                                           ;   _I2C_delay
                                           ;   _I2C_delay
                                           ;   _I2C_delay
                                           ;; Starting pCode block
                                           _I2C_Ack	;Function start
                                           ; 2 exit points
                                           ;	.line	749; "HT_Leds.c"	SCL_L; 
000159   3f46     bclr    0x46, 0x6        	BCLR	_DDR1bits,6
00015a   3f06     bclr    0x6, 0x6         	BCLR	_P1bits,6
                                           ;	.line	750; "HT_Leds.c"	I2C_delay(); 
00015b   217b     call    0x17b            	CALL	_I2C_delay
                                           ;	.line	751; "HT_Leds.c"	SDA_L; 
00015c   3fc6     bclr    0x46, 0x7        	BCLR	_DDR1bits,7
00015d   3f86     bclr    0x6, 0x7         	BCLR	_P1bits,7
                                           ;	.line	752; "HT_Leds.c"	I2C_delay(); 
00015e   217b     call    0x17b            	CALL	_I2C_delay
                                           ;	.line	753; "HT_Leds.c"	SCL_H; 
00015f   3b46     bset    0x46, 0x6        	BSET	_DDR1bits,6
                                           ;	.line	754; "HT_Leds.c"	I2C_delay(); 
000160   217b     call    0x17b            	CALL	_I2C_delay
                                           ;	.line	755; "HT_Leds.c"	SCL_L; 
000161   3f46     bclr    0x46, 0x6        	BCLR	_DDR1bits,6
000162   3f06     bclr    0x6, 0x6         	BCLR	_P1bits,6
                                           ;	.line	756; "HT_Leds.c"	I2C_delay(); 
000163   217b     call    0x17b            	CALL	_I2C_delay
000164   000c     return                   	RETURN	
                                           ; exit point of _I2C_Ack
                                           
                                           ;***
                                           ;  pBlock Stats: dbName = C
                                           ;***
                                           ;entry:  _I2C_Stop	;Function start
                                           ; 2 exit points
                                           ;has an exit
                                           ;functions called:
                                           ;   _I2C_delay
                                           ;   _I2C_delay
                                           ;   _I2C_delay
                                           ;   _I2C_delay
                                           ;   _I2C_delay
                                           ;   _I2C_delay
                                           ;   _I2C_delay
                                           ;   _I2C_delay
                                           ;; Starting pCode block
                                           _I2C_Stop	;Function start
                                           ; 2 exit points
                                           ;	.line	735; "HT_Leds.c"	SDA_L;
000165   3fc6     bclr    0x46, 0x7        	BCLR	_DDR1bits,7
000166   3f86     bclr    0x6, 0x7         	BCLR	_P1bits,7
                                           ;	.line	736; "HT_Leds.c"	I2C_delay(); 
000167   217b     call    0x17b            	CALL	_I2C_delay
                                           ;	.line	737; "HT_Leds.c"	SCL_H; 
000168   3b46     bset    0x46, 0x6        	BSET	_DDR1bits,6
                                           ;	.line	738; "HT_Leds.c"	I2C_delay(); 
000169   217b     call    0x17b            	CALL	_I2C_delay
                                           ;	.line	739; "HT_Leds.c"	SDA_H; 
00016a   3bc6     bset    0x46, 0x7        	BSET	_DDR1bits,7
                                           ;	.line	740; "HT_Leds.c"	I2C_delay(); 
00016b   217b     call    0x17b            	CALL	_I2C_delay
                                           ;	.line	741; "HT_Leds.c"	SCL_L; 
00016c   3f46     bclr    0x46, 0x6        	BCLR	_DDR1bits,6
00016d   3f06     bclr    0x6, 0x6         	BCLR	_P1bits,6
                                           ;	.line	742; "HT_Leds.c"	I2C_delay();
00016e   217b     call    0x17b            	CALL	_I2C_delay
00016f   000c     return                   	RETURN	
                                           ; exit point of _I2C_Stop
                                           
                                           ;***
                                           ;  pBlock Stats: dbName = C
                                           ;***
                                           ;entry:  _I2C_Start	;Function start
                                           ; 2 exit points
                                           ;has an exit
                                           ;functions called:
                                           ;   _I2C_delay
                                           ;   _I2C_delay
                                           ;   _I2C_delay
                                           ;   _I2C_delay
                                           ;   _I2C_delay
                                           ;   _I2C_delay
                                           ;   _I2C_delay
                                           ;   _I2C_delay
                                           ;; Starting pCode block
                                           _I2C_Start	;Function start
                                           ; 2 exit points
                                           ;	.line	721; "HT_Leds.c"	SDA_H; 
000170   3bc6     bset    0x46, 0x7        	BSET	_DDR1bits,7
                                           ;	.line	722; "HT_Leds.c"	I2C_delay();
000171   217b     call    0x17b            	CALL	_I2C_delay
                                           ;	.line	723; "HT_Leds.c"	SCL_H; 
000172   3b46     bset    0x46, 0x6        	BSET	_DDR1bits,6
                                           ;	.line	724; "HT_Leds.c"	I2C_delay();   	  
000173   217b     call    0x17b            	CALL	_I2C_delay
                                           ;	.line	725; "HT_Leds.c"	SDA_L; 
000174   3fc6     bclr    0x46, 0x7        	BCLR	_DDR1bits,7
000175   3f86     bclr    0x6, 0x7         	BCLR	_P1bits,7
                                           ;	.line	726; "HT_Leds.c"	I2C_delay();   	       	       	       	       	               	
000176   217b     call    0x17b            	CALL	_I2C_delay
                                           ;	.line	727; "HT_Leds.c"	SCL_L; 
000177   3f46     bclr    0x46, 0x6        	BCLR	_DDR1bits,6
000178   3f06     bclr    0x6, 0x6         	BCLR	_P1bits,6
                                           ;	.line	728; "HT_Leds.c"	I2C_delay();
000179   217b     call    0x17b            	CALL	_I2C_delay
00017a   000c     return                   	RETURN	
                                           ; exit point of _I2C_Start
                                           
                                           ;***
                                           ;  pBlock Stats: dbName = C
                                           ;***
                                           ;entry:  _I2C_delay	;Function start
                                           ; 2 exit points
                                           ;has an exit
                                           ;1 compiler assigned register :
                                           ;   r0x1014
                                           ;; Starting pCode block
                                           _I2C_delay	;Function start
                                           ; 2 exit points
                                           ;	.line	711; "HT_Leds.c"	while(i)  
00017b   0b64     movai   0x64             	MOVAI	0x64
00017c   159a     movra   0x1a             	MOVRA	r0x1014
                                           _00316_DS_
00017d   0b00     movai   0                	MOVAI	0x00
00017e   171a     orar    0x1a             	ORAR	r0x1014
00017f   3503     jbclr   0x3, 0x2         	JBCLR	STATUS,2
000180   2983     goto    0x183            	GOTO	_00319_DS_
                                           ;	.line	713; "HT_Leds.c"	i--;  
000181   1b9a     decr    0x1a             	DECR	r0x1014
000182   297d     goto    0x17d            	GOTO	_00316_DS_
                                           _00319_DS_
000183   000c     return                   	RETURN	
                                           ; exit point of _I2C_delay
                                           
                                           ;***
                                           ;  pBlock Stats: dbName = C
                                           ;***
                                           ;entry:  _stop	;Function start
                                           ; 2 exit points
                                           ;has an exit
                                           ;; Starting pCode block
                                           _stop	;Function start
                                           ; 2 exit points
000184   0000     nop                      	nop
000185   0000     nop                      	nop
000186   3986     bset    0x6, 0x3         	bset P1,3
000187   0000     nop                      	nop
000188   0000     nop                      	nop
000189   0000     nop                      	nop
00018a   0000     nop                      	nop
00018b   0000     nop                      	nop
00018c   0000     nop                      	NOP
00018d   0000     nop                      	nop
00018e   0000     nop                      	nop
00018f   0000     nop                      	nop
000190   0000     nop                      	nop
000191   0000     nop                      	NOP
000192   0000     nop                      	nop
000193   0000     nop                      	nop
000194   0000     nop                      	NOP
000195   0000     nop                      	nop
000196   0000     nop                      	nop
000197   0000     nop                      	NOP
000198   0000     nop                      	nop
000199   0000     nop                      	nop
00019a   0000     nop                      	NOP
00019b   0000     nop                      	nop
00019c   0000     nop                      	nop
00019d   0000     nop                      	NOP
00019e   0000     nop                      	nop
00019f   0000     nop                      	nop
0001a0   0000     nop                      	NOP
0001a1   0000     nop                      	nop
0001a2   0000     nop                      	nop
0001a3   0000     nop                      	NOP
0001a4   0000     nop                      	nop
0001a5   0000     nop                      	nop
0001a6   0000     nop                      	NOP
0001a7   0000     nop                      	nop
0001a8   0000     nop                      	nop
0001a9   0000     nop                      	NOP
0001aa   0000     nop                      	nop
0001ab   0000     nop                      	nop
0001ac   0000     nop                      	NOP
0001ad   0000     nop                      	nop
0001ae   0000     nop                      	nop
0001af   0000     nop                      	nop
0001b0   000b     sleep                    	stop
0001b1   0000     nop                      	nop
0001b2   0000     nop                      	nop
                                           	
0001b3   000c     return                   	RETURN	
                                           ; exit point of _stop
                                           
                                           ;***
                                           ;  pBlock Stats: dbName = C
                                           ;***
                                           ;entry:  _InitRam	;Function start
                                           ; 2 exit points
                                           ;has an exit
                                           ;; Starting pCode block
                                           _InitRam	;Function start
                                           ; 2 exit points
0001b4   0b3f     movai   0x3f             	movai 0x3f
0001b5   1584     movra   0x4              	movra FSR
0001b6   0b2f     movai   0x2f             	movai 47
0001b7   1587     movra   0x7              	movra _GPR
0001b8   1b84     decr    0x4              	decr FSR
0001b9   1d80     clrr    0                	clrr INDF
0001ba   1a87     djzr    0x7              	djzr _GPR
0001bb   0000     nop                      	nop
0001bc   0000     nop                      	nop
0001bd   0000     nop                      	nop
0001be   0000     nop                      	nop
0001bf   0000     nop                      	nop
0001c0   0000     nop                      	nop
0001c1   0000     nop                      	nop
0001c2   0000     nop                      	nop
0001c3   0000     nop                      	nop
0001c4   0000     nop                      	nop
0001c5   0000     nop                      	nop
0001c6   0000     nop                      	nop
0001c7   0000     nop                      	nop
0001c8   0000     nop                      	nop
0001c9   0000     nop                      	nop
0001ca   0000     nop                      	nop
0001cb   0000     nop                      	nop
0001cc   0000     nop                      	nop
0001cd   29ca     goto    0x1ca            	goto $-3
0001ce   1d80     clrr    0                	clrr INDF
0001cf   1d87     clrr    0x7              	clrr _GPR
                                           	
0001d0   000c     return                   	RETURN	
                                           ; exit point of _InitRam
                                           
                                           ;***
                                           ;  pBlock Stats: dbName = C
                                           ;***
                                           ;entry:  _Init_sys	;Function start
                                           ; 2 exit points
                                           ;has an exit
                                           ;; Starting pCode block
                                           _Init_sys	;Function start
                                           ; 2 exit points
                                           ;	.line	280; "HT_Leds.c"	P0    = 0xf1;  	//1111 0001
0001d1   0bf1     movai   0xf1             	MOVAI	0xf1
0001d2   1585     movra   0x5              	MOVRA	_P0
                                           ;	.line	281; "HT_Leds.c"	DDR0  = 0x00;  //0000 0000 	0--
0001d3   1dc5     clrr    0x45             	CLRR	_DDR0
                                           ;	.line	282; "HT_Leds.c"	PUCON = 0x00;  //0-- 
0001d4   1d8d     clrr    0xd              	CLRR	_PUCON
                                           ;	.line	284; "HT_Leds.c"	P1    = 0xff;
0001d5   0bff     movai   0xff             	MOVAI	0xff
0001d6   1586     movra   0x6              	MOVRA	_P1
                                           ;	.line	285; "HT_Leds.c"	DDR1  = 0x01;  //0000 0001 	0--
0001d7   0b01     movai   0x1              	MOVAI	0x01
0001d8   15c6     movra   0x46             	MOVRA	_DDR1
                                           ;	.line	286; "HT_Leds.c"	PUCON = 0x00;  //0-- 
0001d9   1d8d     clrr    0xd              	CLRR	_PUCON
                                           ;	.line	288; "HT_Leds.c"	T0CR  = 0x01;   
0001da   0b01     movai   0x1              	MOVAI	0x01
0001db   15c1     movra   0x41             	MOVRA	_T0CR
                                           ;	.line	289; "HT_Leds.c"	T0IE  = 1; 
0001dc   380e     bset    0xe, 0           	BSET	_INTECONbits,0
                                           ;	.line	291; "HT_Leds.c"	T1CR  = 0x00;   
0001dd   1dcc     clrr    0x4c             	CLRR	_T1CR
                                           ;	.line	292; "HT_Leds.c"	TC1EN = 1;
0001de   3bcc     bset    0x4c, 0x7        	BSET	_T1CRbits,7
                                           ;	.line	295; "HT_Leds.c"	PWMCR = 0x42;      	//0100 0010
0001df   0b42     movai   0x42             	MOVAI	0x42
0001e0   15c8     movra   0x48             	MOVRA	_PWMCR
                                           ;	.line	296; "HT_Leds.c"	PWM1E = 1;
0001e1   38c8     bset    0x48, 0x1        	BSET	_PWMCRbits,1
                                           ;	.line	297; "HT_Leds.c"	T1CR = 0xc8;
0001e2   0bc8     movai   0xc8             	MOVAI	0xc8
0001e3   15cc     movra   0x4c             	MOVRA	_T1CR
                                           ;	.line	298; "HT_Leds.c"	T1LOAD = 249;  	//T1LOAD=249 -- 15.85K
0001e4   0bf9     movai   0xf9             	MOVAI	0xf9
0001e5   15ce     movra   0x4e             	MOVRA	_T1LOAD
                                           ;	.line	299; "HT_Leds.c"	T1DATA0 = 0x10;
0001e6   0b10     movai   0x10             	MOVAI	0x10
0001e7   15cf     movra   0x4f             	MOVRA	_T1DATA0
                                           ;	.line	300; "HT_Leds.c"	T1DATA1 = 80;
0001e8   0b50     movai   0x50             	MOVAI	0x50
0001e9   15c9     movra   0x49             	MOVRA	_T1DATA1
0001ea   000c     return                   	RETURN	
                                           ; exit point of _Init_sys
                                           
                                           ;***
                                           ;  pBlock Stats: dbName = C
                                           ;***
                                           ;entry:  _Timecontr	;Function start
                                           ; 2 exit points
                                           ;has an exit
                                           ;; Starting pCode block
                                           _Timecontr	;Function start
                                           ; 2 exit points
                                           ;	.line	258; "HT_Leds.c"	R_timecontr1++;
0001eb   19ae     incr    0x2e             	INCR	_R_timecontr1
                                           ;;swapping arguments (AOP_TYPEs 1/3)
                                           ;;unsigned compare: left >= lit(0xFA=250), size=1
                                           ;	.line	259; "HT_Leds.c"	if(R_timecontr1>249)
0001ec   0bfa     movai   0xfa             	MOVAI	0xfa
0001ed   122e     rsubar  0x2e             	RSUBAR	_R_timecontr1
0001ee   3003     jbset   0x3, 0           	JBSET	STATUS,0
0001ef   29ff     goto    0x1ff            	GOTO	_00202_DS_
                                           ;;genSkipc:3246: created from rifx:0022609C
                                           ;	.line	261; "HT_Leds.c"	R_timecontr1 = 0;  //250ms
0001f0   1dae     clrr    0x2e             	CLRR	_R_timecontr1
                                           ;	.line	262; "HT_Leds.c"	F_t25flag    = 1;
0001f1   38b3     bset    0x33, 0x1        	BSET	_Flag2,1
                                           ;	.line	263; "HT_Leds.c"	R_timecontr2++;
0001f2   19af     incr    0x2f             	INCR	_R_timecontr2
                                           ;;swapping arguments (AOP_TYPEs 1/3)
                                           ;;unsigned compare: left >= lit(0xF0=240), size=1
                                           ;	.line	264; "HT_Leds.c"	if(R_timecontr2>239)
0001f3   0bf0     movai   0xf0             	MOVAI	0xf0
0001f4   122f     rsubar  0x2f             	RSUBAR	_R_timecontr2
0001f5   3003     jbset   0x3, 0           	JBSET	STATUS,0
0001f6   29ff     goto    0x1ff            	GOTO	_00202_DS_
                                           ;;genSkipc:3246: created from rifx:0022609C
                                           ;	.line	266; "HT_Leds.c"	R_timecontr2=0;
0001f7   1daf     clrr    0x2f             	CLRR	_R_timecontr2
                                           ;	.line	267; "HT_Leds.c"	R_timecontr3++;
0001f8   19b0     incr    0x30             	INCR	_R_timecontr3
                                           ;;swapping arguments (AOP_TYPEs 1/3)
                                           ;;unsigned compare: left >= lit(0x2=2), size=1
                                           ;	.line	268; "HT_Leds.c"	if(R_timecontr3>1) //29
0001f9   0b02     movai   0x2              	MOVAI	0x02
0001fa   1230     rsubar  0x30             	RSUBAR	_R_timecontr3
0001fb   3003     jbset   0x3, 0           	JBSET	STATUS,0
0001fc   29ff     goto    0x1ff            	GOTO	_00202_DS_
                                           ;;genSkipc:3246: created from rifx:0022609C
                                           ;	.line	270; "HT_Leds.c"	R_timecontr3 = 0;
0001fd   1db0     clrr    0x30             	CLRR	_R_timecontr3
                                           ;	.line	271; "HT_Leds.c"	F_tofflag    = 1;
0001fe   3933     bset    0x33, 0x2        	BSET	_Flag2,2
                                           _00202_DS_
0001ff   000c     return                   	RETURN	
                                           ; exit point of _Timecontr
                                           
                                           ;***
                                           ;  pBlock Stats: dbName = C
                                           ;***
                                           ;entry:  _Ir_Decode	;Function start
                                           ; 2 exit points
                                           ;has an exit
                                           ;2 compiler assigned registers:
                                           ;   r0x101B
                                           ;   r0x101C
                                           ;; Starting pCode block
                                           _Ir_Decode	;Function start
                                           ; 2 exit points
                                           ;	.line	54; "HT_Leds.c"	if(F_irokflag==0)      
000200   35b2     jbclr   0x32, 0x3        	JBCLR	_Flag1,3
000201   2ab4     goto    0x2b4            	GOTO	_00189_DS_
                                           ;	.line	56; "HT_Leds.c"	if(F_irflag==0)      
000202   3532     jbclr   0x32, 0x2        	JBCLR	_Flag1,2
000203   2a0e     goto    0x20e            	GOTO	_00162_DS_
                                           ;	.line	58; "HT_Leds.c"	if(IR_read==0)      
000204   3406     jbclr   0x6, 0           	JBCLR	_P1bits,0
000205   2aed     goto    0x2ed            	GOTO	_00191_DS_
                                           ;	.line	60; "HT_Leds.c"	F_irflag = 1;
000206   3932     bset    0x32, 0x2        	BSET	_Flag1,2
                                           ;	.line	61; "HT_Leds.c"	F_leadflag=0;
000207   3eb2     bclr    0x32, 0x5        	BCLR	_Flag1,5
                                           ;	.line	62; "HT_Leds.c"	F_hlflag = 0;//,0
000208   3f32     bclr    0x32, 0x6        	BCLR	_Flag1,6
                                           ;	.line	64; "HT_Leds.c"	R_irtimes = 0;
000209   1dac     clrr    0x2c             	CLRR	_R_irtimes
                                           ;	.line	65; "HT_Leds.c"	R_irbytes = 0;
00020a   1dad     clrr    0x2d             	CLRR	_R_irbytes
                                           ;	.line	66; "HT_Leds.c"	R_irdata  = 0;
00020b   1dbd     clrr    0x3d             	CLRR	_R_irdata
                                           ;	.line	67; "HT_Leds.c"	R_ircount = 0;          
00020c   1dbe     clrr    0x3e             	CLRR	_R_ircount
00020d   2aed     goto    0x2ed            	GOTO	_00191_DS_
                                           _00162_DS_
                                           ;	.line	73; "HT_Leds.c"	if(F_leadflag==0)     
00020e   36b2     jbclr   0x32, 0x5        	JBCLR	_Flag1,5
00020f   2a48     goto    0x248            	GOTO	_00159_DS_
                                           ;	.line	75; "HT_Leds.c"	if(F_hlflag==0)
000210   3732     jbclr   0x32, 0x6        	JBCLR	_Flag1,6
000211   2a2a     goto    0x22a            	GOTO	_00127_DS_
                                           ;	.line	77; "HT_Leds.c"	R_ircount++;
000212   19be     incr    0x3e             	INCR	_R_ircount
                                           ;;unsigned compare: left < lit(0x64=100), size=1
                                           ;	.line	78; "HT_Leds.c"	if(R_ircount<100) 
000213   0b64     movai   0x64             	MOVAI	0x64
000214   123e     rsubar  0x3e             	RSUBAR	_R_ircount
000215   3403     jbclr   0x3, 0           	JBCLR	STATUS,0
000216   2a28     goto    0x228            	GOTO	_00113_DS_
                                           ;;genSkipc:3246: created from rifx:0022609C
                                           ;	.line	80; "HT_Leds.c"	if(IR_read==1)
000217   1d97     clrr    0x17             	CLRR	r0x101B
000218   3406     jbclr   0x6, 0           	JBCLR	_P1bits,0
000219   1997     incr    0x17             	INCR	r0x101B
                                           ;;108	MOVAR	r0x101B
                                           ;;107	MOVAR	r0x101C
00021a   1617     movar   0x17             	MOVAR	r0x101B
00021b   1598     movra   0x18             	MOVRA	r0x101C
00021c   0801     xorai   0x1              	XORAI	0x01
00021d   3103     jbset   0x3, 0x2         	JBSET	STATUS,2
00021e   2aed     goto    0x2ed            	GOTO	_00191_DS_
                                           ;;swapping arguments (AOP_TYPEs 1/3)
                                           ;;unsigned compare: left >= lit(0x3D=61), size=1
                                           ;	.line	82; "HT_Leds.c"	if(R_ircount>60)
00021f   0b3d     movai   0x3d             	MOVAI	0x3d
000220   123e     rsubar  0x3e             	RSUBAR	_R_ircount
000221   3003     jbset   0x3, 0           	JBSET	STATUS,0
000222   2a26     goto    0x226            	GOTO	_00108_DS_
                                           ;;genSkipc:3246: created from rifx:0022609C
                                           ;	.line	84; "HT_Leds.c"	R_ircount = 0;
000223   1dbe     clrr    0x3e             	CLRR	_R_ircount
                                           ;	.line	85; "HT_Leds.c"	F_hlflag  = 1; 
000224   3b32     bset    0x32, 0x6        	BSET	_Flag1,6
000225   2aed     goto    0x2ed            	GOTO	_00191_DS_
                                           _00108_DS_
                                           ;	.line	88; "HT_Leds.c"	F_irflag=0;
000226   3d32     bclr    0x32, 0x2        	BCLR	_Flag1,2
000227   2aed     goto    0x2ed            	GOTO	_00191_DS_
                                           _00113_DS_
                                           ;	.line	92; "HT_Leds.c"	F_irflag=0; 
000228   3d32     bclr    0x32, 0x2        	BCLR	_Flag1,2
000229   2aed     goto    0x2ed            	GOTO	_00191_DS_
                                           _00127_DS_
                                           ;	.line	96; "HT_Leds.c"	R_ircount++; 
00022a   19be     incr    0x3e             	INCR	_R_ircount
                                           ;;unsigned compare: left < lit(0x32=50), size=1
                                           ;	.line	97; "HT_Leds.c"	if(R_ircount<50)       
00022b   0b32     movai   0x32             	MOVAI	0x32
00022c   123e     rsubar  0x3e             	RSUBAR	_R_ircount
00022d   1d97     clrr    0x17             	CLRR	r0x101B
00022e   3003     jbset   0x3, 0           	JBSET	STATUS,0
00022f   3817     bset    0x17, 0          	BSET	r0x101B,0
000230   0b00     movai   0                	MOVAI	0x00
000231   1717     orar    0x17             	ORAR	r0x101B
000232   3503     jbclr   0x3, 0x2         	JBCLR	STATUS,2
000233   2a46     goto    0x246            	GOTO	_00124_DS_
                                           ;	.line	99; "HT_Leds.c"	if(IR_read==0)
000234   3406     jbclr   0x6, 0           	JBCLR	_P1bits,0
000235   2aed     goto    0x2ed            	GOTO	_00191_DS_
                                           ;;swapping arguments (AOP_TYPEs 1/3)
                                           ;;unsigned compare: left >= lit(0x29=41), size=1
                                           ;	.line	101; "HT_Leds.c"	if(R_ircount>40)
000236   0b29     movai   0x29             	MOVAI	0x29
000237   123e     rsubar  0x3e             	RSUBAR	_R_ircount
000238   3003     jbset   0x3, 0           	JBSET	STATUS,0
000239   2a44     goto    0x244            	GOTO	_00119_DS_
                                           ;;genSkipc:3246: created from rifx:0022609C
                                           ;	.line	103; "HT_Leds.c"	if(R_ircount<50)
00023a   0b00     movai   0                	MOVAI	0x00
00023b   1717     orar    0x17             	ORAR	r0x101B
00023c   3503     jbclr   0x3, 0x2         	JBCLR	STATUS,2
00023d   2a42     goto    0x242            	GOTO	_00116_DS_
                                           ;	.line	105; "HT_Leds.c"	R_ircount  = 0;
00023e   1dbe     clrr    0x3e             	CLRR	_R_ircount
                                           ;	.line	106; "HT_Leds.c"	F_hlflag   = 0;
00023f   3f32     bclr    0x32, 0x6        	BCLR	_Flag1,6
                                           ;	.line	107; "HT_Leds.c"	F_leadflag = 1;
000240   3ab2     bset    0x32, 0x5        	BSET	_Flag1,5
000241   2aed     goto    0x2ed            	GOTO	_00191_DS_
                                           _00116_DS_
                                           ;	.line	110; "HT_Leds.c"	F_irflag=0;
000242   3d32     bclr    0x32, 0x2        	BCLR	_Flag1,2
000243   2aed     goto    0x2ed            	GOTO	_00191_DS_
                                           _00119_DS_
                                           ;	.line	113; "HT_Leds.c"	F_irflag=0;
000244   3d32     bclr    0x32, 0x2        	BCLR	_Flag1,2
000245   2aed     goto    0x2ed            	GOTO	_00191_DS_
                                           _00124_DS_
                                           ;	.line	117; "HT_Leds.c"	F_irflag=0;
000246   3d32     bclr    0x32, 0x2        	BCLR	_Flag1,2
000247   2aed     goto    0x2ed            	GOTO	_00191_DS_
                                           _00159_DS_
                                           ;	.line	124; "HT_Leds.c"	if(F_hlflag==0)
000248   3732     jbclr   0x32, 0x6        	JBCLR	_Flag1,6
000249   2a62     goto    0x262            	GOTO	_00156_DS_
                                           ;	.line	126; "HT_Leds.c"	R_ircount++;
00024a   19be     incr    0x3e             	INCR	_R_ircount
                                           ;;unsigned compare: left < lit(0xA=10), size=1
                                           ;	.line	127; "HT_Leds.c"	if(R_ircount<10) 
00024b   0b0a     movai   0xa              	MOVAI	0x0a
00024c   123e     rsubar  0x3e             	RSUBAR	_R_ircount
00024d   3403     jbclr   0x3, 0           	JBCLR	STATUS,0
00024e   2a60     goto    0x260            	GOTO	_00135_DS_
                                           ;;genSkipc:3246: created from rifx:0022609C
                                           ;	.line	129; "HT_Leds.c"	if(IR_read==1)
00024f   1d97     clrr    0x17             	CLRR	r0x101B
000250   3406     jbclr   0x6, 0           	JBCLR	_P1bits,0
000251   1997     incr    0x17             	INCR	r0x101B
                                           ;;104	MOVAR	r0x101B
                                           ;;103	MOVAR	r0x101C
000252   1617     movar   0x17             	MOVAR	r0x101B
000253   1598     movra   0x18             	MOVRA	r0x101C
000254   0801     xorai   0x1              	XORAI	0x01
000255   3103     jbset   0x3, 0x2         	JBSET	STATUS,2
000256   2aed     goto    0x2ed            	GOTO	_00191_DS_
                                           ;;swapping arguments (AOP_TYPEs 1/3)
                                           ;;unsigned compare: left >= lit(0x4=4), size=1
                                           ;	.line	131; "HT_Leds.c"	if(R_ircount>3)
000257   0b04     movai   0x4              	MOVAI	0x04
000258   123e     rsubar  0x3e             	RSUBAR	_R_ircount
000259   3003     jbset   0x3, 0           	JBSET	STATUS,0
00025a   2a5e     goto    0x25e            	GOTO	_00130_DS_
                                           ;;genSkipc:3246: created from rifx:0022609C
                                           ;	.line	133; "HT_Leds.c"	R_ircount = 0;
00025b   1dbe     clrr    0x3e             	CLRR	_R_ircount
                                           ;	.line	134; "HT_Leds.c"	F_hlflag  = 1;                                              
00025c   3b32     bset    0x32, 0x6        	BSET	_Flag1,6
00025d   2aed     goto    0x2ed            	GOTO	_00191_DS_
                                           _00130_DS_
                                           ;	.line	137; "HT_Leds.c"	F_irflag=0;
00025e   3d32     bclr    0x32, 0x2        	BCLR	_Flag1,2
00025f   2aed     goto    0x2ed            	GOTO	_00191_DS_
                                           _00135_DS_
                                           ;	.line	141; "HT_Leds.c"	F_irflag=0;     
000260   3d32     bclr    0x32, 0x2        	BCLR	_Flag1,2
000261   2aed     goto    0x2ed            	GOTO	_00191_DS_
                                           _00156_DS_
                                           ;	.line	146; "HT_Leds.c"	R_ircount++; 
000262   19be     incr    0x3e             	INCR	_R_ircount
                                           ;;unsigned compare: left < lit(0x14=20), size=1
                                           ;	.line	147; "HT_Leds.c"	if(R_ircount<20)       
000263   0b14     movai   0x14             	MOVAI	0x14
000264   123e     rsubar  0x3e             	RSUBAR	_R_ircount
000265   3403     jbclr   0x3, 0           	JBCLR	STATUS,0
000266   2ab2     goto    0x2b2            	GOTO	_00153_DS_
                                           ;;genSkipc:3246: created from rifx:0022609C
                                           ;	.line	149; "HT_Leds.c"	if(IR_read==0)
000267   3406     jbclr   0x6, 0           	JBCLR	_P1bits,0
000268   2aed     goto    0x2ed            	GOTO	_00191_DS_
                                           ;;swapping arguments (AOP_TYPEs 1/3)
                                           ;;unsigned compare: left >= lit(0x3=3), size=1
                                           ;	.line	151; "HT_Leds.c"	if(R_ircount>2)
000269   0b03     movai   0x3              	MOVAI	0x03
00026a   123e     rsubar  0x3e             	RSUBAR	_R_ircount
00026b   3003     jbset   0x3, 0           	JBSET	STATUS,0
00026c   2aed     goto    0x2ed            	GOTO	_00191_DS_
                                           ;;genSkipc:3246: created from rifx:0022609C
                                           ;;unsigned compare: left < lit(0x8=8), size=1
                                           ;	.line	153; "HT_Leds.c"	if(R_ircount<8)
00026d   0b08     movai   0x8              	MOVAI	0x08
00026e   123e     rsubar  0x3e             	RSUBAR	_R_ircount
00026f   3403     jbclr   0x3, 0           	JBCLR	STATUS,0
000270   2a91     goto    0x291            	GOTO	_00146_DS_
                                           ;;genSkipc:3246: created from rifx:0022609C
                                           ;	.line	155; "HT_Leds.c"	R_ircount = 0;
000271   1dbe     clrr    0x3e             	CLRR	_R_ircount
                                           ;	.line	156; "HT_Leds.c"	F_hlflag = 0;                                            
000272   3f32     bclr    0x32, 0x6        	BCLR	_Flag1,6
                                           ;;shiftRight_Left2ResultLit:5278: shCount=1, size=1, sign=0, same=1, offr=0
                                           ;	.line	157; "HT_Leds.c"	R_irdata = R_irdata>>1;
000273   3c03     bclr    0x3, 0           	BCLR	STATUS,0
000274   13bd     rrr     0x3d             	RRR	_R_irdata
                                           ;	.line	158; "HT_Leds.c"	R_irtimes++;
000275   19ac     incr    0x2c             	INCR	_R_irtimes
                                           ;;swapping arguments (AOP_TYPEs 1/3)
                                           ;;unsigned compare: left >= lit(0x8=8), size=1
                                           ;	.line	159; "HT_Leds.c"	if(R_irtimes>7)
000276   0b08     movai   0x8              	MOVAI	0x08
000277   122c     rsubar  0x2c             	RSUBAR	_R_irtimes
000278   3003     jbset   0x3, 0           	JBSET	STATUS,0
000279   2aed     goto    0x2ed            	GOTO	_00191_DS_
                                           ;;genSkipc:3246: created from rifx:0022609C
                                           ;	.line	161; "HT_Leds.c"	R_irtimes = 0;
00027a   1dac     clrr    0x2c             	CLRR	_R_irtimes
                                           ;	.line	162; "HT_Leds.c"	R_irtable[R_irbytes]=R_irdata;
00027b   162d     movar   0x2d             	MOVAR	_R_irbytes
00027c   0e22     addai   0x22             	ADDAI	(_R_irtable + 0)
00027d   1597     movra   0x17             	MOVRA	r0x101B
00027e   0b00     movai   0                	MOVAI	high (_R_irtable + 0)
00027f   3403     jbclr   0x3, 0           	JBCLR	STATUS,0
000280   0e01     addai   0x1              	ADDAI	0x01
000281   1598     movra   0x18             	MOVRA	r0x101C
000282   1617     movar   0x17             	MOVAR	r0x101B
000283   1584     movra   0x4              	MOVRA	FSR
000284   3f83     bclr    0x3, 0x7         	BCLR	STATUS,7
000285   3418     jbclr   0x18, 0          	JBCLR	r0x101C,0
000286   3b83     bset    0x3, 0x7         	BSET	STATUS,7
000287   163d     movar   0x3d             	MOVAR	_R_irdata
000288   1580     movra   0                	MOVRA	INDF
                                           ;	.line	163; "HT_Leds.c"	R_irbytes++;
000289   19ad     incr    0x2d             	INCR	_R_irbytes
                                           ;;swapping arguments (AOP_TYPEs 1/3)
                                           ;;unsigned compare: left >= lit(0x4=4), size=1
                                           ;	.line	164; "HT_Leds.c"	if(R_irbytes>3)
00028a   0b04     movai   0x4              	MOVAI	0x04
00028b   122d     rsubar  0x2d             	RSUBAR	_R_irbytes
00028c   3003     jbset   0x3, 0           	JBSET	STATUS,0
00028d   2aed     goto    0x2ed            	GOTO	_00191_DS_
                                           ;;genSkipc:3246: created from rifx:0022609C
                                           ;	.line	166; "HT_Leds.c"	F_irokflag=1;
00028e   39b2     bset    0x32, 0x3        	BSET	_Flag1,3
                                           ;	.line	167; "HT_Leds.c"	F_irflag=0;
00028f   3d32     bclr    0x32, 0x2        	BCLR	_Flag1,2
000290   2aed     goto    0x2ed            	GOTO	_00191_DS_
                                           _00146_DS_
                                           ;	.line	173; "HT_Leds.c"	R_ircount = 0;
000291   1dbe     clrr    0x3e             	CLRR	_R_ircount
                                           ;	.line	174; "HT_Leds.c"	F_hlflag  = 0;
000292   3f32     bclr    0x32, 0x6        	BCLR	_Flag1,6
                                           ;;shiftRight_Left2ResultLit:5278: shCount=1, size=1, sign=0, same=1, offr=0
                                           ;	.line	175; "HT_Leds.c"	R_irdata  = R_irdata>>1;
000293   3c03     bclr    0x3, 0           	BCLR	STATUS,0
000294   13bd     rrr     0x3d             	RRR	_R_irdata
                                           ;	.line	176; "HT_Leds.c"	R_irdata  = R_irdata|0x80;
000295   3bbd     bset    0x3d, 0x7        	BSET	_R_irdata,7
                                           ;	.line	177; "HT_Leds.c"	R_irtimes++;
000296   19ac     incr    0x2c             	INCR	_R_irtimes
                                           ;;swapping arguments (AOP_TYPEs 1/3)
                                           ;;unsigned compare: left >= lit(0x8=8), size=1
                                           ;	.line	178; "HT_Leds.c"	if(R_irtimes>7)
000297   0b08     movai   0x8              	MOVAI	0x08
000298   122c     rsubar  0x2c             	RSUBAR	_R_irtimes
000299   3003     jbset   0x3, 0           	JBSET	STATUS,0
00029a   2aed     goto    0x2ed            	GOTO	_00191_DS_
                                           ;;genSkipc:3246: created from rifx:0022609C
                                           ;	.line	180; "HT_Leds.c"	R_irtimes = 0;
00029b   1dac     clrr    0x2c             	CLRR	_R_irtimes
                                           ;	.line	181; "HT_Leds.c"	R_irtable[R_irbytes]=R_irdata;
00029c   162d     movar   0x2d             	MOVAR	_R_irbytes
00029d   0e22     addai   0x22             	ADDAI	(_R_irtable + 0)
00029e   1597     movra   0x17             	MOVRA	r0x101B
00029f   0b00     movai   0                	MOVAI	high (_R_irtable + 0)
0002a0   3403     jbclr   0x3, 0           	JBCLR	STATUS,0
0002a1   0e01     addai   0x1              	ADDAI	0x01
0002a2   1598     movra   0x18             	MOVRA	r0x101C
0002a3   1617     movar   0x17             	MOVAR	r0x101B
0002a4   1584     movra   0x4              	MOVRA	FSR
0002a5   3f83     bclr    0x3, 0x7         	BCLR	STATUS,7
0002a6   3418     jbclr   0x18, 0          	JBCLR	r0x101C,0
0002a7   3b83     bset    0x3, 0x7         	BSET	STATUS,7
0002a8   163d     movar   0x3d             	MOVAR	_R_irdata
0002a9   1580     movra   0                	MOVRA	INDF
                                           ;	.line	182; "HT_Leds.c"	R_irbytes++;
0002aa   19ad     incr    0x2d             	INCR	_R_irbytes
                                           ;;swapping arguments (AOP_TYPEs 1/3)
                                           ;;unsigned compare: left >= lit(0x4=4), size=1
                                           ;	.line	183; "HT_Leds.c"	if(R_irbytes>3)
0002ab   0b04     movai   0x4              	MOVAI	0x04
0002ac   122d     rsubar  0x2d             	RSUBAR	_R_irbytes
0002ad   3003     jbset   0x3, 0           	JBSET	STATUS,0
0002ae   2aed     goto    0x2ed            	GOTO	_00191_DS_
                                           ;;genSkipc:3246: created from rifx:0022609C
                                           ;	.line	185; "HT_Leds.c"	F_irokflag=1;
0002af   39b2     bset    0x32, 0x3        	BSET	_Flag1,3
                                           ;	.line	186; "HT_Leds.c"	F_irflag=0;
0002b0   3d32     bclr    0x32, 0x2        	BCLR	_Flag1,2
0002b1   2aed     goto    0x2ed            	GOTO	_00191_DS_
                                           _00153_DS_
                                           ;	.line	194; "HT_Leds.c"	F_irflag=0;
0002b2   3d32     bclr    0x32, 0x2        	BCLR	_Flag1,2
0002b3   2aed     goto    0x2ed            	GOTO	_00191_DS_
                                           _00189_DS_
                                           ;	.line	202; "HT_Leds.c"	if(F_irstopflag==0)     
0002b4   36b3     jbclr   0x33, 0x5        	JBCLR	_Flag2,5
0002b5   2aed     goto    0x2ed            	GOTO	_00191_DS_
                                           ;	.line	204; "HT_Leds.c"	if(F_hlflag==0)
0002b6   3732     jbclr   0x32, 0x6        	JBCLR	_Flag1,6
0002b7   2ad0     goto    0x2d0            	GOTO	_00184_DS_
                                           ;	.line	206; "HT_Leds.c"	R_ircount++;
0002b8   19be     incr    0x3e             	INCR	_R_ircount
                                           ;;unsigned compare: left < lit(0x64=100), size=1
                                           ;	.line	207; "HT_Leds.c"	if(R_ircount<100) 
0002b9   0b64     movai   0x64             	MOVAI	0x64
0002ba   123e     rsubar  0x3e             	RSUBAR	_R_ircount
0002bb   3403     jbclr   0x3, 0           	JBCLR	STATUS,0
0002bc   2ace     goto    0x2ce            	GOTO	_00170_DS_
                                           ;;genSkipc:3246: created from rifx:0022609C
                                           ;	.line	209; "HT_Leds.c"	if(IR_read==1)
0002bd   1d97     clrr    0x17             	CLRR	r0x101B
0002be   3406     jbclr   0x6, 0           	JBCLR	_P1bits,0
0002bf   1997     incr    0x17             	INCR	r0x101B
                                           ;;100	MOVAR	r0x101B
                                           ;;99	MOVAR	r0x101C
0002c0   1617     movar   0x17             	MOVAR	r0x101B
0002c1   1598     movra   0x18             	MOVRA	r0x101C
0002c2   0801     xorai   0x1              	XORAI	0x01
0002c3   3103     jbset   0x3, 0x2         	JBSET	STATUS,2
0002c4   2aed     goto    0x2ed            	GOTO	_00191_DS_
                                           ;;swapping arguments (AOP_TYPEs 1/3)
                                           ;;unsigned compare: left >= lit(0x3D=61), size=1
                                           ;	.line	211; "HT_Leds.c"	if(R_ircount>60)
0002c5   0b3d     movai   0x3d             	MOVAI	0x3d
0002c6   123e     rsubar  0x3e             	RSUBAR	_R_ircount
0002c7   3003     jbset   0x3, 0           	JBSET	STATUS,0
0002c8   2acc     goto    0x2cc            	GOTO	_00165_DS_
                                           ;;genSkipc:3246: created from rifx:0022609C
                                           ;	.line	213; "HT_Leds.c"	R_ircount = 0;
0002c9   1dbe     clrr    0x3e             	CLRR	_R_ircount
                                           ;	.line	214; "HT_Leds.c"	F_hlflag  = 1; 
0002ca   3b32     bset    0x32, 0x6        	BSET	_Flag1,6
0002cb   2aed     goto    0x2ed            	GOTO	_00191_DS_
                                           _00165_DS_
                                           ;	.line	217; "HT_Leds.c"	F_irflag=0;
0002cc   3d32     bclr    0x32, 0x2        	BCLR	_Flag1,2
0002cd   2aed     goto    0x2ed            	GOTO	_00191_DS_
                                           _00170_DS_
                                           ;	.line	221; "HT_Leds.c"	F_irflag=0; 
0002ce   3d32     bclr    0x32, 0x2        	BCLR	_Flag1,2
0002cf   2aed     goto    0x2ed            	GOTO	_00191_DS_
                                           _00184_DS_
                                           ;	.line	225; "HT_Leds.c"	R_ircount++; 
0002d0   19be     incr    0x3e             	INCR	_R_ircount
                                           ;;unsigned compare: left < lit(0x32=50), size=1
                                           ;	.line	226; "HT_Leds.c"	if(R_ircount<50)       
0002d1   0b32     movai   0x32             	MOVAI	0x32
0002d2   123e     rsubar  0x3e             	RSUBAR	_R_ircount
0002d3   1d97     clrr    0x17             	CLRR	r0x101B
0002d4   3003     jbset   0x3, 0           	JBSET	STATUS,0
0002d5   3817     bset    0x17, 0          	BSET	r0x101B,0
0002d6   0b00     movai   0                	MOVAI	0x00
0002d7   1717     orar    0x17             	ORAR	r0x101B
0002d8   3503     jbclr   0x3, 0x2         	JBCLR	STATUS,2
0002d9   2aec     goto    0x2ec            	GOTO	_00181_DS_
                                           ;	.line	228; "HT_Leds.c"	if(IR_read==0)
0002da   3406     jbclr   0x6, 0           	JBCLR	_P1bits,0
0002db   2aed     goto    0x2ed            	GOTO	_00191_DS_
                                           ;;swapping arguments (AOP_TYPEs 1/3)
                                           ;;unsigned compare: left >= lit(0x29=41), size=1
                                           ;	.line	230; "HT_Leds.c"	if(R_ircount>40)
0002dc   0b29     movai   0x29             	MOVAI	0x29
0002dd   123e     rsubar  0x3e             	RSUBAR	_R_ircount
0002de   3003     jbset   0x3, 0           	JBSET	STATUS,0
0002df   2aea     goto    0x2ea            	GOTO	_00176_DS_
                                           ;;genSkipc:3246: created from rifx:0022609C
                                           ;	.line	232; "HT_Leds.c"	if(R_ircount<50)
0002e0   0b00     movai   0                	MOVAI	0x00
0002e1   1717     orar    0x17             	ORAR	r0x101B
0002e2   3503     jbclr   0x3, 0x2         	JBCLR	STATUS,2
0002e3   2ae8     goto    0x2e8            	GOTO	_00173_DS_
                                           ;	.line	234; "HT_Leds.c"	R_ircount  = 0;
0002e4   1dbe     clrr    0x3e             	CLRR	_R_ircount
                                           ;	.line	235; "HT_Leds.c"	F_hlflag   = 0;
0002e5   3f32     bclr    0x32, 0x6        	BCLR	_Flag1,6
                                           ;	.line	236; "HT_Leds.c"	F_leadflag = 1;
0002e6   3ab2     bset    0x32, 0x5        	BSET	_Flag1,5
0002e7   2aed     goto    0x2ed            	GOTO	_00191_DS_
                                           _00173_DS_
                                           ;	.line	239; "HT_Leds.c"	F_irflag=0;
0002e8   3d32     bclr    0x32, 0x2        	BCLR	_Flag1,2
0002e9   2aed     goto    0x2ed            	GOTO	_00191_DS_
                                           _00176_DS_
                                           ;	.line	242; "HT_Leds.c"	F_irflag=0;
0002ea   3d32     bclr    0x32, 0x2        	BCLR	_Flag1,2
0002eb   2aed     goto    0x2ed            	GOTO	_00191_DS_
                                           _00181_DS_
                                           ;	.line	246; "HT_Leds.c"	F_irflag=0;
0002ec   3d32     bclr    0x32, 0x2        	BCLR	_Flag1,2
                                           _00191_DS_
0002ed   000c     return                   	RETURN	
                                           ; exit point of _Ir_Decode
                                           
                                           
                                           ;	code size estimation:
                                           ;	  659+    0 =   659 instructions ( 1318 byte)
                                           
                                           	end


MEMORY USAGE MAP ('X' = Used,  '-' = Unused)

0000 : XXXXXXXX-------- XXXXXXXXXXXXXXXX XXXXXXXXXXXXXXXX XXXXXXXXXXXXXXXX
0040 : XXXXXXXXXXXXXXXX XXXXXXXXXXXXXXXX XXXXXXXXXXXXXXXX XXXXXXXXXXXXXXXX
0080 : XXXXXXXXXXXXXXXX XXXXXXXXXXXXXXXX XXXXXXXXXXXXXXXX XXXXXXXXXXXXXXXX
00C0 : XXXXXXXXXXXXXXXX XXXXXXXXXXXXXXXX XXXXXXXXXXXXXXXX XXXXXXXXXXXXXXXX
0100 : XXXXXXXXXXXXXXXX XXXXXXXXXXXXXXXX XXXXXXXXXXXXXXXX XXXXXXXXXXXXXXXX
0140 : XXXXXXXXXXXXXXXX XXXXXXXXXXXXXXXX XXXXXXXXXXXXXXXX XXXXXXXXXXXXXXXX
0180 : XXXXXXXXXXXXXXXX XXXXXXXXXXXXXXXX XXXXXXXXXXXXXXXX XXXXXXXXXXXXXXXX
01C0 : XXXXXXXXXXXXXXXX XXXXXXXXXXXXXXXX XXXXXXXXXXXXXXXX XXXXXXXXXXXXXXXX
0200 : XXXXXXXXXXXXXXXX XXXXXXXXXXXXXXXX XXXXXXXXXXXXXXXX XXXXXXXXXXXXXXXX
0240 : XXXXXXXXXXXXXXXX XXXXXXXXXXXXXXXX XXXXXXXXXXXXXXXX XXXXXXXXXXXXXXXX
0280 : XXXXXXXXXXXXXXXX XXXXXXXXXXXXXXXX XXXXXXXXXXXXXXXX XXXXXXXXXXXXXXXX
02C0 : XXXXXXXXXXXXXXXX XXXXXXXXXXXXXXXX XXXXXXXXXXXXXXXX XXXXXXXXXXXXXXXX
0300 : XXXXXXXXXXXXXXXX XXXXXXXXXXXXXXXX XXXXXXXXXXXXXXXX XXXXXXXXXXXXXXXX
0340 : XXXXXXXXXXXXXXXX XXXXXXXXXXXXXXXX XXXXXXXXXXXXXXXX XXXXXXXXXXXXXXXX
0380 : XXXXXXXXXXXXXXXX XXXXXXXXXXXXXXXX XXXXXXXXXXXXXXXX XXXXXXXXXXXXXXXX
03C0 : XXXXXXXXXXXXXXXX XXXXXXXXXXXXXXXX XXXXXXXXXXXXXXXX XXXXXXXXXXXXXXXX
0400 : XXXXXXXXXXXXXXXX XXXXXXXXXXXXXXXX XXXXXXXXXXXXXXXX XXXXXXXXXXXXXXXX
0440 : XXXXXXXXXXXXXXXX XXXXXXXXXXXXXXXX XXXXXXXXXXXXXXXX XXXXXXXXXXXXXXXX
0480 : XXXXXXXXXXXXXXXX XXXXXXXXXXXXXXXX XXXXXXXXXXXXXXXX XXXXXXXXXXXXXXXX
04C0 : XXXXXXXXXXXXXXXX XXXXXXXXXXXXXXXX XXXXXXXXXXXXXXXX XXXXXXXXXXXXXXXX
0500 : XXXXXXXXXXXXXXXX XXXXXXXXXXXXXXXX XXXXXXXXXXXXXXXX XXXXXXXXXXXXXXXX
0540 : XXXXXXXXXXXXXXXX XXXXXXXXXXXXXXXX XXXXXXXXXXXXXXXX XXXXXXXXXXXXXXXX
0580 : XXXXXXXXXXXXXXXX XXXXXXXXXXXXXXXX XXXXXXXXXXXXXXXX XXXXXXXXXXXXXXXX
05C0 : XXXXXXXXXXXXXXXX XXXXXXXXXXXXXXXX XXXXXXXXXXXXXXXX XXXXXXXXXXXXXXXX
0600 : XXXXXXXXXXXXXXXX XXXXXXXXXXXXXXXX XXXXXXXXXXXXXXXX XXXXXXXXXXXXXXXX
0640 : XXXXXXXXXXXXXXXX XXXXXXXXXXXXXXXX XXXXXXXXXXXXXXXX XXXXXXXXXXXXXXXX
0680 : XXXXXXXXXXXXXXXX XXXXXXXXXXXXXXXX XXXXXXXXXXXXXXXX XXXXXXXXXXXXXXXX
06C0 : XXXXXXXXXXXXXXXX XXXXXXXXXXXXXXXX XXXXXXXXXXXXXXXX XXXXXXXXXXXXXXXX
0700 : XXXXXXXXXXXXXXXX XXXXXXXXXXXXXXXX XXXXXXXXXXXXXXXX XXXXXXXXXXXXXXXX
0740 : XXXXXXXXXXXXXXXX XXXXXXXXXXXXXXXX XXXXXXXXXXXXXXXX XXXXXXXXXXXXXXXX
0780 : XXXXXXXXXXXXXXXX XXXXXXXXXXXXXXXX XXXXXXXXXXXXXXXX XXXXXXXXXXXXXXXX
07C0 : XXXXXXXXXXXXXXXX XXXXXXXXXXXXXXXX XXXXXXXXXXXXXXXX ----------------

All other memory blocks unused.

Program Memory Words Used:  1012

