gpasm-1.4.1_beta1 (Oct 15 2013)T500mssbr.asm      2013-12-13  13:42:42         PAGE  1


LOC  OBJECT CODE     LINE SOURCE TEXT
  VALUE

                      00001 ;--------------------------------------------------------
                      00002 ; File Created by SN-SDCC : ANSI-C Compiler
                      00003 ; Version 0.0.4 (Nov 20 2013) (MINGW32)
                      00004 ; This file was generated Fri Dec 13 13:42:42 2013
                      00005 ;--------------------------------------------------------
                      00006 ; MC3X port for the RISC core
                      00007 ;--------------------------------------------------------
                      00008 ;       .file   "T500mssbr.c"
                      00009         list    p=32p21
                      00010         radix dec
                      00011         include "mc32p21.inc"
                      00001                 LIST
                      00002 ;mc32p21.inc    Standard Header File, Version 1.00 by Sinomcu
                      00261                 LIST
                      00012 ;--------------------------------------------------------
                      00013 ; external declarations
                      00014 ;--------------------------------------------------------
                      00015         extern  _CHGOverSbr
                      00016         extern  _CloseDisCHG
                      00017         extern  _STATUSbits
                      00018         extern  _MCRbits
                      00019         extern  _INTEbits
                      00020         extern  _INTFbits
                      00021         extern  _IOP0bits
                      00022         extern  _OEP0bits
                      00023         extern  _PUP0bits
                      00024         extern  _ANSELbits
                      00025         extern  _IOP1bits
                      00026         extern  _OEP1bits
                      00027         extern  _PUP1bits
                      00028         extern  _KBIMbits
                      00029         extern  _T0CRbits
                      00030         extern  _T1CRbits
                      00031         extern  _LVDCRbits
                      00032         extern  _OSCMbits
                      00033         extern  _ADCR0bits
                      00034         extern  _ADCR1bits
                      00035         extern  _Flag1
                      00036         extern  _Flag2
                      00037         extern  _Flag3
                      00038         extern  _Buf0
                      00039         extern  _Buf1
                      00040         extern  _Buf2
                      00041         extern  _ADCnt
                      00042         extern  _ADVBatBuf
                      00043         extern  _ADVOutBuf
                      00044         extern  _ADIOutBuf
                      00045         extern  _ADVBatMin
                      00046         extern  _ADVBatMax
                      00047         extern  _ADVOut
                      00048         extern  _ADVBat
                      00049         extern  _ADIOut
                      00050         extern  _ADVOutMin
                      00051         extern  _ADVOutMax
                      00052         extern  _ADIMin
                      00053         extern  _ADIMax
                      00054         extern  _T500ms
                      00055         extern  _KeyCnt
                      00056         extern  _KeyLongth
                      00057         extern  _BatStatus
                      00058         extern  _DispCnt
                      00059         extern  _DisPWM
                      00060         extern  _CHGPWM
                      00061         extern  _VinLowCnt
                      00062         extern  _VinHiCnt
                      00063         extern  _ILow0A1Dly10s
                      00064         extern  _TStop5s
                      00065         extern  _PwrON5s
                      00066         extern  _CHGV4d2T1min
                      00067         extern  _CHGI100ms1min
                      00068         extern  _BatLowCnt
                      00069         extern  _LoadCnt
                      00070         extern  _TSec
                      00071         extern  _TMin
                      00072         extern  _INDF
                      00073         extern  _INDF0
                      00074         extern  _INDF1
                      00075         extern  _INDF2
                      00076         extern  _HIBYTE
                      00077         extern  _FSR
                      00078         extern  _FSR0
                      00079         extern  _FSR1
                      00080         extern  _PCL
                      00081         extern  _STATUS
                      00082         extern  _MCR
                      00083         extern  _INDF3
                      00084         extern  _INTE
                      00085         extern  _INTF
                      00086         extern  _IOP0
                      00087         extern  _OEP0
                      00088         extern  _PUP0
                      00089         extern  _ANSEL
                      00090         extern  _IOP1
                      00091         extern  _OEP1
                      00092         extern  _PUP1
                      00093         extern  _KBIM
                      00094         extern  _T0CR
                      00095         extern  _T0CNT
                      00096         extern  _T0LOAD
                      00097         extern  _T0DATA
                      00098         extern  _T1CR
                      00099         extern  _T1CNT
                      00100         extern  _T1LOAD
                      00101         extern  _T1DATA
                      00102         extern  _LVDCR
                      00103         extern  _OSCM
                      00104         extern  _ADCR0
                      00105         extern  _ADCR1
                      00106         extern  _ADRH
                      00107         extern  _ADRL
                      00108         extern  _OSCAL
                      00109 
                      00110         extern STK06
                      00111         extern STK05
                      00112         extern STK04
                      00113         extern STK03
                      00114         extern STK02
                      00115         extern STK01
                      00116         extern STK00
                      00117 ;--------------------------------------------------------
                      00118 ; global declarations
                      00119 ;--------------------------------------------------------
                      00120         global  _T500msSbr
                      00121 
                      00122 ;--------------------------------------------------------
                      00123 ; global definitions
                      00124 ;--------------------------------------------------------
                      00125 ;--------------------------------------------------------
                      00126 ; absolute symbol definitions
                      00127 ;--------------------------------------------------------
                      00128 ;--------------------------------------------------------
                      00129 ; compiler-defined variables
                      00130 ;--------------------------------------------------------
                      00131 UDL_T500mssbr_0 udata
0000                  00132 r0x1009 res     1
0000                  00133 r0x100A res     1
                      00134 ;--------------------------------------------------------
                      00135 ; initialized data
                      00136 ;--------------------------------------------------------
                      00137 ;--------------------------------------------------------
                      00138 ; overlayable items in internal ram 
                      00139 ;--------------------------------------------------------
                      00140 ;       udata_ovr
                      00141 ;--------------------------------------------------------
                      00142 ; code
                      00143 ;--------------------------------------------------------
                      00144 code_T500mssbr  code
                      00145 ;***
                      00146 ;  pBlock Stats: dbName = C
                      00147 ;***
                      00148 ;entry:  _T500msSbr     ;Function start
                      00149 ; 2 exit points
                      00150 ;has an exit
                      00151 ;functions called:
                      00152 ;   _CHGOverSbr
                      00153 ;   _CHGOverSbr
                      00154 ;   _CloseDisCHG
                      00155 ;   _CHGOverSbr
                      00156 ;   _CHGOverSbr
                      00157 ;   _CloseDisCHG
                      00158 ;2 compiler assigned registers:
                      00159 ;   r0x1009
                      00160 ;   r0x100A
                      00161 ;; Starting pCode block
0000                  00162 _T500msSbr      ;Function start
                      00163 ; 2 exit points
                      00164 ;       .line   8; "T500mssbr.c"        FF250 = !FF250;
0000   7600           00165         CLRR    r0x1009
0001   FC00           00166         JBCLR   _Flag1,6
0002   6600           00167         INCR    r0x1009
0003   5800           00168         MOVAR   r0x1009
0004   3C00           00169         MOVAI   0x00
0005   F587           00170         JBCLR   STATUS,2
0006   3C01           00171         MOVAI   0x01
0007   5600           00172         MOVRA   r0x1009
0008   5600           00173         MOVRA   r0x100A
                      00174 ;;100   MOVAR   r0x100A
0009   4C00           00175         RRAR    r0x1009
000A   E187           00176         JBSET   STATUS,0
000B   DC00           00177         BCLR    _Flag1,6
000C   F187           00178         JBCLR   STATUS,0
000D   CC00           00179         BSET    _Flag1,6
                      00180 ;       .line   9; "T500mssbr.c"        if (!FF250) return;
000E   FC00           00181         JBCLR   _Flag1,6
000F   A000           00182         GOTO    _00106_DS_
0010   A000           00183         GOTO    _00141_DS_
0011                  00184 _00106_DS_
                      00185 ;       .line   10; "T500mssbr.c"       FFlash = !FFlash;
0011   7600           00186         CLRR    r0x1009
0012   F400           00187         JBCLR   _Flag1,2
0013   6600           00188         INCR    r0x1009
0014   5800           00189         MOVAR   r0x1009
0015   3C00           00190         MOVAI   0x00
0016   F587           00191         JBCLR   STATUS,2
0017   3C01           00192         MOVAI   0x01
0018   5600           00193         MOVRA   r0x1009
0019   5600           00194         MOVRA   r0x100A
                      00195 ;;99    MOVAR   r0x100A
001A   4C00           00196         RRAR    r0x1009
001B   E187           00197         JBSET   STATUS,0
001C   D400           00198         BCLR    _Flag1,2
001D   F187           00199         JBCLR   STATUS,0
001E   C400           00200         BSET    _Flag1,2
                      00201 ;       .line   11; "T500mssbr.c"       if (!FT5s)
001F   F600           00202         JBCLR   _Flag2,3
0020   A000           00203         GOTO    _00110_DS_
                      00204 ;       .line   13; "T500mssbr.c"       if (++PwrON5s >= 6) FT5s = 1;
0021   6600           00205         INCR    _PwrON5s
                      00206 ;;unsigned compare: left < lit(0x6=6), size=1
0022   3C06           00207         MOVAI   0x06
0023   4800           00208         RSUBAR  _PwrON5s
0024   E187           00209         JBSET   STATUS,0
0025   A000           00210         GOTO    _00108_DS_
                      00211 ;;genSkipc:3246: created from rifx:0022608C
0026   C600           00212         BSET    _Flag2,3
0027                  00213 _00108_DS_
                      00214 ;       .line   14; "T500mssbr.c"       return;
0027   A000           00215         GOTO    _00141_DS_
0028                  00216 _00110_DS_
                      00217 ;       .line   16; "T500mssbr.c"       if (BatLowCnt == 0)
0028   3C00           00218         MOVAI   0x00
0029   5C00           00219         ORAR    _BatLowCnt
002A   E587           00220         JBSET   STATUS,2
002B   A000           00221         GOTO    _00114_DS_
                      00222 ;       .line   18; "T500mssbr.c"       if (FDisBatLow)
002C   EE00           00223         JBSET   _Flag2,7
002D   A000           00224         GOTO    _00115_DS_
                      00225 ;       .line   20; "T500mssbr.c"       FDisBatLow = 0;
002E   DE00           00226         BCLR    _Flag2,7
                      00227 ;       .line   21; "T500mssbr.c"       pLed1C = 0;
002F   D800           00228         BCLR    _OEP1bits,4
                      00229 ;       .line   22; "T500mssbr.c"       pLed2C = 0;
0030   DA00           00230         BCLR    _OEP1bits,5
                      00231 ;       .line   23; "T500mssbr.c"       pLedCC = 1;
0031   C800           00232         BSET    _OEP0bits,4
0032   A000           00233         GOTO    _00115_DS_
0033                  00234 _00114_DS_
                      00235 ;       .line   26; "T500mssbr.c"       else --BatLowCnt;
0033   6E00           00236         DECR    _BatLowCnt
0034                  00237 _00115_DS_
                      00238 ;       .line   28; "T500mssbr.c"       if (FVIN)
0034   EE00           00239         JBSET   _Flag1,7
0035   A000           00240         GOTO    _00129_DS_
                      00241 ;       .line   30; "T500mssbr.c"       FPwr = 0;
0036   D000           00242         BCLR    _Flag1,0
                      00243 ;       .line   31; "T500mssbr.c"       pDisCHG = 0;
0037   D400           00244         BCLR    _IOP1bits,2
                      00245 ;       .line   32; "T500mssbr.c"       PWM0OE = 0;
0038   DC00           00246         BCLR    _T0CRbits,6
                      00247 ;       .line   33; "T500mssbr.c"       TStop5s = 0;
0039   7600           00248         CLRR    _TStop5s
                      00249 ;       .line   34; "T500mssbr.c"       FStop = 0;
003A   D200           00250         BCLR    _Flag2,1
                      00251 ;       .line   35; "T500mssbr.c"       if (FCHGOver) return;
003B   E800           00252         JBSET   _Flag1,4
003C   A000           00253         GOTO    _00117_DS_
003D   A000           00254         GOTO    _00141_DS_
003E                  00255 _00117_DS_
                      00256 ;       .line   36; "T500mssbr.c"       if (FCHGI)
003E   E200           00257         JBSET   _Flag3,1
003F   A000           00258         GOTO    _00121_DS_
                      00259 ;       .line   38; "T500mssbr.c"       if (++CHGI100ms1min >=120) CHGOverSbr();
0040   6600           00260         INCR    _CHGI100ms1min
                      00261 ;;unsigned compare: left < lit(0x78=120), size=1
0041   3C78           00262         MOVAI   0x78
0042   4800           00263         RSUBAR  _CHGI100ms1min
0043   E187           00264         JBSET   STATUS,0
0044   A000           00265         GOTO    _00122_DS_
                      00266 ;;genSkipc:3246: created from rifx:0022608C
0045   8000           00267         CALL    _CHGOverSbr
0046   A000           00268         GOTO    _00122_DS_
0047                  00269 _00121_DS_
                      00270 ;       .line   40; "T500mssbr.c"       else CHGI100ms1min = 0;
0047   7600           00271         CLRR    _CHGI100ms1min
0048                  00272 _00122_DS_
                      00273 ;       .line   41; "T500mssbr.c"       if (FCHGV)
0048   E000           00274         JBSET   _Flag3,0
0049   A000           00275         GOTO    _00126_DS_
                      00276 ;       .line   43; "T500mssbr.c"       if (++CHGV4d2T1min >= 120) CHGOverSbr();
004A   6600           00277         INCR    _CHGV4d2T1min
                      00278 ;;unsigned compare: left < lit(0x78=120), size=1
004B   3C78           00279         MOVAI   0x78
004C   4800           00280         RSUBAR  _CHGV4d2T1min
004D   E187           00281         JBSET   STATUS,0
004E   A000           00282         GOTO    _00127_DS_
                      00283 ;;genSkipc:3246: created from rifx:0022608C
004F   8000           00284         CALL    _CHGOverSbr
0050   A000           00285         GOTO    _00127_DS_
0051                  00286 _00126_DS_
                      00287 ;       .line   45; "T500mssbr.c"       else CHGV4d2T1min = 0;
0051   7600           00288         CLRR    _CHGV4d2T1min
0052                  00289 _00127_DS_
                      00290 ;       .line   46; "T500mssbr.c"       return;
0052   A000           00291         GOTO    _00141_DS_
0053                  00292 _00129_DS_
                      00293 ;       .line   49; "T500mssbr.c"       PWM1OE = 0;
0053   DC00           00294         BCLR    _T1CRbits,6
                      00295 ;       .line   50; "T500mssbr.c"       FCHGI = 0;
0054   D200           00296         BCLR    _Flag3,1
                      00297 ;       .line   51; "T500mssbr.c"       FCHGV = 0;
0055   D000           00298         BCLR    _Flag3,0
                      00299 ;       .line   52; "T500mssbr.c"       CHGV4d2T1min = 0;
0056   7600           00300         CLRR    _CHGV4d2T1min
                      00301 ;       .line   53; "T500mssbr.c"       CHGI100ms1min = 0;
0057   7600           00302         CLRR    _CHGI100ms1min
                      00303 ;       .line   55; "T500mssbr.c"       if (FPwr)
0058   E000           00304         JBSET   _Flag1,0
0059   A000           00305         GOTO    _00136_DS_
                      00306 ;       .line   57; "T500mssbr.c"       TStop5s = 0;
005A   7600           00307         CLRR    _TStop5s
                      00308 ;       .line   58; "T500mssbr.c"       FStop = 0;
005B   D200           00309         BCLR    _Flag2,1
                      00310 ;       .line   59; "T500mssbr.c"       if (FILow)
005C   EA00           00311         JBSET   _Flag1,5
005D   A000           00312         GOTO    _00133_DS_
                      00313 ;       .line   61; "T500mssbr.c"       if (++ILow0A1Dly10s >= 20) CloseDisCHG();
005E   6600           00314         INCR    _ILow0A1Dly10s
                      00315 ;;unsigned compare: left < lit(0x14=20), size=1
005F   3C14           00316         MOVAI   0x14
0060   4800           00317         RSUBAR  _ILow0A1Dly10s
0061   E187           00318         JBSET   STATUS,0
0062   A000           00319         GOTO    _00134_DS_
                      00320 ;;genSkipc:3246: created from rifx:0022608C
0063   8000           00321         CALL    _CloseDisCHG
0064   A000           00322         GOTO    _00134_DS_
0065                  00323 _00133_DS_
                      00324 ;       .line   63; "T500mssbr.c"       else ILow0A1Dly10s = 0;
0065   7600           00325         CLRR    _ILow0A1Dly10s
0066                  00326 _00134_DS_
                      00327 ;       .line   64; "T500mssbr.c"       return;
0066   A000           00328         GOTO    _00141_DS_
0067                  00329 _00136_DS_
                      00330 ;       .line   66; "T500mssbr.c"       FPwr = 0;
0067   D000           00331         BCLR    _Flag1,0
                      00332 ;       .line   67; "T500mssbr.c"       pDisCHG = 0;
0068   D400           00333         BCLR    _IOP1bits,2
                      00334 ;       .line   68; "T500mssbr.c"       PWM0OE = 0;
0069   DC00           00335         BCLR    _T0CRbits,6
                      00336 ;       .line   69; "T500mssbr.c"       if (pLedW) return;
006A   E200           00337         JBSET   _IOP0bits,1
006B   A000           00338         GOTO    _00138_DS_
006C   A000           00339         GOTO    _00141_DS_
006D                  00340 _00138_DS_
                      00341 ;       .line   71; "T500mssbr.c"       if (++TStop5s >= 10) FStop = 1;
006D   6600           00342         INCR    _TStop5s
                      00343 ;;unsigned compare: left < lit(0xA=10), size=1
006E   3C0A           00344         MOVAI   0x0a
006F   4800           00345         RSUBAR  _TStop5s
0070   E187           00346         JBSET   STATUS,0
0071   A000           00347         GOTO    _00141_DS_
                      00348 ;;genSkipc:3246: created from rifx:0022608C
0072   C200           00349         BSET    _Flag2,1
0073                  00350 _00141_DS_
0073   000C           00351         RETURN  
                      00352 ; exit point of _T500msSbr
                      00353 
                      00354 
                      00355 ;       code size estimation:
                      00356 ;         116+    0 =   116 instructions (  232 byte)
                      00357 
                      00358         end
gpasm-1.4.1_beta1 (Oct 15 2013)T500mssbr.asm      2013-12-13  13:42:42         PAGE  2


SYMBOL TABLE
  LABEL                             VALUE

ADCR0                             000001B0
ADCR1                             000001B1
ADEOC                             00000001
ADIE                              00000006
ADIF                              00000006
ADON                              00000000
ADRH                              000001B4
ADRL                              000001B5
ANSEL                             00000193
BUZ0OE                            00000005
BUZ1OE                            00000005
C                                 00000000
CLKS                              00000002
DC                                00000001
FSR                               00000184
FSR0                              00000184
FSR1                              00000185
GIE                               00000007
HFEN                              00000000
HIBYTE                            00000183
INDF                              00000180
INDF0                             00000180
INDF1                             00000181
INDF2                             00000182
INDF3                             00000189
INT0IE                            00000002
INT0IF                            00000002
INT1IE                            00000003
INT1IF                            00000003
INTE                              0000018A
INTF                              0000018B
IOP0                              00000190
IOP1                              00000194
KBIE                              00000004
KBIF                              00000004
KBIM                              00000197
KBIM0                             00000000
KBIM1                             00000001
KBIM2                             00000002
KBIM3                             00000003
KBIM4                             00000004
KBIM5                             00000005
KBIM6                             00000006
LFEN                              00000001
LVDCR                             000001AD
LVDEN                             00000007
LVDF                              00000000
MCR                               00000188
OEP0                              00000191
OEP1                              00000195
OSCAL                             000001FB
OSCM                              000001AE
P00                               00000000
P00ANS                            00000000
P00OE                             00000000
P00PU                             00000000
P01                               00000001
P01ANS                            00000001
P01OE                             00000001
P01PU                             00000001
P02                               00000002
P02ANS                            00000002
P02OE                             00000002
P02PU                             00000002
P03                               00000003
P03ANS                            00000003
P03OE                             00000003
P03PU                             00000003
P04                               00000004
P04ANS                            00000004
P04OE                             00000004
P04PU                             00000004
P10                               00000000
P10OE                             00000000
P10PU                             00000000
P11                               00000001
P11OE                             00000001
P11PU                             00000001
P12                               00000002
P12ANS                            00000005
P12OE                             00000002
P12PU                             00000002
P13                               00000003
P13ANS                            00000006
P13OE                             00000003
P13PU                             00000003
P14                               00000004
P14OE                             00000004
P14PU                             00000004
P15                               00000005
P15OE                             00000005
P15PU                             00000005
P16                               00000006
P16OE                             00000006
P16PU                             00000006
PCL                               00000186
PD                                00000004
PUP0                              00000192
PUP1                              00000196
PWM0OE                            00000006
PWM1OE                            00000006
STATUS                            00000187
STBH                              00000004
STBL                              00000005
STK00                             00000000
STK01                             00000000
STK02                             00000000
STK03                             00000000
STK04                             00000000
STK05                             00000000
STK06                             00000000
T0CNT                             000001A1
T0CR                              000001A0
T0DATA                            000001A3
T0IE                              00000000
T0IF                              00000000
T0LOAD                            000001A2
T1CNT                             000001A5
T1CR                              000001A4
T1DATA                            000001A7
T1IE                              00000001
T1IF                              00000001
T1LOAD                            000001A6
TC0EN                             00000007
TC1EN                             00000007
TO                                00000005
Z                                 00000002
_00106_DS_                        00000011
_00108_DS_                        00000027
_00110_DS_                        00000028
_00114_DS_                        00000033
_00115_DS_                        00000034
_00117_DS_                        0000003E
_00121_DS_                        00000047
_00122_DS_                        00000048
_00126_DS_                        00000051
_00127_DS_                        00000052
_00129_DS_                        00000053
_00133_DS_                        00000065
_00134_DS_                        00000066
_00136_DS_                        00000067
_00138_DS_                        0000006D
_00141_DS_                        00000073
_ADCR0                            00000000
_ADCR0bits                        00000000
_ADCR1                            00000000
_ADCR1bits                        00000000
_ADCnt                            00000000
_ADIMax                           00000000
_ADIMin                           00000000
_ADIOut                           00000000
_ADIOutBuf                        00000000
_ADRH                             00000000
_ADRL                             00000000
_ADVBat                           00000000
_ADVBatBuf                        00000000
_ADVBatMax                        00000000
_ADVBatMin                        00000000
_ADVOut                           00000000
_ADVOutBuf                        00000000
_ADVOutMax                        00000000
_ADVOutMin                        00000000
_ANSEL                            00000000
_ANSELbits                        00000000
_BatLowCnt                        00000000
_BatStatus                        00000000
_Buf0                             00000000
_Buf1                             00000000
_Buf2                             00000000
_CHGI100ms1min                    00000000
_CHGOverSbr                       00000000
_CHGPWM                           00000000
_CHGV4d2T1min                     00000000
_CONFIG0                          00008000
_CONFIG1                          00008001
_CP_ALL                           00007FFF
_CloseDisCHG                      00000000
_DisPWM                           00000000
_DispCnt                          00000000
_FCPU_128T                        0000FFEF
_FCPU_16T                         0000FFBF
_FCPU_256T                        0000FFFF
_FCPU_2T                          0000FF8F
_FCPU_32T                         0000FFCF
_FCPU_4T                          0000FF9F
_FCPU_64T                         0000FFDF
_FCPU_8T                          0000FFAF
_FSR                              00000000
_FSR0                             00000000
_FSR1                             00000000
_Flag1                            00000000
_Flag2                            00000000
_Flag3                            00000000
_HIBYTE                           00000000
_HRC_LRC                          0000FCFF
_HRC_LXT                          0000FDFF
_HXT_LRC                          0000FEFF
_ILow0A1Dly10s                    00000000
_INDF                             00000000
_INDF0                            00000000
_INDF1                            00000000
_INDF2                            00000000
_INDF3                            00000000
_INTE                             00000000
_INTEbits                         00000000
_INTF                             00000000
_INTFbits                         00000000
_IOP0                             00000000
_IOP0bits                         00000000
_IOP1                             00000000
_IOP1bits                         00000000
_KBIM                             00000000
_KBIMbits                         00000000
_KeyCnt                           00000000
_KeyLongth                        00000000
_LVDCR                            00000000
_LVDCRbits                        00000000
_LoadCnt                          00000000
_MCLR_OFF                         0000FF7F
_MCLR_ON                          0000FFFF
_MCR                              00000000
_MCRbits                          00000000
_OEP0                             00000000
_OEP0bits                         00000000
_OEP1                             00000000
_OEP1bits                         00000000
_OSCAL                            00000000
_OSCM                             00000000
_OSCMbits                         00000000
_PCL                              00000000
_PTWRT_16_1024                    0000FFF7
_PTWRT_16_16                      0000DFF7
_PTWRT_256_256                    0000DFFF
_PTWRT_256_4096                   0000FFFF
_PTWRT_4_4                        0000DFF3
_PTWRT_4_512                      0000FFF3
_PTWRT_64_2048                    0000FFFB
_PTWRT_64_64                      0000DFFB
_PUP0                             00000000
_PUP0bits                         00000000
_PUP1                             00000000
_PUP1bits                         00000000
_PwrON5s                          00000000
_STATUS                           00000000
_STATUSbits                       00000000
_T0CNT                            00000000
_T0CR                             00000000
_T0CRbits                         00000000
_T0DATA                           00000000
_T0LOAD                           00000000
_T1CNT                            00000000
_T1CR                             00000000
_T1CRbits                         00000000
_T1DATA                           00000000
_T1LOAD                           00000000
_T500ms                           00000000
_T500msSbr                        00000000
_TMin                             00000000
_TSec                             00000000
_TStop5s                          00000000
_VLVR_160                         0000E3FF
_VLVR_185                         0000E7FF
_VLVR_205                         0000EBFF
_VLVR_218                         0000EFFF
_VLVR_232                         0000F3FF
_VLVR_245                         0000F7FF
_VLVR_305                         0000FBFF
_VLVR_360                         0000FFFF
_VinHiCnt                         00000000
_VinLowCnt                        00000000
_WDT_ALWAYS_OFF                   0000FFFC
_WDT_ALWAYS_ON                    0000FFFF
_WDT_SLEEP_OFF                    0000FFFD
__32P21                           00000001
r0x1009                           00000000
r0x100A                           00000001

Errors   :     0
Warnings :     0 reported,     0 suppressed
Messages :     0 reported,     0 suppressed

