gplink-2.0.0_beta2 (Nov  6 2017)
Listing File Generated: 2018-3-19  16:26:07
 
 
Address  Value    Disassembly              Source
-------  -----    -----------              ------
                                           ;--------------------------------------------------------
                                           ; File Created by SN-SDCC : SinoMCU ANSI-C Compiler
                                           ; Version 1.1.0 (Dec 19 2017) (MINGW32)
                                           ; This file was generated Mon Mar 19 16:22:33 2018
                                           ;--------------------------------------------------------
                                           ; MC32 port for the RISC core
                                           ;--------------------------------------------------------
                                           ;	.file	"123.c"
                                           	list	p=4K7323
                                           	radix dec
                                           	include "4K7323.inc"
                                           		LIST
                                           ;4K7323.inc    Standard Header File, Version 1.00 by Sinomcu
                                           		NOLIST
                                           ;--------------------------------------------------------
                                           ; external declarations
                                           ;--------------------------------------------------------
                                           	extern	_Sub_GetAdc
                                           	extern	_Sub_LedDisp
                                           	extern	_PFLAGbits
                                           	extern	_MCRbits
                                           	extern	_INTEbits
                                           	extern	_INTFbits
                                           	extern	_OSCMbits
                                           	extern	_IOP0bits
                                           	extern	_OEP0bits
                                           	extern	_PUP0bits
                                           	extern	_IOP1bits
                                           	extern	_OEP1bits
                                           	extern	_PUP1bits
                                           	extern	_IOP2bits
                                           	extern	_OEP2bits
                                           	extern	_PUP2bits
                                           	extern	_T0CRbits
                                           	extern	_T1CRbits
                                           	extern	_T2CRbits
                                           	extern	_T3CRbits
                                           	extern	_PWMCR0bits
                                           	extern	_PWMCR1bits
                                           	extern	_ADCR0bits
                                           	extern	_ADCR1bits
                                           	extern	_ANSELbits
                                           	extern	_LEDCR0bits
                                           	extern	_LEDCR1bits
                                           	extern	_LCDCR0bits
                                           	extern	_LCDCR1bits
                                           	extern	_LCDIOS0bits
                                           	extern	_LCDIOS1bits
                                           	extern	_LCDIOS2bits
                                           	extern	_INDF
                                           	extern	_INDF0
                                           	extern	_INDF1
                                           	extern	_INDF2
                                           	extern	_HIBYTE
                                           	extern	_FSR
                                           	extern	_FSR0
                                           	extern	_FSR1
                                           	extern	_PCL
                                           	extern	_STATUS
                                           	extern	_PFLAG
                                           	extern	_MCR
                                           	extern	_INDF3
                                           	extern	_INTE
                                           	extern	_INTF
                                           	extern	_OSCM
                                           	extern	_IOP0
                                           	extern	_OEP0
                                           	extern	_PUP0
                                           	extern	_IOP1
                                           	extern	_OEP1
                                           	extern	_PUP1
                                           	extern	_IOP2
                                           	extern	_OEP2
                                           	extern	_PUP2
                                           	extern	_T0CR
                                           	extern	_T0CNT
                                           	extern	_T0LOAD
                                           	extern	_T0DATA
                                           	extern	_T1CR
                                           	extern	_T1CNT
                                           	extern	_T1LOAD
                                           	extern	_T1DATA
                                           	extern	_T2CR
                                           	extern	_T2CNT
                                           	extern	_T2LOAD
                                           	extern	_T2DATA
                                           	extern	_T3CR
                                           	extern	_T3CNT
                                           	extern	_T3LOAD
                                           	extern	_PWM0DE
                                           	extern	_PWM1DE
                                           	extern	_PWM2DE
                                           	extern	_PWMCR0
                                           	extern	_PWMCR1
                                           	extern	_ADCR0
                                           	extern	_ADCR1
                                           	extern	_ADRH
                                           	extern	_ADRL
                                           	extern	_ANSEL
                                           	extern	_LEDCR0
                                           	extern	_LEDCR1
                                           	extern	_LCDCR0
                                           	extern	_LCDCR1
                                           	extern	_LCDIOS0
                                           	extern	_LCDIOS1
                                           	extern	_LCDIOS2
                                           	extern	__mulchar
                                           ;--------------------------------------------------------
                                           ; global declarations
                                           ;--------------------------------------------------------
                                           	global	_Sub_PT6964PowerOnAllDisp2s
                                           	global	_Sub_TA6932Disp
                                           	global	_Sub_SendDispDataToTA6932
                                           	global	_Sub_Buzzer
                                           	global	_Sub_KeyScan
                                           	global	_Sub_SetLongKeyGetRealTimeClockSetMode
                                           	global	_Sub_Initial
                                           	global	_Sub_IoInitial
                                           	global	_Sub_AlarmEvent
                                           	global	_Sub_Write1302
                                           	global	_Sub_Read1302
                                           	global	_main
                                           	global	_Sub_SendByteToDS1302
                                           	global	_Sub_GetByteFromDS1302
                                           	global	_Sub_LoopDelay
                                           	global	_Sub_TC2Initial
                                           	global	_Sub_Up_AlLongKeyGetAlarmSetMode
                                           	global	_Sub_SetAlarmAddTimer
                                           	global	_Sub_Up_AlShortLongKeyAlarmSet
                                           	global	_Sub_RealTimeClockAdd
                                           	global	_Sub_Up_AlShortLongKeyClockSet
                                           	global	_Sub_SetAlarmDecTimer
                                           	global	_Sub_DownShortLongKeyAlarmSet
                                           	global	_Sub_RealTimeClockDec
                                           	global	_Sub_DownShortLongKeyClockSet
                                           	global	_Sub_SetKeyRealTimeClockEnter
                                           	global	_Sub_SetKeyAlarmEnter
                                           	global	_Sub_BuzzerBBB
                                           	global	_Sub_SendByteToPT6964
                                           	global	_Sub_GetByteFromPT6964
                                           	global	_int_isr
                                           	global	_UserFlag
                                           	global	_UserFlag1
                                           	global	_GV_2msClock
                                           	global	_GV_10msClock
                                           	global	_GV_100msClock
                                           	global	_GV_200msClock
                                           	global	_GV_250msClock
                                           	global	_GV_500msClock
                                           	global	_GV_BuzzerPeriod
                                           	global	_GV_BuzzerBBPeriod
                                           	global	_GV_KeyDebounce
                                           	global	_GV_PreKey
                                           	global	_GV_CurKey
                                           	global	_GV_LongKeyTimer
                                           	global	_GV_Mode
                                           	global	_GV_RealTimeClockSetStep
                                           	global	_GV_AlarmClockSetStep
                                           	global	_GV_BuzzerIndex
                                           	global	_GV_BuzzerDuty
                                           	global	_GV_GetByteFromDs1302
                                           	global	_GV_GetPT6964Data
                                           	global	_GV_SetYearSingleDig
                                           	global	_GV_SetYearTenDig
                                           	global	_GV_SetYearHundredsDig
                                           	global	_GV_SetYearthousandDig
                                           	global	_GV_RunYearSingleDig
                                           	global	_GV_RunYearTenDig
                                           	global	_GV_RunYearHundredsDig
                                           	global	_GV_RunYearthousandDig
                                           	global	_GV_SetMonthSingleDig
                                           	global	_GV_SetMonthTenDig
                                           	global	_GV_RunMonthSingleDig
                                           	global	_GV_RunMonthTenDig
                                           	global	_GV_SetDaySingleDig
                                           	global	_GV_SetDayTenDig
                                           	global	_GV_RunDaySingleDig
                                           	global	_GV_RunDayTenDig
                                           	global	_GV_SetRealTimeClockHrSingleDig
                                           	global	_GV_SetRealTimeClockHrTenDig
                                           	global	_GV_SetRealTimeClockMinSingleDig
                                           	global	_GV_SetRealTimeClockMinTenDig
                                           	global	_GV_RunRealTimeClockHrSingleDig
                                           	global	_GV_RunRealTimeClockHrTenDig
                                           	global	_GV_RunRealTimeClockMinSingleDig
                                           	global	_GV_RunRealTimeClockMinTenDig
                                           	global	_GV_SetAlarmClockHrSingleDig
                                           	global	_GV_SetAlarmClockHrTenDig
                                           	global	_GV_SetAlarmClockMinSingleDig
                                           	global	_GV_SetAlarmClockMinTenDig
                                           	global	_GV_RunAlarmClockHrSingleDig
                                           	global	_GV_RunAlarmClockHrTenDig
                                           	global	_GV_RunAlarmClockMinSingleDig
                                           	global	_GV_RunAlarmClockMinTenDig
                                           	global	_GV_15sNoOperationCnt
                                           	global	_GV_DisplayBrightnessLevel
                                           	global	_GV_SnoozeTimer
                                           	global	_DATA_ID
                                           	global	_LV_Temp
                                           	global	_ABuf
                                           	global	_StatusBuf
                                           	global	_FSR_TEMP
                                           	global	_C_NumberTable
                                           
                                           	global STK06
                                           	global STK05
                                           	global STK04
                                           	global STK03
                                           	global STK02
                                           	global STK01
                                           	global STK00
                                           
                                           sharebank udata_ovr 0x0000
                                           STK06	res 1
                                           STK05	res 1
                                           STK04	res 1
                                           STK03	res 1
                                           STK02	res 1
                                           STK01	res 1
                                           STK00	res 1
                                           
                                           ;--------------------------------------------------------
                                           ; global definitions
                                           ;--------------------------------------------------------
                                           UD_123_0	udata
                                           _UserFlag	res	1
                                           
                                           UD_123_1	udata
                                           _UserFlag1	res	1
                                           
                                           UD_123_2	udata
                                           _GV_2msClock	res	1
                                           
                                           UD_123_3	udata
                                           _GV_10msClock	res	1
                                           
                                           UD_123_4	udata
                                           _GV_100msClock	res	1
                                           
                                           UD_123_5	udata
                                           _GV_200msClock	res	1
                                           
                                           UD_123_6	udata
                                           _GV_250msClock	res	1
                                           
                                           UD_123_7	udata
                                           _GV_500msClock	res	1
                                           
                                           UD_123_8	udata
                                           _GV_BuzzerPeriod	res	1
                                           
                                           UD_123_9	udata
                                           _GV_BuzzerBBPeriod	res	1
                                           
                                           UD_123_10	udata
                                           _GV_KeyDebounce	res	1
                                           
                                           UD_123_11	udata
                                           _GV_PreKey	res	1
                                           
                                           UD_123_12	udata
                                           _GV_CurKey	res	1
                                           
                                           UD_123_13	udata
                                           _GV_LongKeyTimer	res	2
                                           
                                           UD_123_14	udata
                                           _GV_Mode	res	1
                                           
                                           UD_123_15	udata
                                           _GV_RealTimeClockSetStep	res	1
                                           
                                           UD_123_16	udata
                                           _GV_AlarmClockSetStep	res	1
                                           
                                           UD_123_17	udata
                                           _GV_BuzzerIndex	res	1
                                           
                                           UD_123_18	udata
                                           _GV_BuzzerDuty	res	1
                                           
                                           UD_123_19	udata
                                           _GV_GetByteFromDs1302	res	1
                                           
                                           UD_123_20	udata
                                           _GV_GetPT6964Data	res	1
                                           
                                           UD_123_21	udata
                                           _GV_SetYearSingleDig	res	1
                                           
                                           UD_123_22	udata
                                           _GV_SetYearTenDig	res	1
                                           
                                           UD_123_23	udata
                                           _GV_SetYearHundredsDig	res	1
                                           
                                           UD_123_24	udata
                                           _GV_RunYearSingleDig	res	1
                                           
                                           UD_123_25	udata
                                           _GV_RunYearTenDig	res	1
                                           
                                           UD_123_26	udata
                                           _GV_RunYearHundredsDig	res	1
                                           
                                           UD_123_27	udata
                                           _GV_SetMonthSingleDig	res	1
                                           
                                           UD_123_28	udata
                                           _GV_SetMonthTenDig	res	1
                                           
                                           UD_123_29	udata
                                           _GV_RunMonthSingleDig	res	1
                                           
                                           UD_123_30	udata
                                           _GV_RunMonthTenDig	res	1
                                           
                                           UD_123_31	udata
                                           _GV_SetDaySingleDig	res	1
                                           
                                           UD_123_32	udata
                                           _GV_SetDayTenDig	res	1
                                           
                                           UD_123_33	udata
                                           _GV_RunDaySingleDig	res	1
                                           
                                           UD_123_34	udata
                                           _GV_RunDayTenDig	res	1
                                           
                                           UD_123_35	udata
                                           _GV_SetRealTimeClockHrSingleDig	res	1
                                           
                                           UD_123_36	udata
                                           _GV_SetRealTimeClockHrTenDig	res	1
                                           
                                           UD_123_37	udata
                                           _GV_SetRealTimeClockMinSingleDig	res	1
                                           
                                           UD_123_38	udata
                                           _GV_SetRealTimeClockMinTenDig	res	1
                                           
                                           UD_123_39	udata
                                           _GV_RunRealTimeClockHrSingleDig	res	1
                                           
                                           UD_123_40	udata
                                           _GV_RunRealTimeClockHrTenDig	res	1
                                           
                                           UD_123_41	udata
                                           _GV_RunRealTimeClockMinSingleDig	res	1
                                           
                                           UD_123_42	udata
                                           _GV_RunRealTimeClockMinTenDig	res	1
                                           
                                           UD_123_43	udata
                                           _GV_SetAlarmClockHrSingleDig	res	1
                                           
                                           UD_123_44	udata
                                           _GV_SetAlarmClockHrTenDig	res	1
                                           
                                           UD_123_45	udata
                                           _GV_SetAlarmClockMinSingleDig	res	1
                                           
                                           UD_123_46	udata
                                           _GV_SetAlarmClockMinTenDig	res	1
                                           
                                           UD_123_47	udata
                                           _GV_RunAlarmClockHrSingleDig	res	1
                                           
                                           UD_123_48	udata
                                           _GV_RunAlarmClockHrTenDig	res	1
                                           
                                           UD_123_49	udata
                                           _GV_RunAlarmClockMinSingleDig	res	1
                                           
                                           UD_123_50	udata
                                           _GV_RunAlarmClockMinTenDig	res	1
                                           
                                           UD_123_51	udata
                                           _GV_15sNoOperationCnt	res	1
                                           
                                           UD_123_52	udata
                                           _GV_DisplayBrightnessLevel	res	1
                                           
                                           UD_123_53	udata
                                           _GV_SnoozeTimer	res	1
                                           
                                           UD_123_54	udata
                                           _DATA_ID	res	2
                                           
                                           UD_123_55	udata
                                           _LV_Temp	res	2
                                           
                                           UD_123_56	udata
                                           _ABuf	res	1
                                           
                                           UD_123_57	udata
                                           _StatusBuf	res	1
                                           
                                           UD_123_58	udata
                                           _FSR_TEMP	res	1
                                           
                                           ;--------------------------------------------------------
                                           ; absolute symbol definitions
                                           ;--------------------------------------------------------
                                           ;--------------------------------------------------------
                                           ; compiler-defined variables
                                           ;--------------------------------------------------------
                                           UDL_123_0	udata
                                           r0x1069	res	1
                                           r0x106A	res	1
                                           r0x1067	res	1
                                           r0x1068	res	1
                                           r0x1066	res	1
                                           r0x1048	res	1
                                           r0x1049	res	1
                                           r0x105A	res	1
                                           r0x105B	res	1
                                           r0x105C	res	1
                                           r0x1064	res	1
                                           r0x1065	res	1
                                           r0x105D	res	1
                                           r0x105E	res	1
                                           r0x105F	res	1
                                           r0x1060	res	1
                                           r0x1061	res	1
                                           r0x1062	res	1
                                           r0x1063	res	1
                                           r0x1045	res	1
                                           r0x1046	res	1
                                           r0x1047	res	1
                                           r0x1059	res	1
                                           r0x104A	res	1
                                           r0x104B	res	1
                                           r0x104C	res	1
                                           r0x104D	res	1
                                           r0x104E	res	1
                                           r0x104F	res	1
                                           r0x1050	res	1
                                           r0x1051	res	1
                                           r0x1052	res	1
                                           r0x1053	res	1
                                           r0x1054	res	1
                                           r0x1055	res	1
                                           r0x1056	res	1
                                           r0x1057	res	1
                                           r0x1058	res	1
                                           r0x106B	res	1
                                           ;--------------------------------------------------------
                                           ; initialized data
                                           ;--------------------------------------------------------
                                           
                                           ID_123_0	idata
                                           _GV_SetYearthousandDig
                                           	db	0x02
                                           
                                           
                                           ID_123_1	idata
                                           _GV_RunYearthousandDig
                                           	db	0x02
                                           
                                           
                                           ID_123_2	idata
                                           _C_NumberTable
                                           	db	0x3f
                                           	db	0x06
                                           	db	0x5b
                                           	db	0x4f
                                           	db	0x66
                                           	db	0x6d
                                           	db	0x7d
                                           	db	0x07
                                           	db	0x7f
                                           	db	0x6f
                                           	db	0x00
                                           	db	0x00
                                           
                                           
                                           ;@Allocation info for local variables in function 'main'
                                           ;@main Sub_Read1302              Allocated to registers ;size:2
                                           ;@main Sub_Write1302             Allocated to registers ;size:2
                                           ;@main Sub_Initial               Allocated to registers ;size:2
                                           ;@main Sub_GetAdc                Allocated to registers ;size:2
                                           ;@main Sub_KeyScan               Allocated to registers ;size:2
                                           ;@main Sub_AlarmEvent            Allocated to registers ;size:2
                                           ;@main Sub_SendDispDataToTA6932  Allocated to registers ;size:2
                                           ;@main Sub_TA6932Disp            Allocated to registers ;size:2
                                           ;@main Sub_LedDisp               Allocated to registers ;size:2
                                           ;@main Sub_Buzzer                Allocated to registers ;size:2
                                           ;@main Sub_PT6964PowerOnAllDisp2s Allocated to registers ;size:2
                                           ;@main Sub_IoInitial             Allocated to registers ;size:2
                                           ;@main Sub_SetLongKeyGetRealTimeClockSetMode Allocated to registers ;size:2
                                           ;@main main                      Allocated to registers ;size:2
                                           ;@main PFLAGbits                 Allocated to registers ;size:1
                                           ;@main MCRbits                   Allocated to registers ;size:1
                                           ;@main INTEbits                  Allocated to registers ;size:1
                                           ;@main INTFbits                  Allocated to registers ;size:1
                                           ;@main OSCMbits                  Allocated to registers ;size:1
                                           ;@main IOP0bits                  Allocated to registers ;size:1
                                           ;@main OEP0bits                  Allocated to registers ;size:1
                                           ;@main PUP0bits                  Allocated to registers ;size:1
                                           ;@main IOP1bits                  Allocated to registers ;size:1
                                           ;@main OEP1bits                  Allocated to registers ;size:1
                                           ;@main PUP1bits                  Allocated to registers ;size:1
                                           ;@main IOP2bits                  Allocated to registers ;size:1
                                           ;@main OEP2bits                  Allocated to registers ;size:1
                                           ;@main PUP2bits                  Allocated to registers ;size:1
                                           ;@main T0CRbits                  Allocated to registers ;size:1
                                           ;@main T1CRbits                  Allocated to registers ;size:1
                                           ;@main T2CRbits                  Allocated to registers ;size:1
                                           ;@main T3CRbits                  Allocated to registers ;size:1
                                           ;@main PWMCR0bits                Allocated to registers ;size:1
                                           ;@main PWMCR1bits                Allocated to registers ;size:1
                                           ;@main ADCR0bits                 Allocated to registers ;size:1
                                           ;@main ADCR1bits                 Allocated to registers ;size:1
                                           ;@main ANSELbits                 Allocated to registers ;size:1
                                           ;@main LEDCR0bits                Allocated to registers ;size:1
                                           ;@main LEDCR1bits                Allocated to registers ;size:1
                                           ;@main LCDCR0bits                Allocated to registers ;size:1
                                           ;@main LCDCR1bits                Allocated to registers ;size:1
                                           ;@main LCDIOS0bits               Allocated to registers ;size:1
                                           ;@main LCDIOS1bits               Allocated to registers ;size:1
                                           ;@main LCDIOS2bits               Allocated to registers ;size:1
                                           ;@main UserFlag                  Allocated to registers ;size:1
                                           ;@main UserFlag1                 Allocated to registers ;size:1
                                           ;@main GV_2msClock               Allocated to registers ;size:1
                                           ;@main GV_10msClock              Allocated to registers ;size:1
                                           ;@main GV_100msClock             Allocated to registers ;size:1
                                           ;@main GV_200msClock             Allocated to registers ;size:1
                                           ;@main GV_250msClock             Allocated to registers ;size:1
                                           ;@main GV_500msClock             Allocated to registers ;size:1
                                           ;@main GV_BuzzerPeriod           Allocated to registers ;size:1
                                           ;@main GV_BuzzerBBPeriod         Allocated to registers ;size:1
                                           ;@main GV_KeyDebounce            Allocated to registers ;size:1
                                           ;@main GV_PreKey                 Allocated to registers ;size:1
                                           ;@main GV_CurKey                 Allocated to registers ;size:1
                                           ;@main GV_LongKeyTimer           Allocated to registers ;size:2
                                           ;@main GV_Mode                   Allocated to registers ;size:1
                                           ;@main GV_RealTimeClockSetStep   Allocated to registers ;size:1
                                           ;@main GV_AlarmClockSetStep      Allocated to registers ;size:1
                                           ;@main GV_BuzzerIndex            Allocated to registers ;size:1
                                           ;@main GV_BuzzerDuty             Allocated to registers ;size:1
                                           ;@main GV_GetByteFromDs1302      Allocated to registers ;size:1
                                           ;@main GV_GetPT6964Data          Allocated to registers ;size:1
                                           ;@main GV_SetYearSingleDig       Allocated to registers ;size:1
                                           ;@main GV_SetYearTenDig          Allocated to registers ;size:1
                                           ;@main GV_SetYearHundredsDig     Allocated to registers ;size:1
                                           ;@main GV_SetYearthousandDig     Allocated to registers ;size:1
                                           ;@main GV_RunYearSingleDig       Allocated to registers ;size:1
                                           ;@main GV_RunYearTenDig          Allocated to registers ;size:1
                                           ;@main GV_RunYearHundredsDig     Allocated to registers ;size:1
                                           ;@main GV_RunYearthousandDig     Allocated to registers ;size:1
                                           ;@main GV_SetMonthSingleDig      Allocated to registers ;size:1
                                           ;@main GV_SetMonthTenDig         Allocated to registers ;size:1
                                           ;@main GV_RunMonthSingleDig      Allocated to registers ;size:1
                                           ;@main GV_RunMonthTenDig         Allocated to registers ;size:1
                                           ;@main GV_SetDaySingleDig        Allocated to registers ;size:1
                                           ;@main GV_SetDayTenDig           Allocated to registers ;size:1
                                           ;@main GV_RunDaySingleDig        Allocated to registers ;size:1
                                           ;@main GV_RunDayTenDig           Allocated to registers ;size:1
                                           ;@main GV_SetRealTimeClockHrSingleDig Allocated to registers ;size:1
                                           ;@main GV_SetRealTimeClockHrTenDig Allocated to registers ;size:1
                                           ;@main GV_SetRealTimeClockMinSingleDig Allocated to registers ;size:1
                                           ;@main GV_SetRealTimeClockMinTenDig Allocated to registers ;size:1
                                           ;@main GV_RunRealTimeClockHrSingleDig Allocated to registers ;size:1
                                           ;@main GV_RunRealTimeClockHrTenDig Allocated to registers ;size:1
                                           ;@main GV_RunRealTimeClockMinSingleDig Allocated to registers ;size:1
                                           ;@main GV_RunRealTimeClockMinTenDig Allocated to registers ;size:1
                                           ;@main GV_SetAlarmClockHrSingleDig Allocated to registers ;size:1
                                           ;@main GV_SetAlarmClockHrTenDig  Allocated to registers ;size:1
                                           ;@main GV_SetAlarmClockMinSingleDig Allocated to registers ;size:1
                                           ;@main GV_SetAlarmClockMinTenDig Allocated to registers ;size:1
                                           ;@main GV_RunAlarmClockHrSingleDig Allocated to registers ;size:1
                                           ;@main GV_RunAlarmClockHrTenDig  Allocated to registers ;size:1
                                           ;@main GV_RunAlarmClockMinSingleDig Allocated to registers ;size:1
                                           ;@main GV_RunAlarmClockMinTenDig Allocated to registers ;size:1
                                           ;@main GV_15sNoOperationCnt      Allocated to registers ;size:1
                                           ;@main GV_DisplayBrightnessLevel Allocated to registers ;size:1
                                           ;@main GV_SnoozeTimer            Allocated to registers ;size:1
                                           ;@main DATA_ID                   Allocated to registers ;size:2
                                           ;@main LV_Temp                   Allocated to registers ;size:2
                                           ;@main ABuf                      Allocated to registers ;size:1
                                           ;@main StatusBuf                 Allocated to registers ;size:1
                                           ;@main FSR_TEMP                  Allocated to registers ;size:1
                                           ;@main C_NumberTable             Allocated to registers ;size:12
                                           ;@main INDF                      Allocated to registers ;size:1
                                           ;@main INDF0                     Allocated to registers ;size:1
                                           ;@main INDF1                     Allocated to registers ;size:1
                                           ;@main INDF2                     Allocated to registers ;size:1
                                           ;@main HIBYTE                    Allocated to registers ;size:1
                                           ;@main FSR                       Allocated to registers ;size:1
                                           ;@main FSR0                      Allocated to registers ;size:1
                                           ;@main FSR1                      Allocated to registers ;size:1
                                           ;@main PCL                       Allocated to registers ;size:1
                                           ;@main STATUS                    Allocated to registers ;size:1
                                           ;@main PFLAG                     Allocated to registers ;size:1
                                           ;@main MCR                       Allocated to registers ;size:1
                                           ;@main INDF3                     Allocated to registers ;size:1
                                           ;@main INTE                      Allocated to registers ;size:1
                                           ;@main INTF                      Allocated to registers ;size:1
                                           ;@main OSCM                      Allocated to registers ;size:1
                                           ;@main IOP0                      Allocated to registers ;size:1
                                           ;@main OEP0                      Allocated to registers ;size:1
                                           ;@main PUP0                      Allocated to registers ;size:1
                                           ;@main IOP1                      Allocated to registers ;size:1
                                           ;@main OEP1                      Allocated to registers ;size:1
                                           ;@main PUP1                      Allocated to registers ;size:1
                                           ;@main IOP2                      Allocated to registers ;size:1
                                           ;@main OEP2                      Allocated to registers ;size:1
                                           ;@main PUP2                      Allocated to registers ;size:1
                                           ;@main T0CR                      Allocated to registers ;size:1
                                           ;@main T0CNT                     Allocated to registers ;size:1
                                           ;@main T0LOAD                    Allocated to registers ;size:1
                                           ;@main T0DATA                    Allocated to registers ;size:1
                                           ;@main T1CR                      Allocated to registers ;size:1
                                           ;@main T1CNT                     Allocated to registers ;size:1
                                           ;@main T1LOAD                    Allocated to registers ;size:1
                                           ;@main T1DATA                    Allocated to registers ;size:1
                                           ;@main T2CR                      Allocated to registers ;size:1
                                           ;@main T2CNT                     Allocated to registers ;size:1
                                           ;@main T2LOAD                    Allocated to registers ;size:1
                                           ;@main T2DATA                    Allocated to registers ;size:1
                                           ;@main T3CR                      Allocated to registers ;size:1
                                           ;@main T3CNT                     Allocated to registers ;size:1
                                           ;@main T3LOAD                    Allocated to registers ;size:1
                                           ;@main PWM0DE                    Allocated to registers ;size:1
                                           ;@main PWM1DE                    Allocated to registers ;size:1
                                           ;@main PWM2DE                    Allocated to registers ;size:1
                                           ;@main PWMCR0                    Allocated to registers ;size:1
                                           ;@main PWMCR1                    Allocated to registers ;size:1
                                           ;@main ADCR0                     Allocated to registers ;size:1
                                           ;@main ADCR1                     Allocated to registers ;size:1
                                           ;@main ADRH                      Allocated to registers ;size:1
                                           ;@main ADRL                      Allocated to registers ;size:1
                                           ;@main ANSEL                     Allocated to registers ;size:1
                                           ;@main LEDCR0                    Allocated to registers ;size:1
                                           ;@main LEDCR1                    Allocated to registers ;size:1
                                           ;@main LCDCR0                    Allocated to registers ;size:1
                                           ;@main LCDCR1                    Allocated to registers ;size:1
                                           ;@main LCDIOS0                   Allocated to registers ;size:1
                                           ;@main LCDIOS1                   Allocated to registers ;size:1
                                           ;@main LCDIOS2                   Allocated to registers ;size:1
                                           ;@end Allocation info for local variables in function 'main';
                                           ;@Allocation info for local variables in function 'Sub_SendByteToDS1302'
                                           ;@Sub_SendByteToDS1302 LV_SendTodata             Allocated to registers r0x1067 ;size:1
                                           ;@Sub_SendByteToDS1302 i                         Allocated to registers r0x1068 ;size:1
                                           ;@Sub_SendByteToDS1302 LV_TempE                  Allocated to registers ;size:1
                                           ;@end Allocation info for local variables in function 'Sub_SendByteToDS1302';
                                           ;@Allocation info for local variables in function 'Sub_GetByteFromDS1302'
                                           ;@Sub_GetByteFromDS1302 i                         Allocated to registers r0x1066 ;size:1
                                           ;@end Allocation info for local variables in function 'Sub_GetByteFromDS1302';
                                           ;@Allocation info for local variables in function 'Sub_Read1302'
                                           ;@Sub_Read1302 LV_Addr                   Allocated to registers r0x1048 ;size:1
                                           ;@Sub_Read1302 i                         Allocated to registers r0x1049 ;size:1
                                           ;@Sub_Read1302 LV_TempE                  Allocated to registers ;size:1
                                           ;@end Allocation info for local variables in function 'Sub_Read1302';
                                           ;@Allocation info for local variables in function 'Sub_Write1302'
                                           ;@Sub_Write1302 LV_Data                   Allocated to registers r0x105B ;size:1
                                           ;@Sub_Write1302 LV_Addr                   Allocated to registers r0x105A ;size:1
                                           ;@Sub_Write1302 i                         Allocated to registers r0x105C ;size:1
                                           ;@Sub_Write1302 LV_TempE                  Allocated to registers ;size:1
                                           ;@end Allocation info for local variables in function 'Sub_Write1302';
                                           ;@Allocation info for local variables in function 'Sub_AlarmEvent'
                                           ;@end Allocation info for local variables in function 'Sub_AlarmEvent';
                                           ;@Allocation info for local variables in function 'Sub_IoInitial'
                                           ;@end Allocation info for local variables in function 'Sub_IoInitial';
                                           ;@Allocation info for local variables in function 'Sub_LoopDelay'
                                           ;@end Allocation info for local variables in function 'Sub_LoopDelay';
                                           ;@Allocation info for local variables in function 'Sub_TC2Initial'
                                           ;@end Allocation info for local variables in function 'Sub_TC2Initial';
                                           ;@Allocation info for local variables in function 'Sub_Initial'
                                           ;@end Allocation info for local variables in function 'Sub_Initial';
                                           ;@Allocation info for local variables in function 'Sub_Up_AlLongKeyGetAlarmSetMode'
                                           ;@end Allocation info for local variables in function 'Sub_Up_AlLongKeyGetAlarmSetMode';
                                           ;@Allocation info for local variables in function 'Sub_SetAlarmAddTimer'
                                           ;@end Allocation info for local variables in function 'Sub_SetAlarmAddTimer';
                                           ;@Allocation info for local variables in function 'Sub_Up_AlShortLongKeyAlarmSet'
                                           ;@end Allocation info for local variables in function 'Sub_Up_AlShortLongKeyAlarmSet';
                                           ;@Allocation info for local variables in function 'Sub_RealTimeClockAdd'
                                           ;@Sub_RealTimeClockAdd LV_TempYear               Allocated to registers r0x105B ;size:1
                                           ;@Sub_RealTimeClockAdd LV_TempMonth              Allocated to registers r0x105A ;size:1
                                           ;@Sub_RealTimeClockAdd LV_TempA                  Allocated to registers r0x105A ;size:1
                                           ;@Sub_RealTimeClockAdd LV_TempB                  Allocated to registers r0x105C ;size:1
                                           ;@end Allocation info for local variables in function 'Sub_RealTimeClockAdd';
                                           ;@Allocation info for local variables in function 'Sub_Up_AlShortLongKeyClockSet'
                                           ;@end Allocation info for local variables in function 'Sub_Up_AlShortLongKeyClockSet';
                                           ;@Allocation info for local variables in function 'Sub_SetAlarmDecTimer'
                                           ;@end Allocation info for local variables in function 'Sub_SetAlarmDecTimer';
                                           ;@Allocation info for local variables in function 'Sub_DownShortLongKeyAlarmSet'
                                           ;@end Allocation info for local variables in function 'Sub_DownShortLongKeyAlarmSet';
                                           ;@Allocation info for local variables in function 'Sub_RealTimeClockDec'
                                           ;@Sub_RealTimeClockDec LV_TempYear               Allocated to registers r0x105B ;size:1
                                           ;@Sub_RealTimeClockDec LV_TempMonth              Allocated to registers r0x105A ;size:1
                                           ;@Sub_RealTimeClockDec LV_TempA                  Allocated to registers r0x105A ;size:1
                                           ;@Sub_RealTimeClockDec LV_TempB                  Allocated to registers r0x105C ;size:1
                                           ;@end Allocation info for local variables in function 'Sub_RealTimeClockDec';
                                           ;@Allocation info for local variables in function 'Sub_DownShortLongKeyClockSet'
                                           ;@end Allocation info for local variables in function 'Sub_DownShortLongKeyClockSet';
                                           ;@Allocation info for local variables in function 'Sub_SetLongKeyGetRealTimeClockSetMode'
                                           ;@Sub_SetLongKeyGetRealTimeClockSetMode LV_TempA                  Allocated to registers ;size:1
                                           ;@Sub_SetLongKeyGetRealTimeClockSetMode LV_TempB                  Allocated to registers ;size:1
                                           ;@end Allocation info for local variables in function 'Sub_SetLongKeyGetRealTimeClockSetMode';
                                           ;@Allocation info for local variables in function 'Sub_SetKeyRealTimeClockEnter'
                                           ;@Sub_SetKeyRealTimeClockEnter LV_TempYear               Allocated to registers r0x105F ;size:1
                                           ;@Sub_SetKeyRealTimeClockEnter LV_TempMonth              Allocated to registers r0x1061 ;size:1
                                           ;@Sub_SetKeyRealTimeClockEnter LV_TempDay                Allocated to registers r0x105E ;size:1
                                           ;@Sub_SetKeyRealTimeClockEnter LV_TempA                  Allocated to registers r0x105E ;size:1
                                           ;@Sub_SetKeyRealTimeClockEnter LV_TempB                  Allocated to registers r0x1060 ;size:1
                                           ;@Sub_SetKeyRealTimeClockEnter LV_TenTemp                Allocated to registers r0x105D ;size:1
                                           ;@end Allocation info for local variables in function 'Sub_SetKeyRealTimeClockEnter';
                                           ;@Allocation info for local variables in function 'Sub_SetKeyAlarmEnter'
                                           ;@end Allocation info for local variables in function 'Sub_SetKeyAlarmEnter';
                                           ;@Allocation info for local variables in function 'Sub_KeyScan'
                                           ;@Sub_KeyScan LV_TempB                  Allocated to registers r0x1063 ;size:1
                                           ;@end Allocation info for local variables in function 'Sub_KeyScan';
                                           ;@Allocation info for local variables in function 'Sub_BuzzerBBB'
                                           ;@end Allocation info for local variables in function 'Sub_BuzzerBBB';
                                           ;@Allocation info for local variables in function 'Sub_Buzzer'
                                           ;@end Allocation info for local variables in function 'Sub_Buzzer';
                                           ;@Allocation info for local variables in function 'Sub_SendByteToPT6964'
                                           ;@Sub_SendByteToPT6964 LV_SendTodata             Allocated to registers r0x1045 ;size:1
                                           ;@Sub_SendByteToPT6964 i                         Allocated to registers r0x1046 ;size:1
                                           ;@end Allocation info for local variables in function 'Sub_SendByteToPT6964';
                                           ;@Allocation info for local variables in function 'Sub_GetByteFromPT6964'
                                           ;@Sub_GetByteFromPT6964 LV_TempPT6964             Allocated to registers r0x1059 ;size:1
                                           ;@end Allocation info for local variables in function 'Sub_GetByteFromPT6964';
                                           ;@Allocation info for local variables in function 'Sub_SendDispDataToTA6932'
                                           ;@Sub_SendDispDataToTA6932 LV_TempA                  Allocated to registers ;size:1
                                           ;@Sub_SendDispDataToTA6932 LV_TempB                  Allocated to registers ;size:1
                                           ;@Sub_SendDispDataToTA6932 LV_Dig1_SG1_8             Allocated to registers r0x104A ;size:1
                                           ;@Sub_SendDispDataToTA6932 LV_Dig2_SG1_8             Allocated to registers r0x104B ;size:1
                                           ;@Sub_SendDispDataToTA6932 LV_Dig3_SG1_8             Allocated to registers r0x104C ;size:1
                                           ;@Sub_SendDispDataToTA6932 LV_Dig4_SG1_8             Allocated to registers r0x104D ;size:1
                                           ;@Sub_SendDispDataToTA6932 LV_Dig5_SG1_8             Allocated to registers r0x104E ;size:1
                                           ;@Sub_SendDispDataToTA6932 LV_Dig6_SG1_8             Allocated to registers r0x104F ;size:1
                                           ;@Sub_SendDispDataToTA6932 LV_Dig7_SG1_8             Allocated to registers r0x1050 ;size:1
                                           ;@Sub_SendDispDataToTA6932 LV_Dig8_SG1_8             Allocated to registers r0x1051 ;size:1
                                           ;@Sub_SendDispDataToTA6932 LV_Dig9_SG1_8             Allocated to registers r0x1052 ;size:1
                                           ;@Sub_SendDispDataToTA6932 LV_Dig10_SG1_8            Allocated to registers r0x1053 ;size:1
                                           ;@Sub_SendDispDataToTA6932 LV_Dig11_SG1_8            Allocated to registers r0x1054 ;size:1
                                           ;@Sub_SendDispDataToTA6932 LV_Dig12_SG1_8            Allocated to registers r0x1055 ;size:1
                                           ;@Sub_SendDispDataToTA6932 LV_Dig13_SG1_8            Allocated to registers r0x1056 ;size:1
                                           ;@end Allocation info for local variables in function 'Sub_SendDispDataToTA6932';
                                           ;@Allocation info for local variables in function 'Sub_TA6932Disp'
                                           ;@end Allocation info for local variables in function 'Sub_TA6932Disp';
                                           ;@Allocation info for local variables in function 'Sub_PT6964PowerOnAllDisp2s'
                                           ;@Sub_PT6964PowerOnAllDisp2s LV_Dig1_SG1_8             Allocated to registers ;size:1
                                           ;@Sub_PT6964PowerOnAllDisp2s LV_Dig2_SG1_8             Allocated to registers ;size:1
                                           ;@Sub_PT6964PowerOnAllDisp2s LV_Dig3_SG1_8             Allocated to registers ;size:1
                                           ;@Sub_PT6964PowerOnAllDisp2s LV_Dig4_SG1_8             Allocated to registers ;size:1
                                           ;@Sub_PT6964PowerOnAllDisp2s LV_Dig5_SG1_8             Allocated to registers ;size:1
                                           ;@Sub_PT6964PowerOnAllDisp2s LV_Dig6_SG1_8             Allocated to registers ;size:1
                                           ;@Sub_PT6964PowerOnAllDisp2s LV_Dig7_SG1_8             Allocated to registers ;size:1
                                           ;@Sub_PT6964PowerOnAllDisp2s LV_Dig8_SG1_8             Allocated to registers ;size:1
                                           ;@Sub_PT6964PowerOnAllDisp2s LV_Dig9_SG1_8             Allocated to registers ;size:1
                                           ;@Sub_PT6964PowerOnAllDisp2s LV_Dig10_SG1_8            Allocated to registers ;size:1
                                           ;@Sub_PT6964PowerOnAllDisp2s LV_Dig11_SG1_8            Allocated to registers ;size:1
                                           ;@Sub_PT6964PowerOnAllDisp2s LV_Dig12_SG1_8            Allocated to registers ;size:1
                                           ;@Sub_PT6964PowerOnAllDisp2s LV_Dig13_SG1_8            Allocated to registers ;size:1
                                           ;@end Allocation info for local variables in function 'Sub_PT6964PowerOnAllDisp2s';
                                           ;@Allocation info for local variables in function 'int_isr'
                                           ;@end Allocation info for local variables in function 'int_isr';
                                           
                                           ;--------------------------------------------------------
                                           ; overlayable items in internal ram 
                                           ;--------------------------------------------------------
                                           ;	udata_ovr
                                           ;--------------------------------------------------------
                                           ; reset vector 
                                           ;--------------------------------------------------------
                                           STARTUP	code 0x0000
000000   a027     goto    0x27             	goto	_main
                                           ;--------------------------------------------------------
                                           ; interrupt and initialization code
                                           ;--------------------------------------------------------
                                           c_interrupt	code	0x8
                                           __sdcc_interrupt
                                           ;***
                                           ;  pBlock Stats: dbName = I
                                           ;***
                                           ;entry:  _int_isr	;Function start
                                           ; 0 exit points
                                           ;2 compiler assigned registers:
                                           ;   r0x106B
                                           ;   r0x106C
                                           ;; Starting pCode block
                                           _int_isr	;Function start
                                           ; 0 exit points
                                           ;	.line	4220; "123.c"	__endasm;
000008   567a     movra   0x7a             	movra _ABuf
000009   4587     swapar  0x187            	swapar _STATUS
00000a   567b     movra   0x7b             	movra _StatusBuf
                                           	
                                           ;	.line	4221; "123.c"	if(T0IF)
00000b   e18b     jbset   0x18b, 0         	JBSET	_INTFbits,0
00000c   a022     goto    0x22             	GOTO	_01293_DS_
                                           ;	.line	4223; "123.c"	T0IF = 0;
00000d   d18b     bclr    0x18b, 0         	BCLR	_INTFbits,0
                                           ;	.line	4225; "123.c"	PO_Buzzer = !PO_Buzzer;
00000e   762d     clrr    0x2d             	CLRR	r0x106B
00000f   f398     jbclr   0x198, 0x1       	JBCLR	_IOP2bits,1
000010   662d     incr    0x2d             	INCR	r0x106B
000011   582d     movar   0x2d             	MOVAR	r0x106B
000012   3c00     movai   0                	MOVAI	0x00
000013   f587     jbclr   0x187, 0x2       	JBCLR	PFLAG,2
000014   3c01     movai   0x1              	MOVAI	0x01
000015   562d     movra   0x2d             	MOVRA	r0x106B
                                           ;;1	MOVRA	r0x106C
                                           ;;100	MOVAR	r0x106C
000016   4c2d     rrar    0x2d             	RRAR	r0x106B
000017   e187     jbset   0x187, 0         	JBSET	PFLAG,0
000018   d398     bclr    0x198, 0x1       	BCLR	_IOP2bits,1
000019   f187     jbclr   0x187, 0         	JBCLR	PFLAG,0
00001a   c398     bset    0x198, 0x1       	BSET	_IOP2bits,1
                                           ;	.line	4226; "123.c"	if(++GV_2msClock >= 16)
00001b   6647     incr    0x47             	INCR	_GV_2msClock
                                           ;;unsigned compare: left < lit(0x10=16), size=1
00001c   3c10     movai   0x10             	MOVAI	0x10
00001d   4847     rsubar  0x47             	RSUBAR	_GV_2msClock
00001e   e187     jbset   0x187, 0         	JBSET	PFLAG,0
00001f   a022     goto    0x22             	GOTO	_01293_DS_
                                           ;;genSkipc:3195: created from rifx:00DE608C
                                           ;	.line	4228; "123.c"	GV_2msClock = 0;
000020   7647     clrr    0x47             	CLRR	_GV_2msClock
                                           ;	.line	4229; "123.c"	BF_TccClock2ms = 1;
000021   c045     bset    0x45, 0          	BSET	_UserFlag,0
                                           _01293_DS_
                                           ;	.line	4237; "123.c"	__endasm;
000022   447b     swapar  0x7b             	swapar _StatusBuf
000023   5787     movra   0x187            	movra _STATUS
000024   467a     swapr   0x7a             	swapr _ABuf
000025   447a     swapar  0x7a             	swapar _ABuf
                                           	
                                           END_OF_INTERRUPT
000026   000d     retie                    	RETIE	
                                           
                                           ;--------------------------------------------------------
                                           ; code
                                           ;--------------------------------------------------------
                                           code_123	code
                                           ;***
                                           ;  pBlock Stats: dbName = M
                                           ;***
                                           ;entry:  _main	;Function start
                                           ; 2 exit points
                                           ;has an exit
                                           ;functions called:
                                           ;   _Sub_Initial
                                           ;   _Sub_KeyScan
                                           ;   _Sub_Buzzer
                                           ;   _Sub_TA6932Disp
                                           ;   _Sub_AlarmEvent
                                           ;   _Sub_Initial
                                           ;   _Sub_KeyScan
                                           ;   _Sub_Buzzer
                                           ;   _Sub_TA6932Disp
                                           ;   _Sub_AlarmEvent
                                           ;2 compiler assigned registers:
                                           ;   r0x1069
                                           ;   r0x106A
                                           ;; Starting pCode block
                                           _main	;Function start
                                           ; 2 exit points
                                           ;	.line	217; "123.c"	Sub_Initial();
000027   8abe     call    0xabe            	CALL	_Sub_Initial
                                           _00125_DS_
                                           ;	.line	221; "123.c"	ClrWdt(); //(feed the doggie )
000028   000e     clrwdt                   	clrwdt
                                           ;	.line	223; "123.c"	if(BF_TccClock2ms)  //
000029   e045     jbset   0x45, 0          	JBSET	_UserFlag,0
00002a   a028     goto    0x28             	GOTO	_00125_DS_
                                           ;	.line	225; "123.c"	BF_TccClock2ms = 0;
00002b   d045     bclr    0x45, 0          	BCLR	_UserFlag,0
                                           ;	.line	227; "123.c"	Sub_KeyScan();
00002c   84a6     call    0x4a6            	CALL	_Sub_KeyScan
                                           ;	.line	228; "123.c"	Sub_Buzzer();
00002d   842e     call    0x42e            	CALL	_Sub_Buzzer
                                           ;	.line	231; "123.c"	if(++GV_10msClock>=5) //
00002e   6648     incr    0x48             	INCR	_GV_10msClock
                                           ;;unsigned compare: left < lit(0x5=5), size=1
00002f   3c05     movai   0x5              	MOVAI	0x05
000030   4848     rsubar  0x48             	RSUBAR	_GV_10msClock
000031   e187     jbset   0x187, 0         	JBSET	PFLAG,0
000032   a035     goto    0x35             	GOTO	_00106_DS_
                                           ;;genSkipc:3195: created from rifx:00DE608C
                                           ;	.line	233; "123.c"	GV_10msClock = 0;
000033   7648     clrr    0x48             	CLRR	_GV_10msClock
                                           ;	.line	234; "123.c"	Sub_TA6932Disp();
000034   80bc     call    0xbc             	CALL	_Sub_TA6932Disp
                                           _00106_DS_
                                           ;	.line	238; "123.c"	if(++GV_100msClock>=50) //
000035   6649     incr    0x49             	INCR	_GV_100msClock
                                           ;;unsigned compare: left < lit(0x32=50), size=1
000036   3c32     movai   0x32             	MOVAI	0x32
000037   4849     rsubar  0x49             	RSUBAR	_GV_100msClock
000038   e187     jbset   0x187, 0         	JBSET	PFLAG,0
000039   a03c     goto    0x3c             	GOTO	_00108_DS_
                                           ;;genSkipc:3195: created from rifx:00DE608C
                                           ;	.line	240; "123.c"	GV_100msClock = 0;
00003a   7649     clrr    0x49             	CLRR	_GV_100msClock
                                           ;	.line	241; "123.c"	Sub_AlarmEvent();
00003b   8b39     call    0xb39            	CALL	_Sub_AlarmEvent
                                           _00108_DS_
                                           ;	.line	245; "123.c"	if(++GV_200msClock>=100) //
00003c   664a     incr    0x4a             	INCR	_GV_200msClock
                                           ;;unsigned compare: left < lit(0x64=100), size=1
00003d   3c64     movai   0x64             	MOVAI	0x64
00003e   484a     rsubar  0x4a             	RSUBAR	_GV_200msClock
00003f   e187     jbset   0x187, 0         	JBSET	PFLAG,0
000040   a042     goto    0x42             	GOTO	_00110_DS_
                                           ;;genSkipc:3195: created from rifx:00DE608C
                                           ;	.line	247; "123.c"	GV_200msClock = 0;
000041   764a     clrr    0x4a             	CLRR	_GV_200msClock
                                           _00110_DS_
                                           ;	.line	251; "123.c"	if(++GV_250msClock>=125) //Per 250ms
000042   664b     incr    0x4b             	INCR	_GV_250msClock
                                           ;;unsigned compare: left < lit(0x7D=125), size=1
000043   3c7d     movai   0x7d             	MOVAI	0x7d
000044   484b     rsubar  0x4b             	RSUBAR	_GV_250msClock
000045   e187     jbset   0x187, 0         	JBSET	PFLAG,0
000046   a056     goto    0x56             	GOTO	_00112_DS_
                                           ;;genSkipc:3195: created from rifx:00DE608C
                                           ;	.line	253; "123.c"	GV_250msClock = 0;
000047   764b     clrr    0x4b             	CLRR	_GV_250msClock
                                           ;	.line	254; "123.c"	BF_Clock250ms  = !BF_Clock250ms;
000048   7607     clrr    0x7              	CLRR	r0x1069
000049   f046     jbclr   0x46, 0          	JBCLR	_UserFlag1,0
00004a   6607     incr    0x7              	INCR	r0x1069
00004b   5807     movar   0x7              	MOVAR	r0x1069
00004c   3c00     movai   0                	MOVAI	0x00
00004d   f587     jbclr   0x187, 0x2       	JBCLR	PFLAG,2
00004e   3c01     movai   0x1              	MOVAI	0x01
00004f   5607     movra   0x7              	MOVRA	r0x1069
000050   5608     movra   0x8              	MOVRA	r0x106A
                                           ;;103	MOVAR	r0x106A
000051   4c07     rrar    0x7              	RRAR	r0x1069
000052   e187     jbset   0x187, 0         	JBSET	PFLAG,0
000053   d046     bclr    0x46, 0          	BCLR	_UserFlag1,0
000054   f187     jbclr   0x187, 0         	JBCLR	PFLAG,0
000055   c046     bset    0x46, 0          	BSET	_UserFlag1,0
                                           _00112_DS_
                                           ;	.line	258; "123.c"	if(++GV_500msClock >= 249)//
000056   664c     incr    0x4c             	INCR	_GV_500msClock
                                           ;;unsigned compare: left < lit(0xF9=249), size=1
000057   3cf9     movai   0xf9             	MOVAI	0xf9
000058   484c     rsubar  0x4c             	RSUBAR	_GV_500msClock
000059   e187     jbset   0x187, 0         	JBSET	PFLAG,0
00005a   a028     goto    0x28             	GOTO	_00125_DS_
                                           ;;genSkipc:3195: created from rifx:00DE608C
                                           ;	.line	260; "123.c"	GV_500msClock = 0;
00005b   764c     clrr    0x4c             	CLRR	_GV_500msClock
                                           ;	.line	261; "123.c"	BF_Clock500ms  = !BF_Clock500ms;
00005c   7607     clrr    0x7              	CLRR	r0x1069
00005d   f245     jbclr   0x45, 0x1        	JBCLR	_UserFlag,1
00005e   6607     incr    0x7              	INCR	r0x1069
00005f   5807     movar   0x7              	MOVAR	r0x1069
000060   3c00     movai   0                	MOVAI	0x00
000061   f587     jbclr   0x187, 0x2       	JBCLR	PFLAG,2
000062   3c01     movai   0x1              	MOVAI	0x01
000063   5607     movra   0x7              	MOVRA	r0x1069
000064   5608     movra   0x8              	MOVRA	r0x106A
                                           ;;101	MOVAR	r0x106A
000065   4c07     rrar    0x7              	RRAR	r0x1069
000066   e187     jbset   0x187, 0         	JBSET	PFLAG,0
000067   d245     bclr    0x45, 0x1        	BCLR	_UserFlag,1
000068   f187     jbclr   0x187, 0         	JBCLR	PFLAG,0
000069   c245     bset    0x45, 0x1        	BSET	_UserFlag,1
                                           ;	.line	263; "123.c"	if((GV_15sNoOperationCnt)&&(GV_Mode))//Automatically return to normal mode at 15 seconds without operation in setting mode.
00006a   3c00     movai   0                	MOVAI	0x00
00006b   5c77     orar    0x77             	ORAR	_GV_15sNoOperationCnt
00006c   f587     jbclr   0x187, 0x2       	JBCLR	PFLAG,2
00006d   a078     goto    0x78             	GOTO	_00116_DS_
00006e   3c00     movai   0                	MOVAI	0x00
00006f   5c52     orar    0x52             	ORAR	_GV_Mode
000070   f587     jbclr   0x187, 0x2       	JBCLR	PFLAG,2
000071   a078     goto    0x78             	GOTO	_00116_DS_
                                           ;	.line	265; "123.c"	if(--GV_15sNoOperationCnt == 0)
000072   6e77     decr    0x77             	DECR	_GV_15sNoOperationCnt
000073   3c00     movai   0                	MOVAI	0x00
000074   5c77     orar    0x77             	ORAR	_GV_15sNoOperationCnt
000075   e587     jbset   0x187, 0x2       	JBSET	PFLAG,2
000076   a078     goto    0x78             	GOTO	_00116_DS_
                                           ;	.line	267; "123.c"	GV_Mode = 0;//0=Normal mode; 1=clock set mode; 2=Alarm set mode
000077   7652     clrr    0x52             	CLRR	_GV_Mode
                                           _00116_DS_
                                           ;	.line	271; "123.c"	if(GV_SnoozeTimer)
000078   3c00     movai   0                	MOVAI	0x00
000079   5c79     orar    0x79             	ORAR	_GV_SnoozeTimer
00007a   f587     jbclr   0x187, 0x2       	JBCLR	PFLAG,2
00007b   a028     goto    0x28             	GOTO	_00125_DS_
                                           ;	.line	273; "123.c"	GV_SnoozeTimer--;
00007c   6e79     decr    0x79             	DECR	_GV_SnoozeTimer
00007d   a028     goto    0x28             	GOTO	_00125_DS_
00007e   000c     return                   	RETURN	
                                           ; exit point of _main
                                           
                                           ;***
                                           ;  pBlock Stats: dbName = C
                                           ;***
                                           ;entry:  _Sub_PT6964PowerOnAllDisp2s	;Function start
                                           ; 2 exit points
                                           ;has an exit
                                           ;functions called:
                                           ;   _Sub_SendByteToPT6964
                                           ;   _Sub_SendByteToPT6964
                                           ;   _Sub_SendByteToPT6964
                                           ;   _Sub_SendByteToPT6964
                                           ;   _Sub_SendByteToPT6964
                                           ;   _Sub_SendByteToPT6964
                                           ;   _Sub_SendByteToPT6964
                                           ;   _Sub_SendByteToPT6964
                                           ;   _Sub_SendByteToPT6964
                                           ;   _Sub_SendByteToPT6964
                                           ;   _Sub_SendByteToPT6964
                                           ;   _Sub_SendByteToPT6964
                                           ;   _Sub_SendByteToPT6964
                                           ;   _Sub_SendByteToPT6964
                                           ;   _Sub_SendByteToPT6964
                                           ;   _Sub_SendByteToPT6964
                                           ;   _Sub_SendByteToPT6964
                                           ;   _Sub_SendByteToPT6964
                                           ;   _Sub_SendByteToPT6964
                                           ;   _Sub_SendByteToPT6964
                                           ;   _Sub_SendByteToPT6964
                                           ;   _Sub_SendByteToPT6964
                                           ;   _Sub_SendByteToPT6964
                                           ;   _Sub_SendByteToPT6964
                                           ;   _Sub_SendByteToPT6964
                                           ;   _Sub_SendByteToPT6964
                                           ;   _Sub_SendByteToPT6964
                                           ;   _Sub_SendByteToPT6964
                                           ;   _Sub_SendByteToPT6964
                                           ;   _Sub_SendByteToPT6964
                                           ;   _Sub_SendByteToPT6964
                                           ;   _Sub_SendByteToPT6964
                                           ;   _Sub_SendByteToPT6964
                                           ;   _Sub_SendByteToPT6964
                                           ;   _Sub_SendByteToPT6964
                                           ;   _Sub_SendByteToPT6964
                                           ;; Starting pCode block
                                           _Sub_PT6964PowerOnAllDisp2s	;Function start
                                           ; 2 exit points
                                           ;	.line	4128; "123.c"	SetSTB0();
00007f   d798     bclr    0x198, 0x3       	BCLR	_IOP2bits,3
                                           ;	.line	4129; "123.c"	Sub_SendByteToPT6964(C_DataWrite);//Data W/R command
000080   3c40     movai   0x40             	MOVAI	0x40
000081   8411     call    0x411            	CALL	_Sub_SendByteToPT6964
                                           ;	.line	4130; "123.c"	SetSTB1();
000082   c798     bset    0x198, 0x3       	BSET	_IOP2bits,3
                                           ;	.line	4131; "123.c"	Nop();
000083   0000     nop                      	nop
                                           ;	.line	4132; "123.c"	Nop();
000084   0000     nop                      	nop
                                           ;	.line	4133; "123.c"	SetSTB0();
000085   d798     bclr    0x198, 0x3       	BCLR	_IOP2bits,3
                                           ;	.line	4134; "123.c"	Sub_SendByteToPT6964(C_Address0);//Address control command
000086   3cc0     movai   0xc0             	MOVAI	0xc0
000087   8411     call    0x411            	CALL	_Sub_SendByteToPT6964
                                           ;	.line	4136; "123.c"	Sub_SendByteToPT6964(LV_Dig1_SG1_8);
000088   3cff     movai   0xff             	MOVAI	0xff
000089   8411     call    0x411            	CALL	_Sub_SendByteToPT6964
                                           ;	.line	4137; "123.c"	Sub_SendByteToPT6964(LV_Dig2_SG1_8);
00008a   3cff     movai   0xff             	MOVAI	0xff
00008b   8411     call    0x411            	CALL	_Sub_SendByteToPT6964
                                           ;	.line	4139; "123.c"	Sub_SendByteToPT6964(LV_Dig3_SG1_8);
00008c   3cff     movai   0xff             	MOVAI	0xff
00008d   8411     call    0x411            	CALL	_Sub_SendByteToPT6964
                                           ;	.line	4140; "123.c"	Sub_SendByteToPT6964(LV_Dig4_SG1_8);
00008e   3cff     movai   0xff             	MOVAI	0xff
00008f   8411     call    0x411            	CALL	_Sub_SendByteToPT6964
                                           ;	.line	4142; "123.c"	Sub_SendByteToPT6964(LV_Dig5_SG1_8);
000090   3cff     movai   0xff             	MOVAI	0xff
000091   8411     call    0x411            	CALL	_Sub_SendByteToPT6964
                                           ;	.line	4143; "123.c"	Sub_SendByteToPT6964(LV_Dig6_SG1_8);
000092   3cff     movai   0xff             	MOVAI	0xff
000093   8411     call    0x411            	CALL	_Sub_SendByteToPT6964
                                           ;	.line	4145; "123.c"	Sub_SendByteToPT6964(LV_Dig7_SG1_8);
000094   3cff     movai   0xff             	MOVAI	0xff
000095   8411     call    0x411            	CALL	_Sub_SendByteToPT6964
                                           ;	.line	4146; "123.c"	Sub_SendByteToPT6964(LV_Dig8_SG1_8);
000096   3cff     movai   0xff             	MOVAI	0xff
000097   8411     call    0x411            	CALL	_Sub_SendByteToPT6964
                                           ;	.line	4148; "123.c"	Sub_SendByteToPT6964(LV_Dig9_SG1_8);
000098   3cff     movai   0xff             	MOVAI	0xff
000099   8411     call    0x411            	CALL	_Sub_SendByteToPT6964
                                           ;	.line	4149; "123.c"	Sub_SendByteToPT6964(LV_Dig10_SG1_8);
00009a   3cff     movai   0xff             	MOVAI	0xff
00009b   8411     call    0x411            	CALL	_Sub_SendByteToPT6964
                                           ;	.line	4151; "123.c"	Sub_SendByteToPT6964(LV_Dig11_SG1_8);
00009c   3cff     movai   0xff             	MOVAI	0xff
00009d   8411     call    0x411            	CALL	_Sub_SendByteToPT6964
                                           ;	.line	4152; "123.c"	Sub_SendByteToPT6964(LV_Dig12_SG1_8);
00009e   3cff     movai   0xff             	MOVAI	0xff
00009f   8411     call    0x411            	CALL	_Sub_SendByteToPT6964
                                           ;	.line	4154; "123.c"	Sub_SendByteToPT6964(LV_Dig13_SG1_8);
0000a0   3cff     movai   0xff             	MOVAI	0xff
0000a1   8411     call    0x411            	CALL	_Sub_SendByteToPT6964
                                           ;	.line	4155; "123.c"	SetSTB1();
0000a2   c798     bset    0x198, 0x3       	BSET	_IOP2bits,3
                                           ;	.line	4164; "123.c"	Nop();
0000a3   0000     nop                      	nop
                                           ;	.line	4165; "123.c"	Nop();
0000a4   0000     nop                      	nop
                                           ;	.line	4166; "123.c"	SetSTB0();  
0000a5   d798     bclr    0x198, 0x3       	BCLR	_IOP2bits,3
                                           ;	.line	4167; "123.c"	if(GV_DisplayBrightnessLevel==0)
0000a6   3c00     movai   0                	MOVAI	0x00
0000a7   5c78     orar    0x78             	ORAR	_GV_DisplayBrightnessLevel
0000a8   e587     jbset   0x187, 0x2       	JBSET	PFLAG,2
0000a9   a0ad     goto    0xad             	GOTO	_01284_DS_
                                           ;	.line	4169; "123.c"	Sub_SendByteToPT6964(C_DisplayOnDuty14_16);
0000aa   3c8f     movai   0x8f             	MOVAI	0x8f
0000ab   8411     call    0x411            	CALL	_Sub_SendByteToPT6964
0000ac   a0ba     goto    0xba             	GOTO	_01285_DS_
                                           _01284_DS_
                                           ;	.line	4171; "123.c"	else if(GV_DisplayBrightnessLevel==1)
0000ad   5878     movar   0x78             	MOVAR	_GV_DisplayBrightnessLevel
0000ae   3901     xorai   0x1              	XORAI	0x01
0000af   e587     jbset   0x187, 0x2       	JBSET	PFLAG,2
0000b0   a0b4     goto    0xb4             	GOTO	_01281_DS_
                                           ;	.line	4173; "123.c"	Sub_SendByteToPT6964(C_DisplayOnDuty4_16);
0000b1   3c8a     movai   0x8a             	MOVAI	0x8a
0000b2   8411     call    0x411            	CALL	_Sub_SendByteToPT6964
0000b3   a0ba     goto    0xba             	GOTO	_01285_DS_
                                           _01281_DS_
                                           ;	.line	4175; "123.c"	else if(GV_DisplayBrightnessLevel==2)
0000b4   5878     movar   0x78             	MOVAR	_GV_DisplayBrightnessLevel
0000b5   3902     xorai   0x2              	XORAI	0x02
0000b6   e587     jbset   0x187, 0x2       	JBSET	PFLAG,2
0000b7   a0ba     goto    0xba             	GOTO	_01285_DS_
                                           ;	.line	4177; "123.c"	Sub_SendByteToPT6964(C_DisplayOnDuty1_16);
0000b8   3c88     movai   0x88             	MOVAI	0x88
0000b9   8411     call    0x411            	CALL	_Sub_SendByteToPT6964
                                           _01285_DS_
                                           ;	.line	4197; "123.c"	SetSTB1();
0000ba   c798     bset    0x198, 0x3       	BSET	_IOP2bits,3
0000bb   000c     return                   	RETURN	
                                           ; exit point of _Sub_PT6964PowerOnAllDisp2s
                                           
                                           ;***
                                           ;  pBlock Stats: dbName = C
                                           ;***
                                           ;entry:  _Sub_TA6932Disp	;Function start
                                           ; 2 exit points
                                           ;has an exit
                                           ;functions called:
                                           ;   _Sub_SendDispDataToTA6932
                                           ;   _Sub_SendDispDataToTA6932
                                           ;; Starting pCode block
                                           _Sub_TA6932Disp	;Function start
                                           ; 2 exit points
                                           ;	.line	4081; "123.c"	Sub_SendDispDataToTA6932();	   	   	   	   	   	   	   	   	   	
0000bc   80be     call    0xbe             	CALL	_Sub_SendDispDataToTA6932
0000bd   000c     return                   	RETURN	
                                           ; exit point of _Sub_TA6932Disp
                                           
                                           ;***
                                           ;  pBlock Stats: dbName = C
                                           ;***
                                           ;entry:  _Sub_SendDispDataToTA6932	;Function start
                                           ; 2 exit points
                                           ;has an exit
                                           ;functions called:
                                           ;   _Sub_Read1302
                                           ;   _Sub_Read1302
                                           ;   _Sub_Read1302
                                           ;   _Sub_Read1302
                                           ;   _Sub_Read1302
                                           ;   _Sub_Read1302
                                           ;   _Sub_Read1302
                                           ;   _Sub_Read1302
                                           ;   _Sub_Read1302
                                           ;   _Sub_SendByteToPT6964
                                           ;   _Sub_SendByteToPT6964
                                           ;   _Sub_SendByteToPT6964
                                           ;   _Sub_SendByteToPT6964
                                           ;   _Sub_SendByteToPT6964
                                           ;   _Sub_SendByteToPT6964
                                           ;   _Sub_SendByteToPT6964
                                           ;   _Sub_SendByteToPT6964
                                           ;   _Sub_SendByteToPT6964
                                           ;   _Sub_SendByteToPT6964
                                           ;   _Sub_SendByteToPT6964
                                           ;   _Sub_SendByteToPT6964
                                           ;   _Sub_SendByteToPT6964
                                           ;   _Sub_SendByteToPT6964
                                           ;   _Sub_SendByteToPT6964
                                           ;   _Sub_SendByteToPT6964
                                           ;   _Sub_SendByteToPT6964
                                           ;   _Sub_SendByteToPT6964
                                           ;   _Sub_Read1302
                                           ;   _Sub_Read1302
                                           ;   _Sub_Read1302
                                           ;   _Sub_Read1302
                                           ;   _Sub_Read1302
                                           ;   _Sub_Read1302
                                           ;   _Sub_Read1302
                                           ;   _Sub_Read1302
                                           ;   _Sub_Read1302
                                           ;   _Sub_SendByteToPT6964
                                           ;   _Sub_SendByteToPT6964
                                           ;   _Sub_SendByteToPT6964
                                           ;   _Sub_SendByteToPT6964
                                           ;   _Sub_SendByteToPT6964
                                           ;   _Sub_SendByteToPT6964
                                           ;   _Sub_SendByteToPT6964
                                           ;   _Sub_SendByteToPT6964
                                           ;   _Sub_SendByteToPT6964
                                           ;   _Sub_SendByteToPT6964
                                           ;   _Sub_SendByteToPT6964
                                           ;   _Sub_SendByteToPT6964
                                           ;   _Sub_SendByteToPT6964
                                           ;   _Sub_SendByteToPT6964
                                           ;   _Sub_SendByteToPT6964
                                           ;   _Sub_SendByteToPT6964
                                           ;   _Sub_SendByteToPT6964
                                           ;   _Sub_SendByteToPT6964
                                           ;15 compiler assigned registers:
                                           ;   r0x104A
                                           ;   r0x104B
                                           ;   r0x104C
                                           ;   r0x104D
                                           ;   r0x104E
                                           ;   r0x104F
                                           ;   r0x1050
                                           ;   r0x1051
                                           ;   r0x1052
                                           ;   r0x1053
                                           ;   r0x1054
                                           ;   r0x1055
                                           ;   r0x1056
                                           ;   r0x1057
                                           ;   r0x1058
                                           ;; Starting pCode block
                                           _Sub_SendDispDataToTA6932	;Function start
                                           ; 2 exit points
                                           ;	.line	3324; "123.c"	LV_Dig1_SG1_8 = 0;
0000be   761e     clrr    0x1e             	CLRR	r0x104A
                                           ;	.line	3325; "123.c"	LV_Dig2_SG1_8 = 0;
0000bf   761f     clrr    0x1f             	CLRR	r0x104B
                                           ;	.line	3326; "123.c"	LV_Dig3_SG1_8 = 0;
0000c0   7620     clrr    0x20             	CLRR	r0x104C
                                           ;	.line	3327; "123.c"	LV_Dig4_SG1_8 = 0;
0000c1   7621     clrr    0x21             	CLRR	r0x104D
                                           ;	.line	3328; "123.c"	LV_Dig5_SG1_8 = 0;
0000c2   7622     clrr    0x22             	CLRR	r0x104E
                                           ;	.line	3329; "123.c"	LV_Dig6_SG1_8 = 0;
0000c3   7623     clrr    0x23             	CLRR	r0x104F
                                           ;	.line	3330; "123.c"	LV_Dig7_SG1_8 = 0;
0000c4   7624     clrr    0x24             	CLRR	r0x1050
                                           ;	.line	3331; "123.c"	LV_Dig8_SG1_8 = 0;
0000c5   7625     clrr    0x25             	CLRR	r0x1051
                                           ;	.line	3332; "123.c"	LV_Dig9_SG1_8 = 0;
0000c6   7626     clrr    0x26             	CLRR	r0x1052
                                           ;	.line	3333; "123.c"	LV_Dig10_SG1_8 = 0;
0000c7   7627     clrr    0x27             	CLRR	r0x1053
                                           ;	.line	3334; "123.c"	LV_Dig11_SG1_8 = 0;
0000c8   7628     clrr    0x28             	CLRR	r0x1054
                                           ;	.line	3335; "123.c"	LV_Dig12_SG1_8 = 0;
0000c9   7629     clrr    0x29             	CLRR	r0x1055
                                           ;	.line	3336; "123.c"	LV_Dig13_SG1_8 = 0;
0000ca   762a     clrr    0x2a             	CLRR	r0x1056
                                           ;	.line	3341; "123.c"	if(GV_Mode==0)
0000cb   3c00     movai   0                	MOVAI	0x00
0000cc   5c52     orar    0x52             	ORAR	_GV_Mode
0000cd   e587     jbset   0x187, 0x2       	JBSET	PFLAG,2
0000ce   a1df     goto    0x1df            	GOTO	_01260_DS_
                                           ;	.line	3343; "123.c"	if(BF_RunAlarmOnOff)//0 = Run alarm off; 1 = Run alarm on
0000cf   ec46     jbset   0x46, 0x6        	JBSET	_UserFlag1,6
0000d0   a112     goto    0x112            	GOTO	_01201_DS_
                                           ;	.line	3346; "123.c"	LV_Dig8_SG1_8 = C_NumberTable[GV_RunAlarmClockMinSingleDig]; //Dig8 AlarmClockMinSingle Digit  	   	   	   	   	
0000d1   5875     movar   0x75             	MOVAR	_GV_RunAlarmClockMinSingleDig
0000d2   3f2e     addai   0x2e             	ADDAI	(_C_NumberTable + 0)
0000d3   562b     movra   0x2b             	MOVRA	r0x1057
0000d4   3c00     movai   0                	MOVAI	high (_C_NumberTable + 0)
0000d5   f187     jbclr   0x187, 0         	JBCLR	PFLAG,0
0000d6   3f01     addai   0x1              	ADDAI	0x01
0000d7   562c     movra   0x2c             	MOVRA	r0x1058
0000d8   582b     movar   0x2b             	MOVAR	r0x1057
0000d9   5784     movra   0x184            	MOVRA	FSR
0000da   df87     bclr    0x187, 0x7       	BCLR	PFLAG,7
0000db   f02c     jbclr   0x2c, 0          	JBCLR	r0x1058,0
0000dc   cf87     bset    0x187, 0x7       	BSET	PFLAG,7
0000dd   5980     movar   0x180            	MOVAR	INDF
0000de   5625     movra   0x25             	MOVRA	r0x1051
                                           ;	.line	3347; "123.c"	LV_Dig7_SG1_8 = C_NumberTable[GV_RunAlarmClockMinTenDig];    //Dig7 AlarmClockMinTen Digit 	
0000df   5876     movar   0x76             	MOVAR	_GV_RunAlarmClockMinTenDig
0000e0   3f2e     addai   0x2e             	ADDAI	(_C_NumberTable + 0)
0000e1   562b     movra   0x2b             	MOVRA	r0x1057
0000e2   3c00     movai   0                	MOVAI	high (_C_NumberTable + 0)
0000e3   f187     jbclr   0x187, 0         	JBCLR	PFLAG,0
0000e4   3f01     addai   0x1              	ADDAI	0x01
0000e5   562c     movra   0x2c             	MOVRA	r0x1058
0000e6   582b     movar   0x2b             	MOVAR	r0x1057
0000e7   5784     movra   0x184            	MOVRA	FSR
0000e8   df87     bclr    0x187, 0x7       	BCLR	PFLAG,7
0000e9   f02c     jbclr   0x2c, 0          	JBCLR	r0x1058,0
0000ea   cf87     bset    0x187, 0x7       	BSET	PFLAG,7
0000eb   5980     movar   0x180            	MOVAR	INDF
0000ec   5624     movra   0x24             	MOVRA	r0x1050
                                           ;	.line	3348; "123.c"	LV_Dig7_SG1_8 |= 0x80;//1000 0000;//On Dig7/H7 alarm  icons	
0000ed   ce24     bset    0x24, 0x7        	BSET	r0x1050,7
                                           ;	.line	3350; "123.c"	LV_Dig6_SG1_8 = C_NumberTable[GV_RunAlarmClockHrSingleDig];  //Dig6 AlarmClockHrSingle Digit
0000ee   5873     movar   0x73             	MOVAR	_GV_RunAlarmClockHrSingleDig
0000ef   3f2e     addai   0x2e             	ADDAI	(_C_NumberTable + 0)
0000f0   562b     movra   0x2b             	MOVRA	r0x1057
0000f1   3c00     movai   0                	MOVAI	high (_C_NumberTable + 0)
0000f2   f187     jbclr   0x187, 0         	JBCLR	PFLAG,0
0000f3   3f01     addai   0x1              	ADDAI	0x01
0000f4   562c     movra   0x2c             	MOVRA	r0x1058
0000f5   582b     movar   0x2b             	MOVAR	r0x1057
0000f6   5784     movra   0x184            	MOVRA	FSR
0000f7   df87     bclr    0x187, 0x7       	BCLR	PFLAG,7
0000f8   f02c     jbclr   0x2c, 0          	JBCLR	r0x1058,0
0000f9   cf87     bset    0x187, 0x7       	BSET	PFLAG,7
0000fa   5980     movar   0x180            	MOVAR	INDF
0000fb   5623     movra   0x23             	MOVRA	r0x104F
                                           ;	.line	3351; "123.c"	LV_Dig5_SG1_8 = C_NumberTable[GV_RunAlarmClockHrTenDig];     //Dig5 AlarmClockHrTen Digit  	
0000fc   5874     movar   0x74             	MOVAR	_GV_RunAlarmClockHrTenDig
0000fd   3f2e     addai   0x2e             	ADDAI	(_C_NumberTable + 0)
0000fe   562b     movra   0x2b             	MOVRA	r0x1057
0000ff   3c00     movai   0                	MOVAI	high (_C_NumberTable + 0)
000100   f187     jbclr   0x187, 0         	JBCLR	PFLAG,0
000101   3f01     addai   0x1              	ADDAI	0x01
000102   562c     movra   0x2c             	MOVRA	r0x1058
000103   582b     movar   0x2b             	MOVAR	r0x1057
000104   5784     movra   0x184            	MOVRA	FSR
000105   df87     bclr    0x187, 0x7       	BCLR	PFLAG,7
000106   f02c     jbclr   0x2c, 0          	JBCLR	r0x1058,0
000107   cf87     bset    0x187, 0x7       	BSET	PFLAG,7
000108   5980     movar   0x180            	MOVAR	INDF
000109   5622     movra   0x22             	MOVRA	r0x104E
                                           ;	.line	3352; "123.c"	if(BF_RunAlarmAM_PM)//0=AM1=PM
00010a   e646     jbset   0x46, 0x3        	JBSET	_UserFlag1,3
00010b   a10f     goto    0x10f            	GOTO	_01198_DS_
                                           ;	.line	3354; "123.c"	LV_Dig6_SG1_8 |= 0x80;//1000 0000;//On Dig6/H6 Alarm clock PM  icons
00010c   ce23     bset    0x23, 0x7        	BSET	r0x104F,7
                                           ;	.line	3355; "123.c"	BF_RunRealTimeClockAM_PM = 1;
00010d   c645     bset    0x45, 0x3        	BSET	_UserFlag,3
00010e   a152     goto    0x152            	GOTO	_01202_DS_
                                           _01198_DS_
                                           ;	.line	3359; "123.c"	LV_Dig5_SG1_8 |= 0x80;//1000 0000;//On Dig5/H5 Alarm clock AM  icons
00010f   ce22     bset    0x22, 0x7        	BSET	r0x104E,7
                                           ;	.line	3360; "123.c"	BF_RunRealTimeClockAM_PM = 0;  	   	
000110   d645     bclr    0x45, 0x3        	BCLR	_UserFlag,3
000111   a152     goto    0x152            	GOTO	_01202_DS_
                                           _01201_DS_
                                           ;	.line	3366; "123.c"	Sub_Read1302(C_DS1302_Year);//C_DS1302_Year
000112   3c8c     movai   0x8c             	MOVAI	0x8c
000113   8b9b     call    0xb9b            	CALL	_Sub_Read1302
                                           ;	.line	3367; "123.c"	GV_RunYearSingleDig = GV_GetByteFromDs1302 & 0x0F;
000114   3c0f     movai   0xf              	MOVAI	0x0f
000115   7857     andar   0x57             	ANDAR	_GV_GetByteFromDs1302
000116   565c     movra   0x5c             	MOVRA	_GV_RunYearSingleDig
                                           ;	.line	3368; "123.c"	GV_RunYearTenDig = GV_GetByteFromDs1302 >> 4;
000117   4457     swapar  0x57             	SWAPAR	_GV_GetByteFromDs1302
000118   3e0f     andai   0xf              	ANDAI	0x0f
000119   565d     movra   0x5d             	MOVRA	_GV_RunYearTenDig
                                           ;	.line	3369; "123.c"	LV_Dig8_SG1_8 = C_NumberTable[GV_RunYearSingleDig];  //Dig8 Year Single Digit  	   	   	   	   	
00011a   585c     movar   0x5c             	MOVAR	_GV_RunYearSingleDig
00011b   3f2e     addai   0x2e             	ADDAI	(_C_NumberTable + 0)
00011c   562b     movra   0x2b             	MOVRA	r0x1057
00011d   3c00     movai   0                	MOVAI	high (_C_NumberTable + 0)
00011e   f187     jbclr   0x187, 0         	JBCLR	PFLAG,0
00011f   3f01     addai   0x1              	ADDAI	0x01
000120   562c     movra   0x2c             	MOVRA	r0x1058
000121   582b     movar   0x2b             	MOVAR	r0x1057
000122   5784     movra   0x184            	MOVRA	FSR
000123   df87     bclr    0x187, 0x7       	BCLR	PFLAG,7
000124   f02c     jbclr   0x2c, 0          	JBCLR	r0x1058,0
000125   cf87     bset    0x187, 0x7       	BSET	PFLAG,7
000126   5980     movar   0x180            	MOVAR	INDF
000127   5625     movra   0x25             	MOVRA	r0x1051
                                           ;	.line	3370; "123.c"	LV_Dig7_SG1_8 = C_NumberTable[GV_RunYearTenDig];     //Dig7 Year Ten Digit
000128   585d     movar   0x5d             	MOVAR	_GV_RunYearTenDig
000129   3f2e     addai   0x2e             	ADDAI	(_C_NumberTable + 0)
00012a   562b     movra   0x2b             	MOVRA	r0x1057
00012b   3c00     movai   0                	MOVAI	high (_C_NumberTable + 0)
00012c   f187     jbclr   0x187, 0         	JBCLR	PFLAG,0
00012d   3f01     addai   0x1              	ADDAI	0x01
00012e   562c     movra   0x2c             	MOVRA	r0x1058
00012f   582b     movar   0x2b             	MOVAR	r0x1057
000130   5784     movra   0x184            	MOVRA	FSR
000131   df87     bclr    0x187, 0x7       	BCLR	PFLAG,7
000132   f02c     jbclr   0x2c, 0          	JBCLR	r0x1058,0
000133   cf87     bset    0x187, 0x7       	BSET	PFLAG,7
000134   5980     movar   0x180            	MOVAR	INDF
000135   5624     movra   0x24             	MOVRA	r0x1050
                                           ;	.line	3371; "123.c"	LV_Dig6_SG1_8 = C_NumberTable[GV_RunYearHundredsDig];//Dig6 Year Hundreds Digit
000136   585e     movar   0x5e             	MOVAR	_GV_RunYearHundredsDig
000137   3f2e     addai   0x2e             	ADDAI	(_C_NumberTable + 0)
000138   562b     movra   0x2b             	MOVRA	r0x1057
000139   3c00     movai   0                	MOVAI	high (_C_NumberTable + 0)
00013a   f187     jbclr   0x187, 0         	JBCLR	PFLAG,0
00013b   3f01     addai   0x1              	ADDAI	0x01
00013c   562c     movra   0x2c             	MOVRA	r0x1058
00013d   582b     movar   0x2b             	MOVAR	r0x1057
00013e   5784     movra   0x184            	MOVRA	FSR
00013f   df87     bclr    0x187, 0x7       	BCLR	PFLAG,7
000140   f02c     jbclr   0x2c, 0          	JBCLR	r0x1058,0
000141   cf87     bset    0x187, 0x7       	BSET	PFLAG,7
000142   5980     movar   0x180            	MOVAR	INDF
000143   5623     movra   0x23             	MOVRA	r0x104F
                                           ;	.line	3372; "123.c"	LV_Dig5_SG1_8 = C_NumberTable[GV_RunYearthousandDig];//Dig5 Year thousand Digit
000144   587e     movar   0x7e             	MOVAR	_GV_RunYearthousandDig
000145   3f2e     addai   0x2e             	ADDAI	(_C_NumberTable + 0)
000146   562b     movra   0x2b             	MOVRA	r0x1057
000147   3c00     movai   0                	MOVAI	high (_C_NumberTable + 0)
000148   f187     jbclr   0x187, 0         	JBCLR	PFLAG,0
000149   3f01     addai   0x1              	ADDAI	0x01
00014a   562c     movra   0x2c             	MOVRA	r0x1058
00014b   582b     movar   0x2b             	MOVAR	r0x1057
00014c   5784     movra   0x184            	MOVRA	FSR
00014d   df87     bclr    0x187, 0x7       	BCLR	PFLAG,7
00014e   f02c     jbclr   0x2c, 0          	JBCLR	r0x1058,0
00014f   cf87     bset    0x187, 0x7       	BSET	PFLAG,7
000150   5980     movar   0x180            	MOVAR	INDF
000151   5622     movra   0x22             	MOVRA	r0x104E
                                           _01202_DS_
                                           ;	.line	3376; "123.c"	Sub_Read1302(C_DS1302_Month);//C_DS1302_Month
000152   3c88     movai   0x88             	MOVAI	0x88
000153   8b9b     call    0xb9b            	CALL	_Sub_Read1302
                                           ;	.line	3377; "123.c"	GV_RunMonthSingleDig = GV_GetByteFromDs1302 & 0x0F;
000154   3c0f     movai   0xf              	MOVAI	0x0f
000155   7857     andar   0x57             	ANDAR	_GV_GetByteFromDs1302
000156   5661     movra   0x61             	MOVRA	_GV_RunMonthSingleDig
                                           ;	.line	3378; "123.c"	GV_RunMonthTenDig = GV_GetByteFromDs1302 >> 4;
000157   4457     swapar  0x57             	SWAPAR	_GV_GetByteFromDs1302
000158   3e0f     andai   0xf              	ANDAI	0x0f
000159   5662     movra   0x62             	MOVRA	_GV_RunMonthTenDig
                                           ;	.line	3379; "123.c"	LV_Dig2_SG1_8 = C_NumberTable[GV_RunMonthSingleDig];//Dig2 	month Single Digit 	   	   	
00015a   5861     movar   0x61             	MOVAR	_GV_RunMonthSingleDig
00015b   3f2e     addai   0x2e             	ADDAI	(_C_NumberTable + 0)
00015c   562b     movra   0x2b             	MOVRA	r0x1057
00015d   3c00     movai   0                	MOVAI	high (_C_NumberTable + 0)
00015e   f187     jbclr   0x187, 0         	JBCLR	PFLAG,0
00015f   3f01     addai   0x1              	ADDAI	0x01
000160   562c     movra   0x2c             	MOVRA	r0x1058
000161   582b     movar   0x2b             	MOVAR	r0x1057
000162   5784     movra   0x184            	MOVRA	FSR
000163   df87     bclr    0x187, 0x7       	BCLR	PFLAG,7
000164   f02c     jbclr   0x2c, 0          	JBCLR	r0x1058,0
000165   cf87     bset    0x187, 0x7       	BSET	PFLAG,7
000166   5980     movar   0x180            	MOVAR	INDF
000167   561f     movra   0x1f             	MOVRA	r0x104B
                                           ;	.line	3380; "123.c"	LV_Dig1_SG1_8 = C_NumberTable[GV_RunMonthTenDig];   //Dig1 	month Ten Digit 
000168   5862     movar   0x62             	MOVAR	_GV_RunMonthTenDig
000169   3f2e     addai   0x2e             	ADDAI	(_C_NumberTable + 0)
00016a   562b     movra   0x2b             	MOVRA	r0x1057
00016b   3c00     movai   0                	MOVAI	high (_C_NumberTable + 0)
00016c   f187     jbclr   0x187, 0         	JBCLR	PFLAG,0
00016d   3f01     addai   0x1              	ADDAI	0x01
00016e   562c     movra   0x2c             	MOVRA	r0x1058
00016f   582b     movar   0x2b             	MOVAR	r0x1057
000170   5784     movra   0x184            	MOVRA	FSR
000171   df87     bclr    0x187, 0x7       	BCLR	PFLAG,7
000172   f02c     jbclr   0x2c, 0          	JBCLR	r0x1058,0
000173   cf87     bset    0x187, 0x7       	BSET	PFLAG,7
000174   5980     movar   0x180            	MOVAR	INDF
000175   561e     movra   0x1e             	MOVRA	r0x104A
                                           ;	.line	3381; "123.c"	if(BF_RunAlarmOnOff)//0 = Run alarm off; 1 = Run alarm on
000176   ec46     jbset   0x46, 0x6        	JBSET	_UserFlag1,6
000177   a17a     goto    0x17a            	GOTO	_01204_DS_
                                           ;	.line	3383; "123.c"	LV_Dig2_SG1_8 |= 0x80;//1000 0000;//On Dig2/H2 (  :  )
000178   ce1f     bset    0x1f, 0x7        	BSET	r0x104B,7
                                           ;	.line	3384; "123.c"	LV_Dig1_SG1_8 |= 0x80;//1000 0000;//On Dig1/H1 (  :  )
000179   ce1e     bset    0x1e, 0x7        	BSET	r0x104A,7
                                           _01204_DS_
                                           ;	.line	3390; "123.c"	Sub_Read1302(C_DS1302_Day);//C_DS1302_Day
00017a   3c86     movai   0x86             	MOVAI	0x86
00017b   8b9b     call    0xb9b            	CALL	_Sub_Read1302
                                           ;	.line	3391; "123.c"	GV_RunDaySingleDig = GV_GetByteFromDs1302 & 0x0F;
00017c   3c0f     movai   0xf              	MOVAI	0x0f
00017d   7857     andar   0x57             	ANDAR	_GV_GetByteFromDs1302
00017e   5665     movra   0x65             	MOVRA	_GV_RunDaySingleDig
                                           ;	.line	3392; "123.c"	GV_RunDayTenDig = GV_GetByteFromDs1302 >> 4;
00017f   4457     swapar  0x57             	SWAPAR	_GV_GetByteFromDs1302
000180   3e0f     andai   0xf              	ANDAI	0x0f
000181   5666     movra   0x66             	MOVRA	_GV_RunDayTenDig
                                           ;	.line	3393; "123.c"	LV_Dig4_SG1_8 = C_NumberTable[GV_RunDaySingleDig];//Dig4 Day Single Digit  	   	   	
000182   5865     movar   0x65             	MOVAR	_GV_RunDaySingleDig
000183   3f2e     addai   0x2e             	ADDAI	(_C_NumberTable + 0)
000184   562b     movra   0x2b             	MOVRA	r0x1057
000185   3c00     movai   0                	MOVAI	high (_C_NumberTable + 0)
000186   f187     jbclr   0x187, 0         	JBCLR	PFLAG,0
000187   3f01     addai   0x1              	ADDAI	0x01
000188   562c     movra   0x2c             	MOVRA	r0x1058
000189   582b     movar   0x2b             	MOVAR	r0x1057
00018a   5784     movra   0x184            	MOVRA	FSR
00018b   df87     bclr    0x187, 0x7       	BCLR	PFLAG,7
00018c   f02c     jbclr   0x2c, 0          	JBCLR	r0x1058,0
00018d   cf87     bset    0x187, 0x7       	BSET	PFLAG,7
00018e   5980     movar   0x180            	MOVAR	INDF
00018f   5621     movra   0x21             	MOVRA	r0x104D
                                           ;	.line	3394; "123.c"	LV_Dig3_SG1_8 = C_NumberTable[GV_RunDayTenDig];   //Dig3 Day Ten Digit 
000190   5866     movar   0x66             	MOVAR	_GV_RunDayTenDig
000191   3f2e     addai   0x2e             	ADDAI	(_C_NumberTable + 0)
000192   562b     movra   0x2b             	MOVRA	r0x1057
000193   3c00     movai   0                	MOVAI	high (_C_NumberTable + 0)
000194   f187     jbclr   0x187, 0         	JBCLR	PFLAG,0
000195   3f01     addai   0x1              	ADDAI	0x01
000196   562c     movra   0x2c             	MOVRA	r0x1058
000197   582b     movar   0x2b             	MOVAR	r0x1057
000198   5784     movra   0x184            	MOVRA	FSR
000199   df87     bclr    0x187, 0x7       	BCLR	PFLAG,7
00019a   f02c     jbclr   0x2c, 0          	JBCLR	r0x1058,0
00019b   cf87     bset    0x187, 0x7       	BSET	PFLAG,7
00019c   5980     movar   0x180            	MOVAR	INDF
00019d   5620     movra   0x20             	MOVRA	r0x104C
                                           ;	.line	3399; "123.c"	Sub_Read1302(C_DS1302_Hour);//C_DS1302_Hour
00019e   3c84     movai   0x84             	MOVAI	0x84
00019f   8b9b     call    0xb9b            	CALL	_Sub_Read1302
                                           ;	.line	3400; "123.c"	GV_RunRealTimeClockHrSingleDig = GV_GetByteFromDs1302 & 0x0F;
0001a0   3c0f     movai   0xf              	MOVAI	0x0f
0001a1   7857     andar   0x57             	ANDAR	_GV_GetByteFromDs1302
0001a2   566b     movra   0x6b             	MOVRA	_GV_RunRealTimeClockHrSingleDig
                                           ;	.line	3403; "123.c"	GV_RunRealTimeClockHrTenDig = LV_TempB & 0x01; 
0001a3   766c     clrr    0x6c             	CLRR	_GV_RunRealTimeClockHrTenDig
                                           ;	.line	3405; "123.c"	LV_Dig10_SG1_8 = C_NumberTable[GV_RunRealTimeClockHrSingleDig];//Dig10 RealTimeClockHr Single Digit    	   	   	
0001a4   586b     movar   0x6b             	MOVAR	_GV_RunRealTimeClockHrSingleDig
0001a5   3f2e     addai   0x2e             	ADDAI	(_C_NumberTable + 0)
0001a6   562b     movra   0x2b             	MOVRA	r0x1057
0001a7   3c00     movai   0                	MOVAI	high (_C_NumberTable + 0)
0001a8   f187     jbclr   0x187, 0         	JBCLR	PFLAG,0
0001a9   3f01     addai   0x1              	ADDAI	0x01
0001aa   562c     movra   0x2c             	MOVRA	r0x1058
0001ab   582b     movar   0x2b             	MOVAR	r0x1057
0001ac   5784     movra   0x184            	MOVRA	FSR
0001ad   df87     bclr    0x187, 0x7       	BCLR	PFLAG,7
0001ae   f02c     jbclr   0x2c, 0          	JBCLR	r0x1058,0
0001af   cf87     bset    0x187, 0x7       	BSET	PFLAG,7
0001b0   5980     movar   0x180            	MOVAR	INDF
0001b1   5627     movra   0x27             	MOVRA	r0x1053
                                           ;	.line	3406; "123.c"	LV_Dig9_SG1_8 = C_NumberTable[GV_RunRealTimeClockHrTenDig];    //Dig9 RealTimeClockHr Ten Digit
0001b2   582e     movar   0x2e             	MOVAR	(_C_NumberTable + 0)
0001b3   5626     movra   0x26             	MOVRA	r0x1052
                                           ;	.line	3414; "123.c"	LV_Dig13_SG1_8 |= 0x0E;//0000 1110;//Dig13/B13/C13/D13 	AM
0001b4   3c8f     movai   0x8f             	MOVAI	0x8f
0001b5   562a     movra   0x2a             	MOVRA	r0x1056
                                           ;	.line	3417; "123.c"	Sub_Read1302(C_DS1302_Minute);//C_DS1302_Minute
0001b6   3c82     movai   0x82             	MOVAI	0x82
0001b7   8b9b     call    0xb9b            	CALL	_Sub_Read1302
                                           ;	.line	3418; "123.c"	GV_RunRealTimeClockMinSingleDig = GV_GetByteFromDs1302 & 0x0F;
0001b8   3c0f     movai   0xf              	MOVAI	0x0f
0001b9   7857     andar   0x57             	ANDAR	_GV_GetByteFromDs1302
0001ba   566d     movra   0x6d             	MOVRA	_GV_RunRealTimeClockMinSingleDig
                                           ;	.line	3419; "123.c"	GV_RunRealTimeClockMinTenDig = GV_GetByteFromDs1302 >> 4;
0001bb   4457     swapar  0x57             	SWAPAR	_GV_GetByteFromDs1302
0001bc   3e0f     andai   0xf              	ANDAI	0x0f
0001bd   566e     movra   0x6e             	MOVRA	_GV_RunRealTimeClockMinTenDig
                                           ;	.line	3420; "123.c"	LV_Dig12_SG1_8 = C_NumberTable[GV_RunRealTimeClockMinSingleDig];//Dig12 RealTimeClockMin Single Digit  	   	   	
0001be   586d     movar   0x6d             	MOVAR	_GV_RunRealTimeClockMinSingleDig
0001bf   3f2e     addai   0x2e             	ADDAI	(_C_NumberTable + 0)
0001c0   562b     movra   0x2b             	MOVRA	r0x1057
0001c1   3c00     movai   0                	MOVAI	high (_C_NumberTable + 0)
0001c2   f187     jbclr   0x187, 0         	JBCLR	PFLAG,0
0001c3   3f01     addai   0x1              	ADDAI	0x01
0001c4   562c     movra   0x2c             	MOVRA	r0x1058
0001c5   582b     movar   0x2b             	MOVAR	r0x1057
0001c6   5784     movra   0x184            	MOVRA	FSR
0001c7   df87     bclr    0x187, 0x7       	BCLR	PFLAG,7
0001c8   f02c     jbclr   0x2c, 0          	JBCLR	r0x1058,0
0001c9   cf87     bset    0x187, 0x7       	BSET	PFLAG,7
0001ca   5980     movar   0x180            	MOVAR	INDF
0001cb   5629     movra   0x29             	MOVRA	r0x1055
                                           ;	.line	3421; "123.c"	LV_Dig11_SG1_8 = C_NumberTable[GV_RunRealTimeClockMinTenDig];   //Dig11 RealTimeClockMin Ten Digit 
0001cc   586e     movar   0x6e             	MOVAR	_GV_RunRealTimeClockMinTenDig
0001cd   3f2e     addai   0x2e             	ADDAI	(_C_NumberTable + 0)
0001ce   562b     movra   0x2b             	MOVRA	r0x1057
0001cf   3c00     movai   0                	MOVAI	high (_C_NumberTable + 0)
0001d0   f187     jbclr   0x187, 0         	JBCLR	PFLAG,0
0001d1   3f01     addai   0x1              	ADDAI	0x01
0001d2   562c     movra   0x2c             	MOVRA	r0x1058
0001d3   582b     movar   0x2b             	MOVAR	r0x1057
0001d4   5784     movra   0x184            	MOVRA	FSR
0001d5   df87     bclr    0x187, 0x7       	BCLR	PFLAG,7
0001d6   f02c     jbclr   0x2c, 0          	JBCLR	r0x1058,0
0001d7   cf87     bset    0x187, 0x7       	BSET	PFLAG,7
0001d8   5980     movar   0x180            	MOVAR	INDF
0001d9   5628     movra   0x28             	MOVRA	r0x1054
                                           ;	.line	3424; "123.c"	if(BF_Clock500ms)//On H3,H4
0001da   e245     jbset   0x45, 0x1        	JBSET	_UserFlag,1
0001db   a3b8     goto    0x3b8            	GOTO	_01261_DS_
                                           ;	.line	3426; "123.c"	LV_Dig3_SG1_8 |= 0x80;//1000 0000;//Dig3/H3
0001dc   ce20     bset    0x20, 0x7        	BSET	r0x104C,7
                                           ;	.line	3427; "123.c"	LV_Dig4_SG1_8 |= 0x80;//1000 0000;//Dig4/H4	   	   	   	   	
0001dd   ce21     bset    0x21, 0x7        	BSET	r0x104D,7
0001de   a3b8     goto    0x3b8            	GOTO	_01261_DS_
                                           _01260_DS_
                                           ;	.line	3430; "123.c"	else if(GV_Mode==1)
0001df   5852     movar   0x52             	MOVAR	_GV_Mode
0001e0   3901     xorai   0x1              	XORAI	0x01
0001e1   e587     jbset   0x187, 0x2       	JBSET	PFLAG,2
0001e2   a2cf     goto    0x2cf            	GOTO	_01257_DS_
                                           ;	.line	3432; "123.c"	LV_Dig8_SG1_8 = C_NumberTable[GV_SetYearSingleDig];  //Dig8 Year Single Digit  	   	   	   	   	
0001e3   5859     movar   0x59             	MOVAR	_GV_SetYearSingleDig
0001e4   3f2e     addai   0x2e             	ADDAI	(_C_NumberTable + 0)
0001e5   562b     movra   0x2b             	MOVRA	r0x1057
0001e6   3c00     movai   0                	MOVAI	high (_C_NumberTable + 0)
0001e7   f187     jbclr   0x187, 0         	JBCLR	PFLAG,0
0001e8   3f01     addai   0x1              	ADDAI	0x01
0001e9   562c     movra   0x2c             	MOVRA	r0x1058
0001ea   582b     movar   0x2b             	MOVAR	r0x1057
0001eb   5784     movra   0x184            	MOVRA	FSR
0001ec   df87     bclr    0x187, 0x7       	BCLR	PFLAG,7
0001ed   f02c     jbclr   0x2c, 0          	JBCLR	r0x1058,0
0001ee   cf87     bset    0x187, 0x7       	BSET	PFLAG,7
0001ef   5980     movar   0x180            	MOVAR	INDF
0001f0   5625     movra   0x25             	MOVRA	r0x1051
                                           ;	.line	3433; "123.c"	LV_Dig7_SG1_8 = C_NumberTable[GV_SetYearTenDig];     //Dig7 Year Ten Digit
0001f1   585a     movar   0x5a             	MOVAR	_GV_SetYearTenDig
0001f2   3f2e     addai   0x2e             	ADDAI	(_C_NumberTable + 0)
0001f3   562b     movra   0x2b             	MOVRA	r0x1057
0001f4   3c00     movai   0                	MOVAI	high (_C_NumberTable + 0)
0001f5   f187     jbclr   0x187, 0         	JBCLR	PFLAG,0
0001f6   3f01     addai   0x1              	ADDAI	0x01
0001f7   562c     movra   0x2c             	MOVRA	r0x1058
0001f8   582b     movar   0x2b             	MOVAR	r0x1057
0001f9   5784     movra   0x184            	MOVRA	FSR
0001fa   df87     bclr    0x187, 0x7       	BCLR	PFLAG,7
0001fb   f02c     jbclr   0x2c, 0          	JBCLR	r0x1058,0
0001fc   cf87     bset    0x187, 0x7       	BSET	PFLAG,7
0001fd   5980     movar   0x180            	MOVAR	INDF
0001fe   5624     movra   0x24             	MOVRA	r0x1050
                                           ;	.line	3434; "123.c"	LV_Dig6_SG1_8 = C_NumberTable[GV_SetYearHundredsDig];//Dig6 Year Hundreds Digit
0001ff   585b     movar   0x5b             	MOVAR	_GV_SetYearHundredsDig
000200   3f2e     addai   0x2e             	ADDAI	(_C_NumberTable + 0)
000201   562b     movra   0x2b             	MOVRA	r0x1057
000202   3c00     movai   0                	MOVAI	high (_C_NumberTable + 0)
000203   f187     jbclr   0x187, 0         	JBCLR	PFLAG,0
000204   3f01     addai   0x1              	ADDAI	0x01
000205   562c     movra   0x2c             	MOVRA	r0x1058
000206   582b     movar   0x2b             	MOVAR	r0x1057
000207   5784     movra   0x184            	MOVRA	FSR
000208   df87     bclr    0x187, 0x7       	BCLR	PFLAG,7
000209   f02c     jbclr   0x2c, 0          	JBCLR	r0x1058,0
00020a   cf87     bset    0x187, 0x7       	BSET	PFLAG,7
00020b   5980     movar   0x180            	MOVAR	INDF
00020c   5623     movra   0x23             	MOVRA	r0x104F
                                           ;	.line	3435; "123.c"	LV_Dig5_SG1_8 = C_NumberTable[GV_SetYearthousandDig];//Dig5 Year thousand Digit
00020d   587d     movar   0x7d             	MOVAR	_GV_SetYearthousandDig
00020e   3f2e     addai   0x2e             	ADDAI	(_C_NumberTable + 0)
00020f   562b     movra   0x2b             	MOVRA	r0x1057
000210   3c00     movai   0                	MOVAI	high (_C_NumberTable + 0)
000211   f187     jbclr   0x187, 0         	JBCLR	PFLAG,0
000212   3f01     addai   0x1              	ADDAI	0x01
000213   562c     movra   0x2c             	MOVRA	r0x1058
000214   582b     movar   0x2b             	MOVAR	r0x1057
000215   5784     movra   0x184            	MOVRA	FSR
000216   df87     bclr    0x187, 0x7       	BCLR	PFLAG,7
000217   f02c     jbclr   0x2c, 0          	JBCLR	r0x1058,0
000218   cf87     bset    0x187, 0x7       	BSET	PFLAG,7
000219   5980     movar   0x180            	MOVAR	INDF
00021a   5622     movra   0x22             	MOVRA	r0x104E
                                           ;	.line	3439; "123.c"	LV_Dig2_SG1_8 = C_NumberTable[GV_SetMonthSingleDig];//Dig2 	month Single Digit 	   	   	
00021b   585f     movar   0x5f             	MOVAR	_GV_SetMonthSingleDig
00021c   3f2e     addai   0x2e             	ADDAI	(_C_NumberTable + 0)
00021d   562b     movra   0x2b             	MOVRA	r0x1057
00021e   3c00     movai   0                	MOVAI	high (_C_NumberTable + 0)
00021f   f187     jbclr   0x187, 0         	JBCLR	PFLAG,0
000220   3f01     addai   0x1              	ADDAI	0x01
000221   562c     movra   0x2c             	MOVRA	r0x1058
000222   582b     movar   0x2b             	MOVAR	r0x1057
000223   5784     movra   0x184            	MOVRA	FSR
000224   df87     bclr    0x187, 0x7       	BCLR	PFLAG,7
000225   f02c     jbclr   0x2c, 0          	JBCLR	r0x1058,0
000226   cf87     bset    0x187, 0x7       	BSET	PFLAG,7
000227   5980     movar   0x180            	MOVAR	INDF
000228   561f     movra   0x1f             	MOVRA	r0x104B
                                           ;	.line	3440; "123.c"	LV_Dig1_SG1_8 = C_NumberTable[GV_SetMonthTenDig];   //Dig1 	month Ten Digit 
000229   5860     movar   0x60             	MOVAR	_GV_SetMonthTenDig
00022a   3f2e     addai   0x2e             	ADDAI	(_C_NumberTable + 0)
00022b   562b     movra   0x2b             	MOVRA	r0x1057
00022c   3c00     movai   0                	MOVAI	high (_C_NumberTable + 0)
00022d   f187     jbclr   0x187, 0         	JBCLR	PFLAG,0
00022e   3f01     addai   0x1              	ADDAI	0x01
00022f   562c     movra   0x2c             	MOVRA	r0x1058
000230   582b     movar   0x2b             	MOVAR	r0x1057
000231   5784     movra   0x184            	MOVRA	FSR
000232   df87     bclr    0x187, 0x7       	BCLR	PFLAG,7
000233   f02c     jbclr   0x2c, 0          	JBCLR	r0x1058,0
000234   cf87     bset    0x187, 0x7       	BSET	PFLAG,7
000235   5980     movar   0x180            	MOVAR	INDF
000236   561e     movra   0x1e             	MOVRA	r0x104A
                                           ;	.line	3446; "123.c"	LV_Dig4_SG1_8 = C_NumberTable[GV_SetDaySingleDig];//Dig4 Day Single Digit  	   	   	
000237   5863     movar   0x63             	MOVAR	_GV_SetDaySingleDig
000238   3f2e     addai   0x2e             	ADDAI	(_C_NumberTable + 0)
000239   562b     movra   0x2b             	MOVRA	r0x1057
00023a   3c00     movai   0                	MOVAI	high (_C_NumberTable + 0)
00023b   f187     jbclr   0x187, 0         	JBCLR	PFLAG,0
00023c   3f01     addai   0x1              	ADDAI	0x01
00023d   562c     movra   0x2c             	MOVRA	r0x1058
00023e   582b     movar   0x2b             	MOVAR	r0x1057
00023f   5784     movra   0x184            	MOVRA	FSR
000240   df87     bclr    0x187, 0x7       	BCLR	PFLAG,7
000241   f02c     jbclr   0x2c, 0          	JBCLR	r0x1058,0
000242   cf87     bset    0x187, 0x7       	BSET	PFLAG,7
000243   5980     movar   0x180            	MOVAR	INDF
000244   5621     movra   0x21             	MOVRA	r0x104D
                                           ;	.line	3447; "123.c"	LV_Dig3_SG1_8 = C_NumberTable[GV_SetDayTenDig];   //Dig3 Day Ten Digit 
000245   5864     movar   0x64             	MOVAR	_GV_SetDayTenDig
000246   3f2e     addai   0x2e             	ADDAI	(_C_NumberTable + 0)
000247   562b     movra   0x2b             	MOVRA	r0x1057
000248   3c00     movai   0                	MOVAI	high (_C_NumberTable + 0)
000249   f187     jbclr   0x187, 0         	JBCLR	PFLAG,0
00024a   3f01     addai   0x1              	ADDAI	0x01
00024b   562c     movra   0x2c             	MOVRA	r0x1058
00024c   582b     movar   0x2b             	MOVAR	r0x1057
00024d   5784     movra   0x184            	MOVRA	FSR
00024e   df87     bclr    0x187, 0x7       	BCLR	PFLAG,7
00024f   f02c     jbclr   0x2c, 0          	JBCLR	r0x1058,0
000250   cf87     bset    0x187, 0x7       	BSET	PFLAG,7
000251   5980     movar   0x180            	MOVAR	INDF
000252   5620     movra   0x20             	MOVRA	r0x104C
                                           ;	.line	3452; "123.c"	LV_Dig10_SG1_8 = C_NumberTable[GV_SetRealTimeClockHrSingleDig];//Dig10 RealTimeClockHr Single Digit    	   	   	   	
000253   5867     movar   0x67             	MOVAR	_GV_SetRealTimeClockHrSingleDig
000254   3f2e     addai   0x2e             	ADDAI	(_C_NumberTable + 0)
000255   562b     movra   0x2b             	MOVRA	r0x1057
000256   3c00     movai   0                	MOVAI	high (_C_NumberTable + 0)
000257   f187     jbclr   0x187, 0         	JBCLR	PFLAG,0
000258   3f01     addai   0x1              	ADDAI	0x01
000259   562c     movra   0x2c             	MOVRA	r0x1058
00025a   582b     movar   0x2b             	MOVAR	r0x1057
00025b   5784     movra   0x184            	MOVRA	FSR
00025c   df87     bclr    0x187, 0x7       	BCLR	PFLAG,7
00025d   f02c     jbclr   0x2c, 0          	JBCLR	r0x1058,0
00025e   cf87     bset    0x187, 0x7       	BSET	PFLAG,7
00025f   5980     movar   0x180            	MOVAR	INDF
000260   5627     movra   0x27             	MOVRA	r0x1053
                                           ;	.line	3453; "123.c"	LV_Dig9_SG1_8 = C_NumberTable[GV_SetRealTimeClockHrTenDig];    //Dig9 RealTimeClockHr Ten Digit 
000261   5868     movar   0x68             	MOVAR	_GV_SetRealTimeClockHrTenDig
000262   3f2e     addai   0x2e             	ADDAI	(_C_NumberTable + 0)
000263   562b     movra   0x2b             	MOVRA	r0x1057
000264   3c00     movai   0                	MOVAI	high (_C_NumberTable + 0)
000265   f187     jbclr   0x187, 0         	JBCLR	PFLAG,0
000266   3f01     addai   0x1              	ADDAI	0x01
000267   562c     movra   0x2c             	MOVRA	r0x1058
000268   582b     movar   0x2b             	MOVAR	r0x1057
000269   5784     movra   0x184            	MOVRA	FSR
00026a   df87     bclr    0x187, 0x7       	BCLR	PFLAG,7
00026b   f02c     jbclr   0x2c, 0          	JBCLR	r0x1058,0
00026c   cf87     bset    0x187, 0x7       	BSET	PFLAG,7
00026d   5980     movar   0x180            	MOVAR	INDF
00026e   5626     movra   0x26             	MOVRA	r0x1052
                                           ;	.line	3454; "123.c"	if(BF_SetRealTimeClockAM_PM) 
00026f   e445     jbset   0x45, 0x2        	JBSET	_UserFlag,2
000270   a274     goto    0x274            	GOTO	_01211_DS_
                                           ;	.line	3456; "123.c"	LV_Dig13_SG1_8 |= 0x70;//0111 0000;//Dig13/E13/F13/G13 	PM
000271   3cf1     movai   0xf1             	MOVAI	0xf1
000272   562a     movra   0x2a             	MOVRA	r0x1056
000273   a276     goto    0x276            	GOTO	_01212_DS_
                                           _01211_DS_
                                           ;	.line	3460; "123.c"	LV_Dig13_SG1_8 |= 0x0E;//0000 1110;//Dig13/B13/C13/D13 	AM
000274   3c8f     movai   0x8f             	MOVAI	0x8f
000275   562a     movra   0x2a             	MOVRA	r0x1056
                                           _01212_DS_
                                           ;	.line	3464; "123.c"	LV_Dig12_SG1_8 = C_NumberTable[GV_SetRealTimeClockMinSingleDig];//Dig12 RealTimeClockMin Single Digit  	   	   	
000276   5869     movar   0x69             	MOVAR	_GV_SetRealTimeClockMinSingleDig
000277   3f2e     addai   0x2e             	ADDAI	(_C_NumberTable + 0)
000278   562b     movra   0x2b             	MOVRA	r0x1057
000279   3c00     movai   0                	MOVAI	high (_C_NumberTable + 0)
00027a   f187     jbclr   0x187, 0         	JBCLR	PFLAG,0
00027b   3f01     addai   0x1              	ADDAI	0x01
00027c   562c     movra   0x2c             	MOVRA	r0x1058
00027d   582b     movar   0x2b             	MOVAR	r0x1057
00027e   5784     movra   0x184            	MOVRA	FSR
00027f   df87     bclr    0x187, 0x7       	BCLR	PFLAG,7
000280   f02c     jbclr   0x2c, 0          	JBCLR	r0x1058,0
000281   cf87     bset    0x187, 0x7       	BSET	PFLAG,7
000282   5980     movar   0x180            	MOVAR	INDF
000283   5629     movra   0x29             	MOVRA	r0x1055
                                           ;	.line	3465; "123.c"	LV_Dig11_SG1_8 = C_NumberTable[GV_SetRealTimeClockMinTenDig];   //Dig11 RealTimeClockMin Ten Digit 	   	   	   	   	   	   	   	
000284   586a     movar   0x6a             	MOVAR	_GV_SetRealTimeClockMinTenDig
000285   3f2e     addai   0x2e             	ADDAI	(_C_NumberTable + 0)
000286   562b     movra   0x2b             	MOVRA	r0x1057
000287   3c00     movai   0                	MOVAI	high (_C_NumberTable + 0)
000288   f187     jbclr   0x187, 0         	JBCLR	PFLAG,0
000289   3f01     addai   0x1              	ADDAI	0x01
00028a   562c     movra   0x2c             	MOVRA	r0x1058
00028b   582b     movar   0x2b             	MOVAR	r0x1057
00028c   5784     movra   0x184            	MOVRA	FSR
00028d   df87     bclr    0x187, 0x7       	BCLR	PFLAG,7
00028e   f02c     jbclr   0x2c, 0          	JBCLR	r0x1058,0
00028f   cf87     bset    0x187, 0x7       	BSET	PFLAG,7
000290   5980     movar   0x180            	MOVAR	INDF
000291   5628     movra   0x28             	MOVRA	r0x1054
                                           ;	.line	3468; "123.c"	if((BF_Up_AlLongKeyPressesd == 0)&&(BF_DownLongKeyPressesd == 0))
000292   fa45     jbclr   0x45, 0x5        	JBCLR	_UserFlag,5
000293   a3b8     goto    0x3b8            	GOTO	_01261_DS_
000294   fe45     jbclr   0x45, 0x7        	JBCLR	_UserFlag,7
000295   a3b8     goto    0x3b8            	GOTO	_01261_DS_
                                           ;	.line	3470; "123.c"	if(BF_Clock500ms == 0)//Off Real Time Clock Digit
000296   f245     jbclr   0x45, 0x1        	JBCLR	_UserFlag,1
000297   a3b8     goto    0x3b8            	GOTO	_01261_DS_
                                           ;	.line	3472; "123.c"	if(GV_RealTimeClockSetStep==0) 	
000298   3c00     movai   0                	MOVAI	0x00
000299   5c53     orar    0x53             	ORAR	_GV_RealTimeClockSetStep
00029a   e587     jbset   0x187, 0x2       	JBSET	PFLAG,2
00029b   a2a7     goto    0x2a7            	GOTO	_01225_DS_
                                           ;	.line	3474; "123.c"	LV_Dig8_SG1_8 = C_NumberTable[11];  //Dig8 Year Single Digit No Display	   	   	   	   	   	   	   	   	
00029c   5839     movar   0x39             	MOVAR	(_C_NumberTable + 11)
00029d   562b     movra   0x2b             	MOVRA	r0x1057
00029e   582b     movar   0x2b             	MOVAR	r0x1057
00029f   5625     movra   0x25             	MOVRA	r0x1051
                                           ;	.line	3475; "123.c"	LV_Dig7_SG1_8 = C_NumberTable[11];  //Dig7 Year Ten Digit No Display
0002a0   582b     movar   0x2b             	MOVAR	r0x1057
0002a1   5624     movra   0x24             	MOVRA	r0x1050
                                           ;	.line	3476; "123.c"	LV_Dig6_SG1_8 = C_NumberTable[11];  //Dig6 Year Hundreds Digit No Display
0002a2   582b     movar   0x2b             	MOVAR	r0x1057
0002a3   5623     movra   0x23             	MOVRA	r0x104F
                                           ;	.line	3477; "123.c"	LV_Dig5_SG1_8 = C_NumberTable[11];  //Dig5 Year thousand Digit No Display      	   	   	   	   	   	   	   	
0002a4   582b     movar   0x2b             	MOVAR	r0x1057
0002a5   5622     movra   0x22             	MOVRA	r0x104E
0002a6   a3b8     goto    0x3b8            	GOTO	_01261_DS_
                                           _01225_DS_
                                           ;	.line	3479; "123.c"	else if(GV_RealTimeClockSetStep==1)  	
0002a7   5853     movar   0x53             	MOVAR	_GV_RealTimeClockSetStep
0002a8   3901     xorai   0x1              	XORAI	0x01
0002a9   e587     jbset   0x187, 0x2       	JBSET	PFLAG,2
0002aa   a2b2     goto    0x2b2            	GOTO	_01222_DS_
                                           ;	.line	3481; "123.c"	LV_Dig2_SG1_8 = C_NumberTable[11];  //Dig2 month Single Digit No Display   	   	   	   	
0002ab   5839     movar   0x39             	MOVAR	(_C_NumberTable + 11)
0002ac   562b     movra   0x2b             	MOVRA	r0x1057
0002ad   582b     movar   0x2b             	MOVAR	r0x1057
0002ae   561f     movra   0x1f             	MOVRA	r0x104B
                                           ;	.line	3482; "123.c"	LV_Dig1_SG1_8 = C_NumberTable[11];  //Dig1 month Ten Digit No Display  	   	   	   	   	   	   	   	   	
0002af   582b     movar   0x2b             	MOVAR	r0x1057
0002b0   561e     movra   0x1e             	MOVRA	r0x104A
0002b1   a3b8     goto    0x3b8            	GOTO	_01261_DS_
                                           _01222_DS_
                                           ;	.line	3484; "123.c"	else if(GV_RealTimeClockSetStep==2)	
0002b2   5853     movar   0x53             	MOVAR	_GV_RealTimeClockSetStep
0002b3   3902     xorai   0x2              	XORAI	0x02
0002b4   e587     jbset   0x187, 0x2       	JBSET	PFLAG,2
0002b5   a2bd     goto    0x2bd            	GOTO	_01219_DS_
                                           ;	.line	3486; "123.c"	LV_Dig4_SG1_8 = C_NumberTable[11];  //Dig4 Day Single Digit No Display 	   	   	
0002b6   5839     movar   0x39             	MOVAR	(_C_NumberTable + 11)
0002b7   562b     movra   0x2b             	MOVRA	r0x1057
0002b8   582b     movar   0x2b             	MOVAR	r0x1057
0002b9   5621     movra   0x21             	MOVRA	r0x104D
                                           ;	.line	3487; "123.c"	LV_Dig3_SG1_8 = C_NumberTable[11];  //Dig3 Day Ten Digit No Display    	   	   	   	   	   	   	   	
0002ba   582b     movar   0x2b             	MOVAR	r0x1057
0002bb   5620     movra   0x20             	MOVRA	r0x104C
0002bc   a3b8     goto    0x3b8            	GOTO	_01261_DS_
                                           _01219_DS_
                                           ;	.line	3489; "123.c"	else if(GV_RealTimeClockSetStep==3)	
0002bd   5853     movar   0x53             	MOVAR	_GV_RealTimeClockSetStep
0002be   3903     xorai   0x3              	XORAI	0x03
0002bf   e587     jbset   0x187, 0x2       	JBSET	PFLAG,2
0002c0   a2c6     goto    0x2c6            	GOTO	_01216_DS_
                                           ;	.line	3491; "123.c"	LV_Dig10_SG1_8 = C_NumberTable[11]; //Dig10 RealTimeClockHr Single Digit No Display      	   	   	
0002c1   5839     movar   0x39             	MOVAR	(_C_NumberTable + 11)
0002c2   5627     movra   0x27             	MOVRA	r0x1053
0002c3   5626     movra   0x26             	MOVRA	r0x1052
0002c4   562b     movra   0x2b             	MOVRA	r0x1057
                                           ;;109	MOVAR	r0x1057
                                           ;;110	MOVAR	r0x1057
                                           ;	.line	3492; "123.c"	LV_Dig9_SG1_8 = C_NumberTable[11];  //Dig9 RealTimeClockHr Ten Digit No Display    	   	   	   	   	   	   	   	
0002c5   a3b8     goto    0x3b8            	GOTO	_01261_DS_
                                           _01216_DS_
                                           ;	.line	3494; "123.c"	else if(GV_RealTimeClockSetStep==4)	
0002c6   5853     movar   0x53             	MOVAR	_GV_RealTimeClockSetStep
0002c7   3904     xorai   0x4              	XORAI	0x04
0002c8   e587     jbset   0x187, 0x2       	JBSET	PFLAG,2
0002c9   a3b8     goto    0x3b8            	GOTO	_01261_DS_
                                           ;	.line	3496; "123.c"	LV_Dig12_SG1_8 = C_NumberTable[11]; //Dig12 RealTimeClockMin Single Digit No Display   	   	   	
0002ca   5839     movar   0x39             	MOVAR	(_C_NumberTable + 11)
0002cb   5629     movra   0x29             	MOVRA	r0x1055
0002cc   5628     movra   0x28             	MOVRA	r0x1054
0002cd   562b     movra   0x2b             	MOVRA	r0x1057
                                           ;;107	MOVAR	r0x1057
                                           ;;108	MOVAR	r0x1057
                                           ;	.line	3497; "123.c"	LV_Dig11_SG1_8 = C_NumberTable[11]; //Dig11 RealTimeClockMin Ten Digit No Display      	   	   	   	   	   	   	   	
0002ce   a3b8     goto    0x3b8            	GOTO	_01261_DS_
                                           _01257_DS_
                                           ;	.line	3537; "123.c"	else if(GV_Mode==2)
0002cf   5852     movar   0x52             	MOVAR	_GV_Mode
0002d0   3902     xorai   0x2              	XORAI	0x02
0002d1   e587     jbset   0x187, 0x2       	JBSET	PFLAG,2
0002d2   a3b8     goto    0x3b8            	GOTO	_01261_DS_
                                           ;	.line	3539; "123.c"	LV_Dig8_SG1_8 = C_NumberTable[GV_SetAlarmClockMinSingleDig]; //Dig8 AlarmClockMinSingle Digit  	   	   	   	   	
0002d3   5871     movar   0x71             	MOVAR	_GV_SetAlarmClockMinSingleDig
0002d4   3f2e     addai   0x2e             	ADDAI	(_C_NumberTable + 0)
0002d5   562b     movra   0x2b             	MOVRA	r0x1057
0002d6   3c00     movai   0                	MOVAI	high (_C_NumberTable + 0)
0002d7   f187     jbclr   0x187, 0         	JBCLR	PFLAG,0
0002d8   3f01     addai   0x1              	ADDAI	0x01
0002d9   562c     movra   0x2c             	MOVRA	r0x1058
0002da   582b     movar   0x2b             	MOVAR	r0x1057
0002db   5784     movra   0x184            	MOVRA	FSR
0002dc   df87     bclr    0x187, 0x7       	BCLR	PFLAG,7
0002dd   f02c     jbclr   0x2c, 0          	JBCLR	r0x1058,0
0002de   cf87     bset    0x187, 0x7       	BSET	PFLAG,7
0002df   5980     movar   0x180            	MOVAR	INDF
0002e0   5625     movra   0x25             	MOVRA	r0x1051
                                           ;	.line	3540; "123.c"	LV_Dig7_SG1_8 = C_NumberTable[GV_SetAlarmClockMinTenDig];    //Dig7 AlarmClockMinTen Digit
0002e1   5872     movar   0x72             	MOVAR	_GV_SetAlarmClockMinTenDig
0002e2   3f2e     addai   0x2e             	ADDAI	(_C_NumberTable + 0)
0002e3   562b     movra   0x2b             	MOVRA	r0x1057
0002e4   3c00     movai   0                	MOVAI	high (_C_NumberTable + 0)
0002e5   f187     jbclr   0x187, 0         	JBCLR	PFLAG,0
0002e6   3f01     addai   0x1              	ADDAI	0x01
0002e7   562c     movra   0x2c             	MOVRA	r0x1058
0002e8   582b     movar   0x2b             	MOVAR	r0x1057
0002e9   5784     movra   0x184            	MOVRA	FSR
0002ea   df87     bclr    0x187, 0x7       	BCLR	PFLAG,7
0002eb   f02c     jbclr   0x2c, 0          	JBCLR	r0x1058,0
0002ec   cf87     bset    0x187, 0x7       	BSET	PFLAG,7
0002ed   5980     movar   0x180            	MOVAR	INDF
0002ee   5624     movra   0x24             	MOVRA	r0x1050
                                           ;	.line	3542; "123.c"	LV_Dig7_SG1_8 |= 0x80;//1000 0000;//On Dig7/H7 alarm  icons
0002ef   ce24     bset    0x24, 0x7        	BSET	r0x1050,7
                                           ;	.line	3544; "123.c"	LV_Dig6_SG1_8 = C_NumberTable[GV_SetAlarmClockHrSingleDig];  //Dig6 AlarmClockHrSingle Digit
0002f0   586f     movar   0x6f             	MOVAR	_GV_SetAlarmClockHrSingleDig
0002f1   3f2e     addai   0x2e             	ADDAI	(_C_NumberTable + 0)
0002f2   562b     movra   0x2b             	MOVRA	r0x1057
0002f3   3c00     movai   0                	MOVAI	high (_C_NumberTable + 0)
0002f4   f187     jbclr   0x187, 0         	JBCLR	PFLAG,0
0002f5   3f01     addai   0x1              	ADDAI	0x01
0002f6   562c     movra   0x2c             	MOVRA	r0x1058
0002f7   582b     movar   0x2b             	MOVAR	r0x1057
0002f8   5784     movra   0x184            	MOVRA	FSR
0002f9   df87     bclr    0x187, 0x7       	BCLR	PFLAG,7
0002fa   f02c     jbclr   0x2c, 0          	JBCLR	r0x1058,0
0002fb   cf87     bset    0x187, 0x7       	BSET	PFLAG,7
0002fc   5980     movar   0x180            	MOVAR	INDF
0002fd   5623     movra   0x23             	MOVRA	r0x104F
                                           ;	.line	3545; "123.c"	LV_Dig5_SG1_8 = C_NumberTable[GV_SetAlarmClockHrTenDig];     //Dig5 AlarmClockHrTen Digit
0002fe   5870     movar   0x70             	MOVAR	_GV_SetAlarmClockHrTenDig
0002ff   3f2e     addai   0x2e             	ADDAI	(_C_NumberTable + 0)
000300   562b     movra   0x2b             	MOVRA	r0x1057
000301   3c00     movai   0                	MOVAI	high (_C_NumberTable + 0)
000302   f187     jbclr   0x187, 0         	JBCLR	PFLAG,0
000303   3f01     addai   0x1              	ADDAI	0x01
000304   562c     movra   0x2c             	MOVRA	r0x1058
000305   582b     movar   0x2b             	MOVAR	r0x1057
000306   5784     movra   0x184            	MOVRA	FSR
000307   df87     bclr    0x187, 0x7       	BCLR	PFLAG,7
000308   f02c     jbclr   0x2c, 0          	JBCLR	r0x1058,0
000309   cf87     bset    0x187, 0x7       	BSET	PFLAG,7
00030a   5980     movar   0x180            	MOVAR	INDF
00030b   5622     movra   0x22             	MOVRA	r0x104E
                                           ;	.line	3547; "123.c"	if(BF_SetAlarmAM_PM)//0=AM1=PM
00030c   e446     jbset   0x46, 0x2        	JBSET	_UserFlag1,2
00030d   a310     goto    0x310            	GOTO	_01233_DS_
                                           ;	.line	3549; "123.c"	LV_Dig6_SG1_8 |= 0x80;//1000 0000;//On Dig6/H6 PM  icons
00030e   ce23     bset    0x23, 0x7        	BSET	r0x104F,7
00030f   a311     goto    0x311            	GOTO	_01234_DS_
                                           _01233_DS_
                                           ;	.line	3553; "123.c"	LV_Dig5_SG1_8 |= 0x80;//1000 0000;//On Dig5/H5 AM  icons   	   	
000310   ce22     bset    0x22, 0x7        	BSET	r0x104E,7
                                           _01234_DS_
                                           ;	.line	3557; "123.c"	Sub_Read1302(C_DS1302_Month);//C_DS1302_Month
000311   3c88     movai   0x88             	MOVAI	0x88
000312   8b9b     call    0xb9b            	CALL	_Sub_Read1302
                                           ;	.line	3558; "123.c"	GV_RunMonthSingleDig = GV_GetByteFromDs1302 & 0x0F;
000313   3c0f     movai   0xf              	MOVAI	0x0f
000314   7857     andar   0x57             	ANDAR	_GV_GetByteFromDs1302
000315   5661     movra   0x61             	MOVRA	_GV_RunMonthSingleDig
                                           ;	.line	3559; "123.c"	GV_RunMonthTenDig = GV_GetByteFromDs1302 >> 4;
000316   4457     swapar  0x57             	SWAPAR	_GV_GetByteFromDs1302
000317   3e0f     andai   0xf              	ANDAI	0x0f
000318   5662     movra   0x62             	MOVRA	_GV_RunMonthTenDig
                                           ;	.line	3560; "123.c"	LV_Dig2_SG1_8 = C_NumberTable[GV_RunMonthSingleDig];//Dig2 	month Single Digit 	   	   	
000319   5861     movar   0x61             	MOVAR	_GV_RunMonthSingleDig
00031a   3f2e     addai   0x2e             	ADDAI	(_C_NumberTable + 0)
00031b   562b     movra   0x2b             	MOVRA	r0x1057
00031c   3c00     movai   0                	MOVAI	high (_C_NumberTable + 0)
00031d   f187     jbclr   0x187, 0         	JBCLR	PFLAG,0
00031e   3f01     addai   0x1              	ADDAI	0x01
00031f   562c     movra   0x2c             	MOVRA	r0x1058
000320   582b     movar   0x2b             	MOVAR	r0x1057
000321   5784     movra   0x184            	MOVRA	FSR
000322   df87     bclr    0x187, 0x7       	BCLR	PFLAG,7
000323   f02c     jbclr   0x2c, 0          	JBCLR	r0x1058,0
000324   cf87     bset    0x187, 0x7       	BSET	PFLAG,7
000325   5980     movar   0x180            	MOVAR	INDF
000326   561f     movra   0x1f             	MOVRA	r0x104B
                                           ;	.line	3561; "123.c"	LV_Dig1_SG1_8 = C_NumberTable[GV_RunMonthTenDig];   //Dig1 	month Ten Digit 
000327   5862     movar   0x62             	MOVAR	_GV_RunMonthTenDig
000328   3f2e     addai   0x2e             	ADDAI	(_C_NumberTable + 0)
000329   562b     movra   0x2b             	MOVRA	r0x1057
00032a   3c00     movai   0                	MOVAI	high (_C_NumberTable + 0)
00032b   f187     jbclr   0x187, 0         	JBCLR	PFLAG,0
00032c   3f01     addai   0x1              	ADDAI	0x01
00032d   562c     movra   0x2c             	MOVRA	r0x1058
00032e   582b     movar   0x2b             	MOVAR	r0x1057
00032f   5784     movra   0x184            	MOVRA	FSR
000330   df87     bclr    0x187, 0x7       	BCLR	PFLAG,7
000331   f02c     jbclr   0x2c, 0          	JBCLR	r0x1058,0
000332   cf87     bset    0x187, 0x7       	BSET	PFLAG,7
000333   5980     movar   0x180            	MOVAR	INDF
000334   561e     movra   0x1e             	MOVRA	r0x104A
                                           ;	.line	3565; "123.c"	LV_Dig2_SG1_8 |= 0x80;//1000 0000;//On Dig2/H2 (  :  )
000335   ce1f     bset    0x1f, 0x7        	BSET	r0x104B,7
                                           ;	.line	3566; "123.c"	LV_Dig1_SG1_8 |= 0x80;//1000 0000;//On Dig1/H1 (  :  ) 	   	
000336   ce1e     bset    0x1e, 0x7        	BSET	r0x104A,7
                                           ;	.line	3569; "123.c"	Sub_Read1302(C_DS1302_Day);//C_DS1302_Day
000337   3c86     movai   0x86             	MOVAI	0x86
000338   8b9b     call    0xb9b            	CALL	_Sub_Read1302
                                           ;	.line	3570; "123.c"	GV_RunDaySingleDig = GV_GetByteFromDs1302 & 0x0F;
000339   3c0f     movai   0xf              	MOVAI	0x0f
00033a   7857     andar   0x57             	ANDAR	_GV_GetByteFromDs1302
00033b   5665     movra   0x65             	MOVRA	_GV_RunDaySingleDig
                                           ;	.line	3571; "123.c"	GV_RunDayTenDig = GV_GetByteFromDs1302 >> 4;
00033c   4457     swapar  0x57             	SWAPAR	_GV_GetByteFromDs1302
00033d   3e0f     andai   0xf              	ANDAI	0x0f
00033e   5666     movra   0x66             	MOVRA	_GV_RunDayTenDig
                                           ;	.line	3572; "123.c"	LV_Dig4_SG1_8 = C_NumberTable[GV_RunDaySingleDig];//Dig4 Day Single Digit  	   	   	
00033f   5865     movar   0x65             	MOVAR	_GV_RunDaySingleDig
000340   3f2e     addai   0x2e             	ADDAI	(_C_NumberTable + 0)
000341   562b     movra   0x2b             	MOVRA	r0x1057
000342   3c00     movai   0                	MOVAI	high (_C_NumberTable + 0)
000343   f187     jbclr   0x187, 0         	JBCLR	PFLAG,0
000344   3f01     addai   0x1              	ADDAI	0x01
000345   562c     movra   0x2c             	MOVRA	r0x1058
000346   582b     movar   0x2b             	MOVAR	r0x1057
000347   5784     movra   0x184            	MOVRA	FSR
000348   df87     bclr    0x187, 0x7       	BCLR	PFLAG,7
000349   f02c     jbclr   0x2c, 0          	JBCLR	r0x1058,0
00034a   cf87     bset    0x187, 0x7       	BSET	PFLAG,7
00034b   5980     movar   0x180            	MOVAR	INDF
00034c   5621     movra   0x21             	MOVRA	r0x104D
                                           ;	.line	3573; "123.c"	LV_Dig3_SG1_8 = C_NumberTable[GV_RunDayTenDig];   //Dig3 Day Ten Digit 
00034d   5866     movar   0x66             	MOVAR	_GV_RunDayTenDig
00034e   3f2e     addai   0x2e             	ADDAI	(_C_NumberTable + 0)
00034f   562b     movra   0x2b             	MOVRA	r0x1057
000350   3c00     movai   0                	MOVAI	high (_C_NumberTable + 0)
000351   f187     jbclr   0x187, 0         	JBCLR	PFLAG,0
000352   3f01     addai   0x1              	ADDAI	0x01
000353   562c     movra   0x2c             	MOVRA	r0x1058
000354   582b     movar   0x2b             	MOVAR	r0x1057
000355   5784     movra   0x184            	MOVRA	FSR
000356   df87     bclr    0x187, 0x7       	BCLR	PFLAG,7
000357   f02c     jbclr   0x2c, 0          	JBCLR	r0x1058,0
000358   cf87     bset    0x187, 0x7       	BSET	PFLAG,7
000359   5980     movar   0x180            	MOVAR	INDF
00035a   5620     movra   0x20             	MOVRA	r0x104C
                                           ;	.line	3578; "123.c"	Sub_Read1302(C_DS1302_Hour);//C_DS1302_Hour
00035b   3c84     movai   0x84             	MOVAI	0x84
00035c   8b9b     call    0xb9b            	CALL	_Sub_Read1302
                                           ;	.line	3579; "123.c"	GV_RunRealTimeClockHrSingleDig = GV_GetByteFromDs1302 & 0x0F;
00035d   3c0f     movai   0xf              	MOVAI	0x0f
00035e   7857     andar   0x57             	ANDAR	_GV_GetByteFromDs1302
00035f   566b     movra   0x6b             	MOVRA	_GV_RunRealTimeClockHrSingleDig
                                           ;	.line	3582; "123.c"	GV_RunRealTimeClockHrTenDig = LV_TempB & 0x01; 
000360   766c     clrr    0x6c             	CLRR	_GV_RunRealTimeClockHrTenDig
                                           ;	.line	3584; "123.c"	LV_Dig10_SG1_8 = C_NumberTable[GV_RunRealTimeClockHrSingleDig];//Dig10 RealTimeClockHr Single Digit    	   	   	
000361   586b     movar   0x6b             	MOVAR	_GV_RunRealTimeClockHrSingleDig
000362   3f2e     addai   0x2e             	ADDAI	(_C_NumberTable + 0)
000363   562b     movra   0x2b             	MOVRA	r0x1057
000364   3c00     movai   0                	MOVAI	high (_C_NumberTable + 0)
000365   f187     jbclr   0x187, 0         	JBCLR	PFLAG,0
000366   3f01     addai   0x1              	ADDAI	0x01
000367   562c     movra   0x2c             	MOVRA	r0x1058
000368   582b     movar   0x2b             	MOVAR	r0x1057
000369   5784     movra   0x184            	MOVRA	FSR
00036a   df87     bclr    0x187, 0x7       	BCLR	PFLAG,7
00036b   f02c     jbclr   0x2c, 0          	JBCLR	r0x1058,0
00036c   cf87     bset    0x187, 0x7       	BSET	PFLAG,7
00036d   5980     movar   0x180            	MOVAR	INDF
00036e   5627     movra   0x27             	MOVRA	r0x1053
                                           ;	.line	3585; "123.c"	LV_Dig9_SG1_8 = C_NumberTable[GV_RunRealTimeClockHrTenDig];    //Dig9 RealTimeClockHr Ten Digit
00036f   582e     movar   0x2e             	MOVAR	(_C_NumberTable + 0)
000370   5626     movra   0x26             	MOVRA	r0x1052
                                           ;	.line	3593; "123.c"	LV_Dig13_SG1_8 |= 0x0E;//0000 1110;//Dig13/B13/C13/D13 	RTC AM
000371   3c8f     movai   0x8f             	MOVAI	0x8f
000372   562a     movra   0x2a             	MOVRA	r0x1056
                                           ;	.line	3597; "123.c"	Sub_Read1302(C_DS1302_Minute);//C_DS1302_Minute
000373   3c82     movai   0x82             	MOVAI	0x82
000374   8b9b     call    0xb9b            	CALL	_Sub_Read1302
                                           ;	.line	3598; "123.c"	GV_RunRealTimeClockMinSingleDig = GV_GetByteFromDs1302 & 0x0F;
000375   3c0f     movai   0xf              	MOVAI	0x0f
000376   7857     andar   0x57             	ANDAR	_GV_GetByteFromDs1302
000377   566d     movra   0x6d             	MOVRA	_GV_RunRealTimeClockMinSingleDig
                                           ;	.line	3599; "123.c"	GV_RunRealTimeClockMinTenDig = GV_GetByteFromDs1302 >> 4;
000378   4457     swapar  0x57             	SWAPAR	_GV_GetByteFromDs1302
000379   3e0f     andai   0xf              	ANDAI	0x0f
00037a   566e     movra   0x6e             	MOVRA	_GV_RunRealTimeClockMinTenDig
                                           ;	.line	3600; "123.c"	LV_Dig12_SG1_8 = C_NumberTable[GV_RunRealTimeClockMinSingleDig];//Dig12 RealTimeClockMin Single Digit  	   	   	
00037b   586d     movar   0x6d             	MOVAR	_GV_RunRealTimeClockMinSingleDig
00037c   3f2e     addai   0x2e             	ADDAI	(_C_NumberTable + 0)
00037d   562b     movra   0x2b             	MOVRA	r0x1057
00037e   3c00     movai   0                	MOVAI	high (_C_NumberTable + 0)
00037f   f187     jbclr   0x187, 0         	JBCLR	PFLAG,0
000380   3f01     addai   0x1              	ADDAI	0x01
000381   562c     movra   0x2c             	MOVRA	r0x1058
000382   582b     movar   0x2b             	MOVAR	r0x1057
000383   5784     movra   0x184            	MOVRA	FSR
000384   df87     bclr    0x187, 0x7       	BCLR	PFLAG,7
000385   f02c     jbclr   0x2c, 0          	JBCLR	r0x1058,0
000386   cf87     bset    0x187, 0x7       	BSET	PFLAG,7
000387   5980     movar   0x180            	MOVAR	INDF
000388   5629     movra   0x29             	MOVRA	r0x1055
                                           ;	.line	3601; "123.c"	LV_Dig11_SG1_8 = C_NumberTable[GV_RunRealTimeClockMinTenDig];   //Dig11 RealTimeClockMin Ten Digit 
000389   586e     movar   0x6e             	MOVAR	_GV_RunRealTimeClockMinTenDig
00038a   3f2e     addai   0x2e             	ADDAI	(_C_NumberTable + 0)
00038b   562b     movra   0x2b             	MOVRA	r0x1057
00038c   3c00     movai   0                	MOVAI	high (_C_NumberTable + 0)
00038d   f187     jbclr   0x187, 0         	JBCLR	PFLAG,0
00038e   3f01     addai   0x1              	ADDAI	0x01
00038f   562c     movra   0x2c             	MOVRA	r0x1058
000390   582b     movar   0x2b             	MOVAR	r0x1057
000391   5784     movra   0x184            	MOVRA	FSR
000392   df87     bclr    0x187, 0x7       	BCLR	PFLAG,7
000393   f02c     jbclr   0x2c, 0          	JBCLR	r0x1058,0
000394   cf87     bset    0x187, 0x7       	BSET	PFLAG,7
000395   5980     movar   0x180            	MOVAR	INDF
000396   5628     movra   0x28             	MOVRA	r0x1054
                                           ;	.line	3604; "123.c"	if((BF_Up_AlLongKeyPressesd == 0)&&(BF_DownLongKeyPressesd == 0))
000397   fa45     jbclr   0x45, 0x5        	JBCLR	_UserFlag,5
000398   a3b8     goto    0x3b8            	GOTO	_01261_DS_
000399   fe45     jbclr   0x45, 0x7        	JBCLR	_UserFlag,7
00039a   a3b8     goto    0x3b8            	GOTO	_01261_DS_
                                           ;	.line	3606; "123.c"	if(BF_Clock500ms == 0)//Off Alarm Timer set Digit
00039b   f245     jbclr   0x45, 0x1        	JBCLR	_UserFlag,1
00039c   a3b8     goto    0x3b8            	GOTO	_01261_DS_
                                           ;	.line	3608; "123.c"	if(GV_AlarmClockSetStep==0)
00039d   3c00     movai   0                	MOVAI	0x00
00039e   5c54     orar    0x54             	ORAR	_GV_AlarmClockSetStep
00039f   e587     jbset   0x187, 0x2       	JBSET	PFLAG,2
0003a0   a3a7     goto    0x3a7            	GOTO	_01247_DS_
                                           ;	.line	3610; "123.c"	if(BF_SetAlarmOnOff)//0 = Set alarm off; 1 = Set alarm on
0003a1   ea46     jbset   0x46, 0x5        	JBSET	_UserFlag1,5
0003a2   a3a5     goto    0x3a5            	GOTO	_01239_DS_
                                           ;	.line	3612; "123.c"	LV_Dig7_SG1_8 |= 0x80;//1000 0000;//On Dig7/H7 alarm  icons
0003a3   ce24     bset    0x24, 0x7        	BSET	r0x1050,7
0003a4   a3b8     goto    0x3b8            	GOTO	_01261_DS_
                                           _01239_DS_
                                           ;	.line	3616; "123.c"	LV_Dig7_SG1_8 &= 0x7f;//0111 1111;//Off Dig7/H7 alarm  icons
0003a5   de24     bclr    0x24, 0x7        	BCLR	r0x1050,7
0003a6   a3b8     goto    0x3b8            	GOTO	_01261_DS_
                                           _01247_DS_
                                           ;	.line	3619; "123.c"	else if(GV_AlarmClockSetStep==1)
0003a7   5854     movar   0x54             	MOVAR	_GV_AlarmClockSetStep
0003a8   3901     xorai   0x1              	XORAI	0x01
0003a9   e587     jbset   0x187, 0x2       	JBSET	PFLAG,2
0003aa   a3b0     goto    0x3b0            	GOTO	_01244_DS_
                                           ;	.line	3621; "123.c"	LV_Dig6_SG1_8 = C_NumberTable[11]; //Dig6 AlarmClockHrSingle Digit No Display
0003ab   5839     movar   0x39             	MOVAR	(_C_NumberTable + 11)
0003ac   5623     movra   0x23             	MOVRA	r0x104F
0003ad   5622     movra   0x22             	MOVRA	r0x104E
0003ae   562b     movra   0x2b             	MOVRA	r0x1057
                                           ;;105	MOVAR	r0x1057
                                           ;;106	MOVAR	r0x1057
                                           ;	.line	3622; "123.c"	LV_Dig5_SG1_8 = C_NumberTable[11]; //Dig5 AlarmClockHrTen Digit No Display 	   	   	   	   	   	   	   	   	   	   	   	   	   	   	   	   	   	   	   	   	       	   	   	   	   
0003af   a3b8     goto    0x3b8            	GOTO	_01261_DS_
                                           _01244_DS_
                                           ;	.line	3624; "123.c"	else if(GV_AlarmClockSetStep==2)
0003b0   5854     movar   0x54             	MOVAR	_GV_AlarmClockSetStep
0003b1   3902     xorai   0x2              	XORAI	0x02
0003b2   e587     jbset   0x187, 0x2       	JBSET	PFLAG,2
0003b3   a3b8     goto    0x3b8            	GOTO	_01261_DS_
                                           ;	.line	3626; "123.c"	LV_Dig8_SG1_8 = C_NumberTable[11]; //Dig8 AlarmClockMinSingle Digit No Display 	   	   	   	   	
0003b4   5839     movar   0x39             	MOVAR	(_C_NumberTable + 11)
0003b5   5625     movra   0x25             	MOVRA	r0x1051
0003b6   5624     movra   0x24             	MOVRA	r0x1050
0003b7   562b     movra   0x2b             	MOVRA	r0x1057
                                           ;;102	MOVAR	r0x1057
                                           ;;104	MOVAR	r0x1057
                                           _01261_DS_
                                           ;	.line	3993; "123.c"	SetSTB0();
0003b8   d798     bclr    0x198, 0x3       	BCLR	_IOP2bits,3
                                           ;	.line	3994; "123.c"	Sub_SendByteToPT6964(C_DataWrite);//Data W/R command
0003b9   3c40     movai   0x40             	MOVAI	0x40
0003ba   8411     call    0x411            	CALL	_Sub_SendByteToPT6964
                                           ;	.line	3995; "123.c"	SetSTB1();
0003bb   c798     bset    0x198, 0x3       	BSET	_IOP2bits,3
                                           ;	.line	3997; "123.c"	Nop();
0003bc   0000     nop                      	nop
                                           ;	.line	3998; "123.c"	Nop();
0003bd   0000     nop                      	nop
                                           ;	.line	3999; "123.c"	SetSTB0();
0003be   d798     bclr    0x198, 0x3       	BCLR	_IOP2bits,3
                                           ;	.line	4000; "123.c"	Sub_SendByteToPT6964(C_Address0);//Address control command
0003bf   3cc0     movai   0xc0             	MOVAI	0xc0
0003c0   8411     call    0x411            	CALL	_Sub_SendByteToPT6964
                                           ;	.line	4002; "123.c"	Sub_SendByteToPT6964(LV_Dig1_SG1_8);
0003c1   581e     movar   0x1e             	MOVAR	r0x104A
0003c2   8411     call    0x411            	CALL	_Sub_SendByteToPT6964
                                           ;	.line	4003; "123.c"	Sub_SendByteToPT6964(LV_Dig2_SG1_8);
0003c3   581f     movar   0x1f             	MOVAR	r0x104B
0003c4   8411     call    0x411            	CALL	_Sub_SendByteToPT6964
                                           ;	.line	4005; "123.c"	Sub_SendByteToPT6964(LV_Dig3_SG1_8);
0003c5   5820     movar   0x20             	MOVAR	r0x104C
0003c6   8411     call    0x411            	CALL	_Sub_SendByteToPT6964
                                           ;	.line	4006; "123.c"	Sub_SendByteToPT6964(LV_Dig4_SG1_8);
0003c7   5821     movar   0x21             	MOVAR	r0x104D
0003c8   8411     call    0x411            	CALL	_Sub_SendByteToPT6964
                                           ;	.line	4008; "123.c"	Sub_SendByteToPT6964(LV_Dig5_SG1_8);
0003c9   5822     movar   0x22             	MOVAR	r0x104E
0003ca   8411     call    0x411            	CALL	_Sub_SendByteToPT6964
                                           ;	.line	4009; "123.c"	Sub_SendByteToPT6964(LV_Dig6_SG1_8);
0003cb   5823     movar   0x23             	MOVAR	r0x104F
0003cc   8411     call    0x411            	CALL	_Sub_SendByteToPT6964
                                           ;	.line	4011; "123.c"	Sub_SendByteToPT6964(LV_Dig7_SG1_8);
0003cd   5824     movar   0x24             	MOVAR	r0x1050
0003ce   8411     call    0x411            	CALL	_Sub_SendByteToPT6964
                                           ;	.line	4012; "123.c"	Sub_SendByteToPT6964(LV_Dig8_SG1_8);
0003cf   5825     movar   0x25             	MOVAR	r0x1051
0003d0   8411     call    0x411            	CALL	_Sub_SendByteToPT6964
                                           ;	.line	4014; "123.c"	Sub_SendByteToPT6964(LV_Dig9_SG1_8);
0003d1   5826     movar   0x26             	MOVAR	r0x1052
0003d2   8411     call    0x411            	CALL	_Sub_SendByteToPT6964
                                           ;	.line	4015; "123.c"	Sub_SendByteToPT6964(LV_Dig10_SG1_8);
0003d3   5827     movar   0x27             	MOVAR	r0x1053
0003d4   8411     call    0x411            	CALL	_Sub_SendByteToPT6964
                                           ;	.line	4017; "123.c"	Sub_SendByteToPT6964(LV_Dig11_SG1_8);
0003d5   5828     movar   0x28             	MOVAR	r0x1054
0003d6   8411     call    0x411            	CALL	_Sub_SendByteToPT6964
                                           ;	.line	4018; "123.c"	Sub_SendByteToPT6964(LV_Dig12_SG1_8);
0003d7   5829     movar   0x29             	MOVAR	r0x1055
0003d8   8411     call    0x411            	CALL	_Sub_SendByteToPT6964
                                           ;	.line	4020; "123.c"	Sub_SendByteToPT6964(LV_Dig13_SG1_8);
0003d9   582a     movar   0x2a             	MOVAR	r0x1056
0003da   8411     call    0x411            	CALL	_Sub_SendByteToPT6964
                                           ;	.line	4022; "123.c"	SetSTB1(); 	
0003db   c798     bset    0x198, 0x3       	BSET	_IOP2bits,3
                                           ;	.line	4030; "123.c"	Nop();
0003dc   0000     nop                      	nop
                                           ;	.line	4031; "123.c"	Nop(); 	   	   	   	   	   	   	   	   	
0003dd   0000     nop                      	nop
                                           ;	.line	4032; "123.c"	SetSTB0();
0003de   d798     bclr    0x198, 0x3       	BCLR	_IOP2bits,3
                                           ;	.line	4033; "123.c"	if(GV_DisplayBrightnessLevel==0)
0003df   3c00     movai   0                	MOVAI	0x00
0003e0   5c78     orar    0x78             	ORAR	_GV_DisplayBrightnessLevel
0003e1   e587     jbset   0x187, 0x2       	JBSET	PFLAG,2
0003e2   a3e6     goto    0x3e6            	GOTO	_01268_DS_
                                           ;	.line	4035; "123.c"	Sub_SendByteToPT6964(C_DisplayOnDuty14_16);
0003e3   3c8f     movai   0x8f             	MOVAI	0x8f
0003e4   8411     call    0x411            	CALL	_Sub_SendByteToPT6964
0003e5   a3f3     goto    0x3f3            	GOTO	_01269_DS_
                                           _01268_DS_
                                           ;	.line	4037; "123.c"	else if(GV_DisplayBrightnessLevel==1)
0003e6   5878     movar   0x78             	MOVAR	_GV_DisplayBrightnessLevel
0003e7   3901     xorai   0x1              	XORAI	0x01
0003e8   e587     jbset   0x187, 0x2       	JBSET	PFLAG,2
0003e9   a3ed     goto    0x3ed            	GOTO	_01265_DS_
                                           ;	.line	4039; "123.c"	Sub_SendByteToPT6964(C_DisplayOnDuty4_16);
0003ea   3c8a     movai   0x8a             	MOVAI	0x8a
0003eb   8411     call    0x411            	CALL	_Sub_SendByteToPT6964
0003ec   a3f3     goto    0x3f3            	GOTO	_01269_DS_
                                           _01265_DS_
                                           ;	.line	4041; "123.c"	else if(GV_DisplayBrightnessLevel==2)
0003ed   5878     movar   0x78             	MOVAR	_GV_DisplayBrightnessLevel
0003ee   3902     xorai   0x2              	XORAI	0x02
0003ef   e587     jbset   0x187, 0x2       	JBSET	PFLAG,2
0003f0   a3f3     goto    0x3f3            	GOTO	_01269_DS_
                                           ;	.line	4043; "123.c"	Sub_SendByteToPT6964(C_DisplayOnDuty1_16);
0003f1   3c88     movai   0x88             	MOVAI	0x88
0003f2   8411     call    0x411            	CALL	_Sub_SendByteToPT6964
                                           _01269_DS_
                                           ;	.line	4063; "123.c"	SetSTB1();
0003f3   c798     bset    0x198, 0x3       	BSET	_IOP2bits,3
0003f4   000c     return                   	RETURN	
                                           ; exit point of _Sub_SendDispDataToTA6932
                                           
                                           ;***
                                           ;  pBlock Stats: dbName = C
                                           ;***
                                           ;entry:  _Sub_GetByteFromPT6964	;Function start
                                           ; 2 exit points
                                           ;has an exit
                                           ;1 compiler assigned register :
                                           ;   r0x1059
                                           ;; Starting pCode block
                                           _Sub_GetByteFromPT6964	;Function start
                                           ; 2 exit points
                                           ;	.line	3272; "123.c"	GV_GetPT6964Data = 0;
0003f5   7658     clrr    0x58             	CLRR	_GV_GetPT6964Data
                                           ;	.line	3273; "123.c"	SetDIOInput();
0003f6   db95     bclr    0x195, 0x5       	BCLR	_OEP1bits,5
                                           ;	.line	3274; "123.c"	Nop();
0003f7   0000     nop                      	nop
                                           ;	.line	3275; "123.c"	Nop();
0003f8   0000     nop                      	nop
                                           ;	.line	3276; "123.c"	for(LV_TempPT6964=0x80; LV_TempPT6964; LV_TempPT6964>>=1)
0003f9   3c80     movai   0x80             	MOVAI	0x80
0003fa   561d     movra   0x1d             	MOVRA	r0x1059
                                           _01189_DS_
0003fb   3c00     movai   0                	MOVAI	0x00
0003fc   5c1d     orar    0x1d             	ORAR	r0x1059
0003fd   f587     jbclr   0x187, 0x2       	JBCLR	PFLAG,2
0003fe   a40d     goto    0x40d            	GOTO	_01192_DS_
                                           ;	.line	3278; "123.c"	GV_GetPT6964Data<<=1;
0003ff   d187     bclr    0x187, 0         	BCLR	PFLAG,0
000400   5258     rlr     0x58             	RLR	_GV_GetPT6964Data
                                           ;	.line	3279; "123.c"	SetSCK1();
000401   c994     bset    0x194, 0x4       	BSET	_IOP1bits,4
                                           ;	.line	3280; "123.c"	Nop();
000402   0000     nop                      	nop
                                           ;	.line	3281; "123.c"	Nop();
000403   0000     nop                      	nop
                                           ;	.line	3282; "123.c"	if(GetDIO()) {GV_GetPT6964Data++; }
000404   eb94     jbset   0x194, 0x5       	JBSET	_IOP1bits,5
000405   a407     goto    0x407            	GOTO	_01188_DS_
000406   6658     incr    0x58             	INCR	_GV_GetPT6964Data
                                           _01188_DS_
                                           ;	.line	3283; "123.c"	SetSCK0();
000407   d994     bclr    0x194, 0x4       	BCLR	_IOP1bits,4
                                           ;	.line	3284; "123.c"	Nop();
000408   0000     nop                      	nop
                                           ;	.line	3285; "123.c"	Nop();
000409   0000     nop                      	nop
                                           ;;shiftRight_Left2ResultLit:5216: shCount=1, size=1, sign=0, same=1, offr=0
                                           ;	.line	3276; "123.c"	for(LV_TempPT6964=0x80; LV_TempPT6964; LV_TempPT6964>>=1)
00040a   d187     bclr    0x187, 0         	BCLR	PFLAG,0
00040b   4e1d     rrr     0x1d             	RRR	r0x1059
00040c   a3fb     goto    0x3fb            	GOTO	_01189_DS_
                                           _01192_DS_
                                           ;	.line	3288; "123.c"	SetDIOOutput();
00040d   cb95     bset    0x195, 0x5       	BSET	_OEP1bits,5
                                           ;	.line	3289; "123.c"	Nop();
00040e   0000     nop                      	nop
                                           ;	.line	3290; "123.c"	Nop();
00040f   0000     nop                      	nop
000410   000c     return                   	RETURN	
                                           ; exit point of _Sub_GetByteFromPT6964
                                           
                                           ;***
                                           ;  pBlock Stats: dbName = C
                                           ;***
                                           ;entry:  _Sub_SendByteToPT6964	;Function start
                                           ; 2 exit points
                                           ;has an exit
                                           ;3 compiler assigned registers:
                                           ;   r0x1045
                                           ;   r0x1046
                                           ;   r0x1047
                                           ;; Starting pCode block
                                           _Sub_SendByteToPT6964	;Function start
                                           ; 2 exit points
                                           ;	.line	3240; "123.c"	void Sub_SendByteToPT6964(unsigned char	LV_SendTodata)  
000411   561a     movra   0x1a             	MOVRA	r0x1045
                                           ;	.line	3243; "123.c"	SetDIOOutput();  
000412   cb95     bset    0x195, 0x5       	BSET	_OEP1bits,5
                                           ;	.line	3244; "123.c"	SetDIO0();
000413   db94     bclr    0x194, 0x5       	BCLR	_IOP1bits,5
                                           ;	.line	3245; "123.c"	for(i=0x01; i; i<<=1)
000414   3c01     movai   0x1              	MOVAI	0x01
000415   561b     movra   0x1b             	MOVRA	r0x1046
                                           _01179_DS_
000416   3c00     movai   0                	MOVAI	0x00
000417   5c1b     orar    0x1b             	ORAR	r0x1046
000418   f587     jbclr   0x187, 0x2       	JBCLR	PFLAG,2
000419   a42c     goto    0x42c            	GOTO	_01182_DS_
                                           ;	.line	3247; "123.c"	SetSCK0();
00041a   d994     bclr    0x194, 0x4       	BCLR	_IOP1bits,4
                                           ;	.line	3248; "123.c"	if(i & LV_SendTodata) {SetDIO1();} else {SetDIO0();}
00041b   581a     movar   0x1a             	MOVAR	r0x1045
00041c   781b     andar   0x1b             	ANDAR	r0x1046
00041d   561c     movra   0x1c             	MOVRA	r0x1047
00041e   3c00     movai   0                	MOVAI	0x00
00041f   5c1c     orar    0x1c             	ORAR	r0x1047
000420   f587     jbclr   0x187, 0x2       	JBCLR	PFLAG,2
000421   a424     goto    0x424            	GOTO	_01177_DS_
000422   cb94     bset    0x194, 0x5       	BSET	_IOP1bits,5
000423   a425     goto    0x425            	GOTO	_01178_DS_
                                           _01177_DS_
000424   db94     bclr    0x194, 0x5       	BCLR	_IOP1bits,5
                                           _01178_DS_
                                           ;	.line	3249; "123.c"	SetSCK1();
000425   c994     bset    0x194, 0x4       	BSET	_IOP1bits,4
                                           ;	.line	3250; "123.c"	Nop();
000426   0000     nop                      	nop
                                           ;	.line	3251; "123.c"	Nop();
000427   0000     nop                      	nop
                                           ;	.line	3252; "123.c"	SetSCK0();
000428   d994     bclr    0x194, 0x4       	BCLR	_IOP1bits,4
                                           ;	.line	3245; "123.c"	for(i=0x01; i; i<<=1)
000429   d187     bclr    0x187, 0         	BCLR	PFLAG,0
00042a   521b     rlr     0x1b             	RLR	r0x1046
00042b   a416     goto    0x416            	GOTO	_01179_DS_
                                           _01182_DS_
                                           ;	.line	3254; "123.c"	SetDIO0();
00042c   db94     bclr    0x194, 0x5       	BCLR	_IOP1bits,5
00042d   000c     return                   	RETURN	
                                           ; exit point of _Sub_SendByteToPT6964
                                           
                                           ;***
                                           ;  pBlock Stats: dbName = C
                                           ;***
                                           ;entry:  _Sub_Buzzer	;Function start
                                           ; 2 exit points
                                           ;has an exit
                                           ;functions called:
                                           ;   _Sub_BuzzerBBB
                                           ;   _Sub_BuzzerBBB
                                           ;; Starting pCode block
                                           _Sub_Buzzer	;Function start
                                           ; 2 exit points
                                           ;	.line	3205; "123.c"	if(BF_BuzzerBBB)
00042e   e846     jbset   0x46, 0x4        	JBSET	_UserFlag1,4
00042f   a432     goto    0x432            	GOTO	_01169_DS_
                                           ;	.line	3207; "123.c"	Sub_BuzzerBBB();
000430   8436     call    0x436            	CALL	_Sub_BuzzerBBB
000431   a435     goto    0x435            	GOTO	_01171_DS_
                                           _01169_DS_
                                           ;	.line	3211; "123.c"	GV_BuzzerIndex = 0;
000432   7655     clrr    0x55             	CLRR	_GV_BuzzerIndex
                                           ;	.line	3212; "123.c"	GV_BuzzerDuty = 0;
000433   7656     clrr    0x56             	CLRR	_GV_BuzzerDuty
                                           ;	.line	3213; "123.c"	DisableBuzzer();
000434   d399     bclr    0x199, 0x1       	BCLR	_OEP2bits,1
                                           _01171_DS_
000435   000c     return                   	RETURN	
                                           ; exit point of _Sub_Buzzer
                                           
                                           ;***
                                           ;  pBlock Stats: dbName = C
                                           ;***
                                           ;entry:  _Sub_BuzzerBBB	;Function start
                                           ; 2 exit points
                                           ;has an exit
                                           ;; Starting pCode block
                                           _Sub_BuzzerBBB	;Function start
                                           ; 2 exit points
                                           ;	.line	3055; "123.c"	if(GV_BuzzerIndex==0)
000436   3c00     movai   0                	MOVAI	0x00
000437   5c55     orar    0x55             	ORAR	_GV_BuzzerIndex
000438   e587     jbset   0x187, 0x2       	JBSET	PFLAG,2
000439   a440     goto    0x440            	GOTO	_01161_DS_
                                           ;	.line	3057; "123.c"	GV_BuzzerDuty=50;
00043a   3c32     movai   0x32             	MOVAI	0x32
00043b   5656     movra   0x56             	MOVRA	_GV_BuzzerDuty
                                           ;	.line	3058; "123.c"	EnableBuzzer();
00043c   c399     bset    0x199, 0x1       	BSET	_OEP2bits,1
                                           ;	.line	3059; "123.c"	GV_BuzzerIndex = 1;
00043d   3c01     movai   0x1              	MOVAI	0x01
00043e   5655     movra   0x55             	MOVRA	_GV_BuzzerIndex
00043f   a4a5     goto    0x4a5            	GOTO	_01163_DS_
                                           _01161_DS_
                                           ;	.line	3061; "123.c"	else if(GV_BuzzerIndex==1)
000440   5855     movar   0x55             	MOVAR	_GV_BuzzerIndex
000441   3901     xorai   0x1              	XORAI	0x01
000442   e587     jbset   0x187, 0x2       	JBSET	PFLAG,2
000443   a44f     goto    0x44f            	GOTO	_01158_DS_
                                           ;	.line	3063; "123.c"	if(--GV_BuzzerDuty == 0)
000444   6e56     decr    0x56             	DECR	_GV_BuzzerDuty
000445   3c00     movai   0                	MOVAI	0x00
000446   5c56     orar    0x56             	ORAR	_GV_BuzzerDuty
000447   e587     jbset   0x187, 0x2       	JBSET	PFLAG,2
000448   a4a5     goto    0x4a5            	GOTO	_01163_DS_
                                           ;	.line	3065; "123.c"	GV_BuzzerIndex = 2;
000449   3c02     movai   0x2              	MOVAI	0x02
00044a   5655     movra   0x55             	MOVRA	_GV_BuzzerIndex
                                           ;	.line	3066; "123.c"	DisableBuzzer();
00044b   d399     bclr    0x199, 0x1       	BCLR	_OEP2bits,1
                                           ;	.line	3067; "123.c"	GV_BuzzerDuty = 50;
00044c   3c32     movai   0x32             	MOVAI	0x32
00044d   5656     movra   0x56             	MOVRA	_GV_BuzzerDuty
00044e   a4a5     goto    0x4a5            	GOTO	_01163_DS_
                                           _01158_DS_
                                           ;	.line	3070; "123.c"	else if(GV_BuzzerIndex==2)
00044f   5855     movar   0x55             	MOVAR	_GV_BuzzerIndex
000450   3902     xorai   0x2              	XORAI	0x02
000451   e587     jbset   0x187, 0x2       	JBSET	PFLAG,2
000452   a45b     goto    0x45b            	GOTO	_01155_DS_
                                           ;	.line	3072; "123.c"	if(--GV_BuzzerDuty == 0)
000453   6e56     decr    0x56             	DECR	_GV_BuzzerDuty
000454   3c00     movai   0                	MOVAI	0x00
000455   5c56     orar    0x56             	ORAR	_GV_BuzzerDuty
000456   e587     jbset   0x187, 0x2       	JBSET	PFLAG,2
000457   a4a5     goto    0x4a5            	GOTO	_01163_DS_
                                           ;	.line	3074; "123.c"	GV_BuzzerIndex = 3;
000458   3c03     movai   0x3              	MOVAI	0x03
000459   5655     movra   0x55             	MOVRA	_GV_BuzzerIndex
00045a   a4a5     goto    0x4a5            	GOTO	_01163_DS_
                                           _01155_DS_
                                           ;	.line	3077; "123.c"	else if(GV_BuzzerIndex==3)
00045b   5855     movar   0x55             	MOVAR	_GV_BuzzerIndex
00045c   3903     xorai   0x3              	XORAI	0x03
00045d   e587     jbset   0x187, 0x2       	JBSET	PFLAG,2
00045e   a465     goto    0x465            	GOTO	_01152_DS_
                                           ;	.line	3079; "123.c"	GV_BuzzerDuty=50;
00045f   3c32     movai   0x32             	MOVAI	0x32
000460   5656     movra   0x56             	MOVRA	_GV_BuzzerDuty
                                           ;	.line	3080; "123.c"	EnableBuzzer();
000461   c399     bset    0x199, 0x1       	BSET	_OEP2bits,1
                                           ;	.line	3081; "123.c"	GV_BuzzerIndex = 4;
000462   3c04     movai   0x4              	MOVAI	0x04
000463   5655     movra   0x55             	MOVRA	_GV_BuzzerIndex
000464   a4a5     goto    0x4a5            	GOTO	_01163_DS_
                                           _01152_DS_
                                           ;	.line	3083; "123.c"	else if(GV_BuzzerIndex==4)
000465   5855     movar   0x55             	MOVAR	_GV_BuzzerIndex
000466   3904     xorai   0x4              	XORAI	0x04
000467   e587     jbset   0x187, 0x2       	JBSET	PFLAG,2
000468   a474     goto    0x474            	GOTO	_01149_DS_
                                           ;	.line	3085; "123.c"	if(--GV_BuzzerDuty == 0)
000469   6e56     decr    0x56             	DECR	_GV_BuzzerDuty
00046a   3c00     movai   0                	MOVAI	0x00
00046b   5c56     orar    0x56             	ORAR	_GV_BuzzerDuty
00046c   e587     jbset   0x187, 0x2       	JBSET	PFLAG,2
00046d   a4a5     goto    0x4a5            	GOTO	_01163_DS_
                                           ;	.line	3087; "123.c"	GV_BuzzerIndex = 5;
00046e   3c05     movai   0x5              	MOVAI	0x05
00046f   5655     movra   0x55             	MOVRA	_GV_BuzzerIndex
                                           ;	.line	3088; "123.c"	DisableBuzzer();
000470   d399     bclr    0x199, 0x1       	BCLR	_OEP2bits,1
                                           ;	.line	3089; "123.c"	GV_BuzzerDuty = 50;
000471   3c32     movai   0x32             	MOVAI	0x32
000472   5656     movra   0x56             	MOVRA	_GV_BuzzerDuty
000473   a4a5     goto    0x4a5            	GOTO	_01163_DS_
                                           _01149_DS_
                                           ;	.line	3092; "123.c"	else if(GV_BuzzerIndex==5)
000474   5855     movar   0x55             	MOVAR	_GV_BuzzerIndex
000475   3905     xorai   0x5              	XORAI	0x05
000476   e587     jbset   0x187, 0x2       	JBSET	PFLAG,2
000477   a480     goto    0x480            	GOTO	_01146_DS_
                                           ;	.line	3094; "123.c"	if(--GV_BuzzerDuty == 0)
000478   6e56     decr    0x56             	DECR	_GV_BuzzerDuty
000479   3c00     movai   0                	MOVAI	0x00
00047a   5c56     orar    0x56             	ORAR	_GV_BuzzerDuty
00047b   e587     jbset   0x187, 0x2       	JBSET	PFLAG,2
00047c   a4a5     goto    0x4a5            	GOTO	_01163_DS_
                                           ;	.line	3096; "123.c"	GV_BuzzerIndex = 6;
00047d   3c06     movai   0x6              	MOVAI	0x06
00047e   5655     movra   0x55             	MOVRA	_GV_BuzzerIndex
00047f   a4a5     goto    0x4a5            	GOTO	_01163_DS_
                                           _01146_DS_
                                           ;	.line	3099; "123.c"	else if(GV_BuzzerIndex==6)
000480   5855     movar   0x55             	MOVAR	_GV_BuzzerIndex
000481   3906     xorai   0x6              	XORAI	0x06
000482   e587     jbset   0x187, 0x2       	JBSET	PFLAG,2
000483   a48a     goto    0x48a            	GOTO	_01143_DS_
                                           ;	.line	3101; "123.c"	GV_BuzzerDuty=50;
000484   3c32     movai   0x32             	MOVAI	0x32
000485   5656     movra   0x56             	MOVRA	_GV_BuzzerDuty
                                           ;	.line	3102; "123.c"	EnableBuzzer();
000486   c399     bset    0x199, 0x1       	BSET	_OEP2bits,1
                                           ;	.line	3103; "123.c"	GV_BuzzerIndex = 7;
000487   3c07     movai   0x7              	MOVAI	0x07
000488   5655     movra   0x55             	MOVRA	_GV_BuzzerIndex
000489   a4a5     goto    0x4a5            	GOTO	_01163_DS_
                                           _01143_DS_
                                           ;	.line	3105; "123.c"	else if(GV_BuzzerIndex==7)
00048a   5855     movar   0x55             	MOVAR	_GV_BuzzerIndex
00048b   3907     xorai   0x7              	XORAI	0x07
00048c   e587     jbset   0x187, 0x2       	JBSET	PFLAG,2
00048d   a499     goto    0x499            	GOTO	_01140_DS_
                                           ;	.line	3107; "123.c"	if(--GV_BuzzerDuty == 0)
00048e   6e56     decr    0x56             	DECR	_GV_BuzzerDuty
00048f   3c00     movai   0                	MOVAI	0x00
000490   5c56     orar    0x56             	ORAR	_GV_BuzzerDuty
000491   e587     jbset   0x187, 0x2       	JBSET	PFLAG,2
000492   a4a5     goto    0x4a5            	GOTO	_01163_DS_
                                           ;	.line	3109; "123.c"	GV_BuzzerIndex = 8;
000493   3c08     movai   0x8              	MOVAI	0x08
000494   5655     movra   0x55             	MOVRA	_GV_BuzzerIndex
                                           ;	.line	3110; "123.c"	DisableBuzzer();
000495   d399     bclr    0x199, 0x1       	BCLR	_OEP2bits,1
                                           ;	.line	3111; "123.c"	GV_BuzzerDuty = 150;
000496   3c96     movai   0x96             	MOVAI	0x96
000497   5656     movra   0x56             	MOVRA	_GV_BuzzerDuty
000498   a4a5     goto    0x4a5            	GOTO	_01163_DS_
                                           _01140_DS_
                                           ;	.line	3114; "123.c"	else if(GV_BuzzerIndex==8)
000499   5855     movar   0x55             	MOVAR	_GV_BuzzerIndex
00049a   3908     xorai   0x8              	XORAI	0x08
00049b   e587     jbset   0x187, 0x2       	JBSET	PFLAG,2
00049c   a4a4     goto    0x4a4            	GOTO	_01137_DS_
                                           ;	.line	3116; "123.c"	if(--GV_BuzzerDuty == 0)
00049d   6e56     decr    0x56             	DECR	_GV_BuzzerDuty
00049e   3c00     movai   0                	MOVAI	0x00
00049f   5c56     orar    0x56             	ORAR	_GV_BuzzerDuty
0004a0   e587     jbset   0x187, 0x2       	JBSET	PFLAG,2
0004a1   a4a5     goto    0x4a5            	GOTO	_01163_DS_
                                           ;	.line	3118; "123.c"	GV_BuzzerIndex = 0;
0004a2   7655     clrr    0x55             	CLRR	_GV_BuzzerIndex
0004a3   a4a5     goto    0x4a5            	GOTO	_01163_DS_
                                           _01137_DS_
                                           ;	.line	3123; "123.c"	GV_BuzzerIndex = 0;
0004a4   7655     clrr    0x55             	CLRR	_GV_BuzzerIndex
                                           _01163_DS_
0004a5   000c     return                   	RETURN	
                                           ; exit point of _Sub_BuzzerBBB
                                           
                                           ;***
                                           ;  pBlock Stats: dbName = C
                                           ;***
                                           ;entry:  _Sub_KeyScan	;Function start
                                           ; 2 exit points
                                           ;has an exit
                                           ;functions called:
                                           ;   _Sub_Up_AlLongKeyGetAlarmSetMode
                                           ;   _Sub_Up_AlShortLongKeyClockSet
                                           ;   _Sub_Up_AlShortLongKeyAlarmSet
                                           ;   _Sub_RealTimeClockAdd
                                           ;   _Sub_SetAlarmAddTimer
                                           ;   _Sub_DownShortLongKeyClockSet
                                           ;   _Sub_DownShortLongKeyAlarmSet
                                           ;   _Sub_RealTimeClockDec
                                           ;   _Sub_SetAlarmDecTimer
                                           ;   _Sub_SetLongKeyGetRealTimeClockSetMode
                                           ;   _Sub_SetKeyRealTimeClockEnter
                                           ;   _Sub_SetKeyAlarmEnter
                                           ;   _Sub_Up_AlLongKeyGetAlarmSetMode
                                           ;   _Sub_Up_AlShortLongKeyClockSet
                                           ;   _Sub_Up_AlShortLongKeyAlarmSet
                                           ;   _Sub_RealTimeClockAdd
                                           ;   _Sub_SetAlarmAddTimer
                                           ;   _Sub_DownShortLongKeyClockSet
                                           ;   _Sub_DownShortLongKeyAlarmSet
                                           ;   _Sub_RealTimeClockDec
                                           ;   _Sub_SetAlarmDecTimer
                                           ;   _Sub_SetLongKeyGetRealTimeClockSetMode
                                           ;   _Sub_SetKeyRealTimeClockEnter
                                           ;   _Sub_SetKeyAlarmEnter
                                           ;1 compiler assigned register :
                                           ;   r0x1063
                                           ;; Starting pCode block
                                           _Sub_KeyScan	;Function start
                                           ; 2 exit points
                                           ;	.line	2682; "123.c"	Nop();
0004a6   0000     nop                      	nop
                                           ;	.line	2683; "123.c"	Nop();
0004a7   0000     nop                      	nop
                                           ;	.line	2684; "123.c"	Nop();
0004a8   0000     nop                      	nop
                                           ;	.line	2685; "123.c"	Nop();
0004a9   0000     nop                      	nop
                                           ;	.line	2686; "123.c"	Nop();
0004aa   0000     nop                      	nop
                                           ;	.line	2687; "123.c"	Nop();
0004ab   0000     nop                      	nop
                                           ;	.line	2688; "123.c"	Nop();
0004ac   0000     nop                      	nop
                                           ;	.line	2689; "123.c"	Nop();
0004ad   0000     nop                      	nop
                                           ;	.line	2690; "123.c"	Nop();
0004ae   0000     nop                      	nop
                                           ;	.line	2691; "123.c"	Nop();
0004af   0000     nop                      	nop
                                           ;	.line	2695; "123.c"	LV_TempB = IOP0;
0004b0   5990     movar   0x190            	MOVAR	_IOP0
0004b1   5619     movra   0x19             	MOVRA	r0x1063
                                           ;	.line	2696; "123.c"	LV_TempB = LV_TempB>>4;
0004b2   4419     swapar  0x19             	SWAPAR	r0x1063
0004b3   3e0f     andai   0xf              	ANDAI	0x0f
0004b4   5619     movra   0x19             	MOVRA	r0x1063
                                           ;	.line	2697; "123.c"	LV_TempB = LV_TempB&0X0C;
0004b5   3c0c     movai   0xc              	MOVAI	0x0c
0004b6   7a19     andra   0x19             	ANDRA	r0x1063
                                           ;	.line	2698; "123.c"	LV_TempB = LV_TempB|IOP2;
0004b7   5998     movar   0x198            	MOVAR	_IOP2
0004b8   5e19     orra    0x19             	ORRA	r0x1063
                                           ;	.line	2699; "123.c"	LV_TempB = LV_TempB<<1;
0004b9   d187     bclr    0x187, 0         	BCLR	PFLAG,0
0004ba   5219     rlr     0x19             	RLR	r0x1063
                                           ;	.line	2700; "123.c"	LV_TempB = LV_TempB & C_KeysNaturalState;//0b0111 1000;
0004bb   3c78     movai   0x78             	MOVAI	0x78
0004bc   7a19     andra   0x19             	ANDRA	r0x1063
                                           ;	.line	2702; "123.c"	if(GV_CurKey != LV_TempB)
0004bd   5819     movar   0x19             	MOVAR	r0x1063
0004be   4051     xorar   0x51             	XORAR	_GV_CurKey
0004bf   e587     jbset   0x187, 0x2       	JBSET	PFLAG,2
0004c0   a4c2     goto    0x4c2            	GOTO	_01119_DS_
0004c1   a4cb     goto    0x4cb            	GOTO	_00993_DS_
                                           _01119_DS_
                                           ;	.line	2704; "123.c"	GV_KeyDebounce = 0;
0004c2   764f     clrr    0x4f             	CLRR	_GV_KeyDebounce
                                           ;	.line	2705; "123.c"	GV_CurKey = LV_TempB;
0004c3   5819     movar   0x19             	MOVAR	r0x1063
0004c4   5651     movra   0x51             	MOVRA	_GV_CurKey
                                           ;	.line	2706; "123.c"	GV_LongKeyTimer = 0;
0004c5   763f     clrr    0x3f             	CLRR	_GV_LongKeyTimer
0004c6   7640     clrr    0x40             	CLRR	(_GV_LongKeyTimer + 1)
                                           ;	.line	2707; "123.c"	BF_Up_AlLongKeyPressesd = 0;
0004c7   da45     bclr    0x45, 0x5        	BCLR	_UserFlag,5
                                           ;	.line	2708; "123.c"	BF_DownLongKeyPressesd = 0;
0004c8   de45     bclr    0x45, 0x7        	BCLR	_UserFlag,7
                                           ;	.line	2709; "123.c"	BF_SetLongKeyPressesd = 0;
0004c9   d246     bclr    0x46, 0x1        	BCLR	_UserFlag1,1
                                           ;	.line	2711; "123.c"	return;
0004ca   a569     goto    0x569            	GOTO	_01061_DS_
                                           _00993_DS_
                                           ;	.line	2714; "123.c"	if(++GV_KeyDebounce < 30) return;  	
0004cb   664f     incr    0x4f             	INCR	_GV_KeyDebounce
                                           ;;unsigned compare: left < lit(0x1E=30), size=1
0004cc   3c1e     movai   0x1e             	MOVAI	0x1e
0004cd   484f     rsubar  0x4f             	RSUBAR	_GV_KeyDebounce
0004ce   f187     jbclr   0x187, 0         	JBCLR	PFLAG,0
0004cf   a4d1     goto    0x4d1            	GOTO	_00995_DS_
                                           ;;genSkipc:3195: created from rifx:00DE608C
0004d0   a569     goto    0x569            	GOTO	_01061_DS_
                                           _00995_DS_
                                           ;	.line	2715; "123.c"	if(GV_PreKey == C_KeysNaturalState)
0004d1   5850     movar   0x50             	MOVAR	_GV_PreKey
0004d2   3978     xorai   0x78             	XORAI	0x78
0004d3   e587     jbset   0x187, 0x2       	JBSET	PFLAG,2
0004d4   a567     goto    0x567            	GOTO	_01060_DS_
                                           ;	.line	2718; "123.c"	if(GV_CurKey == 0x38)//0011 1000 Short/long UP/AL key Pressed,return;
0004d5   5851     movar   0x51             	MOVAR	_GV_CurKey
0004d6   3938     xorai   0x38             	XORAI	0x38
0004d7   e587     jbset   0x187, 0x2       	JBSET	PFLAG,2
0004d8   a4ef     goto    0x4ef            	GOTO	_01015_DS_
                                           ;	.line	2720; "123.c"	if(GV_Mode==0)
0004d9   3c00     movai   0                	MOVAI	0x00
0004da   5c52     orar    0x52             	ORAR	_GV_Mode
0004db   e587     jbset   0x187, 0x2       	JBSET	PFLAG,2
0004dc   a4df     goto    0x4df            	GOTO	_01002_DS_
                                           ;	.line	2722; "123.c"	Sub_Up_AlLongKeyGetAlarmSetMode();//Long key return
0004dd   8a9a     call    0xa9a            	CALL	_Sub_Up_AlLongKeyGetAlarmSetMode
                                           ;	.line	2723; "123.c"	return;	 
0004de   a569     goto    0x569            	GOTO	_01061_DS_
                                           _01002_DS_
                                           ;	.line	2725; "123.c"	else if(GV_Mode==1)
0004df   5852     movar   0x52             	MOVAR	_GV_Mode
0004e0   3901     xorai   0x1              	XORAI	0x01
0004e1   e587     jbset   0x187, 0x2       	JBSET	PFLAG,2
0004e2   a4e7     goto    0x4e7            	GOTO	_00999_DS_
                                           ;	.line	2727; "123.c"	GV_15sNoOperationCnt = C_15sNoOperationCnt;
0004e3   3c1e     movai   0x1e             	MOVAI	0x1e
0004e4   5677     movra   0x77             	MOVRA	_GV_15sNoOperationCnt
                                           ;	.line	2728; "123.c"	Sub_Up_AlShortLongKeyClockSet();//Long/Short key return
0004e5   88f1     call    0x8f1            	CALL	_Sub_Up_AlShortLongKeyClockSet
                                           ;	.line	2729; "123.c"	return;	 
0004e6   a569     goto    0x569            	GOTO	_01061_DS_
                                           _00999_DS_
                                           ;	.line	2731; "123.c"	else if(GV_Mode==2)
0004e7   5852     movar   0x52             	MOVAR	_GV_Mode
0004e8   3902     xorai   0x2              	XORAI	0x02
0004e9   e587     jbset   0x187, 0x2       	JBSET	PFLAG,2
0004ea   a505     goto    0x505            	GOTO	_01016_DS_
                                           ;	.line	2733; "123.c"	GV_15sNoOperationCnt = C_15sNoOperationCnt;
0004eb   3c1e     movai   0x1e             	MOVAI	0x1e
0004ec   5677     movra   0x77             	MOVRA	_GV_15sNoOperationCnt
                                           ;	.line	2734; "123.c"	Sub_Up_AlShortLongKeyAlarmSet();//Long/Short key return
0004ed   8a23     call    0xa23            	CALL	_Sub_Up_AlShortLongKeyAlarmSet
                                           ;	.line	2735; "123.c"	return;	
0004ee   a569     goto    0x569            	GOTO	_01061_DS_
                                           _01015_DS_
                                           ;	.line	2765; "123.c"	if(BF_Up_AlKeyPressesd)
0004ef   e845     jbset   0x45, 0x4        	JBSET	_UserFlag,4
0004f0   a505     goto    0x505            	GOTO	_01016_DS_
                                           ;	.line	2767; "123.c"	BF_Up_AlKeyPressesd = 0;
0004f1   d845     bclr    0x45, 0x4        	BCLR	_UserFlag,4
                                           ;	.line	2768; "123.c"	if(GV_Mode==0)
0004f2   3c00     movai   0                	MOVAI	0x00
0004f3   5c52     orar    0x52             	ORAR	_GV_Mode
0004f4   f587     jbclr   0x187, 0x2       	JBCLR	PFLAG,2
0004f5   a505     goto    0x505            	GOTO	_01016_DS_
                                           ;	.line	2772; "123.c"	else if(GV_Mode==1)
0004f6   5852     movar   0x52             	MOVAR	_GV_Mode
0004f7   3901     xorai   0x1              	XORAI	0x01
0004f8   e587     jbset   0x187, 0x2       	JBSET	PFLAG,2
0004f9   a4fe     goto    0x4fe            	GOTO	_01007_DS_
                                           ;	.line	2774; "123.c"	GV_15sNoOperationCnt = C_15sNoOperationCnt;
0004fa   3c1e     movai   0x1e             	MOVAI	0x1e
0004fb   5677     movra   0x77             	MOVRA	_GV_15sNoOperationCnt
                                           ;	.line	2775; "123.c"	Sub_RealTimeClockAdd();	//Long/Short key return	 
0004fc   8915     call    0x915            	CALL	_Sub_RealTimeClockAdd
0004fd   a505     goto    0x505            	GOTO	_01016_DS_
                                           _01007_DS_
                                           ;	.line	2777; "123.c"	else if(GV_Mode==2)
0004fe   5852     movar   0x52             	MOVAR	_GV_Mode
0004ff   3902     xorai   0x2              	XORAI	0x02
000500   e587     jbset   0x187, 0x2       	JBSET	PFLAG,2
000501   a505     goto    0x505            	GOTO	_01016_DS_
                                           ;	.line	2779; "123.c"	GV_15sNoOperationCnt = C_15sNoOperationCnt;
000502   3c1e     movai   0x1e             	MOVAI	0x1e
000503   5677     movra   0x77             	MOVRA	_GV_15sNoOperationCnt
                                           ;	.line	2780; "123.c"	Sub_SetAlarmAddTimer();	//Long/Short key return
000504   8a64     call    0xa64            	CALL	_Sub_SetAlarmAddTimer
                                           _01016_DS_
                                           ;	.line	2807; "123.c"	if(GV_CurKey == 0x58)//0101 1000 ShortKey,no return;
000505   5851     movar   0x51             	MOVAR	_GV_CurKey
000506   3958     xorai   0x58             	XORAI	0x58
000507   e587     jbset   0x187, 0x2       	JBSET	PFLAG,2
000508   a51d     goto    0x51d            	GOTO	_01036_DS_
                                           ;	.line	2809; "123.c"	if(GV_Mode==0)
000509   3c00     movai   0                	MOVAI	0x00
00050a   5c52     orar    0x52             	ORAR	_GV_Mode
00050b   f587     jbclr   0x187, 0x2       	JBCLR	PFLAG,2
00050c   a533     goto    0x533            	GOTO	_01037_DS_
                                           ;	.line	2813; "123.c"	else if(GV_Mode==1)
00050d   5852     movar   0x52             	MOVAR	_GV_Mode
00050e   3901     xorai   0x1              	XORAI	0x01
00050f   e587     jbset   0x187, 0x2       	JBSET	PFLAG,2
000510   a515     goto    0x515            	GOTO	_01020_DS_
                                           ;	.line	2815; "123.c"	GV_15sNoOperationCnt = C_15sNoOperationCnt;
000511   3c1e     movai   0x1e             	MOVAI	0x1e
000512   5677     movra   0x77             	MOVRA	_GV_15sNoOperationCnt
                                           ;	.line	2816; "123.c"	Sub_DownShortLongKeyClockSet();//Long/Short key return
000513   872a     call    0x72a            	CALL	_Sub_DownShortLongKeyClockSet
                                           ;	.line	2817; "123.c"	return;	
000514   a569     goto    0x569            	GOTO	_01061_DS_
                                           _01020_DS_
                                           ;	.line	2819; "123.c"	else if(GV_Mode==2)
000515   5852     movar   0x52             	MOVAR	_GV_Mode
000516   3902     xorai   0x2              	XORAI	0x02
000517   e587     jbset   0x187, 0x2       	JBSET	PFLAG,2
000518   a533     goto    0x533            	GOTO	_01037_DS_
                                           ;	.line	2821; "123.c"	GV_15sNoOperationCnt = C_15sNoOperationCnt;
000519   3c1e     movai   0x1e             	MOVAI	0x1e
00051a   5677     movra   0x77             	MOVRA	_GV_15sNoOperationCnt
                                           ;	.line	2822; "123.c"	Sub_DownShortLongKeyAlarmSet();//Long/Short key return
00051b   888f     call    0x88f            	CALL	_Sub_DownShortLongKeyAlarmSet
                                           ;	.line	2823; "123.c"	return;	
00051c   a569     goto    0x569            	GOTO	_01061_DS_
                                           _01036_DS_
                                           ;	.line	2852; "123.c"	if(BF_DownKeyPressesd)
00051d   ec45     jbset   0x45, 0x6        	JBSET	_UserFlag,6
00051e   a533     goto    0x533            	GOTO	_01037_DS_
                                           ;	.line	2854; "123.c"	BF_DownKeyPressesd = 0;
00051f   dc45     bclr    0x45, 0x6        	BCLR	_UserFlag,6
                                           ;	.line	2856; "123.c"	if(GV_Mode==0)
000520   3c00     movai   0                	MOVAI	0x00
000521   5c52     orar    0x52             	ORAR	_GV_Mode
000522   f587     jbclr   0x187, 0x2       	JBCLR	PFLAG,2
000523   a533     goto    0x533            	GOTO	_01037_DS_
                                           ;	.line	2860; "123.c"	else if(GV_Mode==1)
000524   5852     movar   0x52             	MOVAR	_GV_Mode
000525   3901     xorai   0x1              	XORAI	0x01
000526   e587     jbset   0x187, 0x2       	JBSET	PFLAG,2
000527   a52c     goto    0x52c            	GOTO	_01028_DS_
                                           ;	.line	2862; "123.c"	GV_15sNoOperationCnt = C_15sNoOperationCnt;
000528   3c1e     movai   0x1e             	MOVAI	0x1e
000529   5677     movra   0x77             	MOVRA	_GV_15sNoOperationCnt
                                           ;	.line	2863; "123.c"	Sub_RealTimeClockDec();	//Long/Short key return	
00052a   874e     call    0x74e            	CALL	_Sub_RealTimeClockDec
00052b   a533     goto    0x533            	GOTO	_01037_DS_
                                           _01028_DS_
                                           ;	.line	2865; "123.c"	else if(GV_Mode==2)
00052c   5852     movar   0x52             	MOVAR	_GV_Mode
00052d   3902     xorai   0x2              	XORAI	0x02
00052e   e587     jbset   0x187, 0x2       	JBSET	PFLAG,2
00052f   a533     goto    0x533            	GOTO	_01037_DS_
                                           ;	.line	2867; "123.c"	GV_15sNoOperationCnt = C_15sNoOperationCnt;
000530   3c1e     movai   0x1e             	MOVAI	0x1e
000531   5677     movra   0x77             	MOVRA	_GV_15sNoOperationCnt
                                           ;	.line	2868; "123.c"	Sub_SetAlarmDecTimer();	//Long/Short key return	
000532   88b3     call    0x8b3            	CALL	_Sub_SetAlarmDecTimer
                                           _01037_DS_
                                           ;	.line	2892; "123.c"	if(GV_CurKey == 0x68)//0110 1000 ShortKey,no return;
000533   5851     movar   0x51             	MOVAR	_GV_CurKey
000534   3968     xorai   0x68             	XORAI	0x68
000535   e587     jbset   0x187, 0x2       	JBSET	PFLAG,2
000536   a54c     goto    0x54c            	GOTO	_01047_DS_
                                           ;	.line	2894; "123.c"	if(GV_Mode==0)
000537   3c00     movai   0                	MOVAI	0x00
000538   5c52     orar    0x52             	ORAR	_GV_Mode
000539   e587     jbset   0x187, 0x2       	JBSET	PFLAG,2
00053a   a53d     goto    0x53d            	GOTO	_01044_DS_
                                           ;	.line	2896; "123.c"	Sub_SetLongKeyGetRealTimeClockSetMode();
00053b   86ee     call    0x6ee            	CALL	_Sub_SetLongKeyGetRealTimeClockSetMode
                                           ;	.line	2897; "123.c"	return;
00053c   a569     goto    0x569            	GOTO	_01061_DS_
                                           _01044_DS_
                                           ;	.line	2899; "123.c"	else if(GV_Mode==1)
00053d   5852     movar   0x52             	MOVAR	_GV_Mode
00053e   3901     xorai   0x1              	XORAI	0x01
00053f   e587     jbset   0x187, 0x2       	JBSET	PFLAG,2
000540   a545     goto    0x545            	GOTO	_01041_DS_
                                           ;	.line	2901; "123.c"	GV_15sNoOperationCnt = C_15sNoOperationCnt;
000541   3c1e     movai   0x1e             	MOVAI	0x1e
000542   5677     movra   0x77             	MOVRA	_GV_15sNoOperationCnt
                                           ;	.line	2902; "123.c"	Sub_SetKeyRealTimeClockEnter();//Long/Short key return 	
000543   85b1     call    0x5b1            	CALL	_Sub_SetKeyRealTimeClockEnter
000544   a54c     goto    0x54c            	GOTO	_01047_DS_
                                           _01041_DS_
                                           ;	.line	2904; "123.c"	else if(GV_Mode==2)
000545   5852     movar   0x52             	MOVAR	_GV_Mode
000546   3902     xorai   0x2              	XORAI	0x02
000547   e587     jbset   0x187, 0x2       	JBSET	PFLAG,2
000548   a54c     goto    0x54c            	GOTO	_01047_DS_
                                           ;	.line	2906; "123.c"	GV_15sNoOperationCnt = C_15sNoOperationCnt;
000549   3c1e     movai   0x1e             	MOVAI	0x1e
00054a   5677     movra   0x77             	MOVRA	_GV_15sNoOperationCnt
                                           ;	.line	2907; "123.c"	Sub_SetKeyAlarmEnter();//Long/Short key return 	
00054b   856a     call    0x56a            	CALL	_Sub_SetKeyAlarmEnter
                                           _01047_DS_
                                           ;	.line	2935; "123.c"	if(GV_CurKey == 0x70)//0111 0000 ShortKey,no return;
00054c   5851     movar   0x51             	MOVAR	_GV_CurKey
00054d   3970     xorai   0x70             	XORAI	0x70
00054e   e587     jbset   0x187, 0x2       	JBSET	PFLAG,2
00054f   a567     goto    0x567            	GOTO	_01060_DS_
                                           ;	.line	2937; "123.c"	if(BF_BuzzerBBB)
000550   e846     jbset   0x46, 0x4        	JBSET	_UserFlag1,4
000551   a55d     goto    0x55d            	GOTO	_01055_DS_
                                           ;	.line	2939; "123.c"	BF_BuzzerBBB = 0;
000552   d846     bclr    0x46, 0x4        	BCLR	_UserFlag1,4
                                           ;	.line	2940; "123.c"	GV_BuzzerIndex = 0;
000553   7655     clrr    0x55             	CLRR	_GV_BuzzerIndex
                                           ;	.line	2941; "123.c"	GV_BuzzerDuty = 0;
000554   7656     clrr    0x56             	CLRR	_GV_BuzzerDuty
                                           ;	.line	2942; "123.c"	DisableBuzzer();
000555   d399     bclr    0x199, 0x1       	BCLR	_OEP2bits,1
                                           ;	.line	2943; "123.c"	if(GV_SnoozeTimer == 0)
000556   3c00     movai   0                	MOVAI	0x00
000557   5c79     orar    0x79             	ORAR	_GV_SnoozeTimer
000558   e587     jbset   0x187, 0x2       	JBSET	PFLAG,2
000559   a567     goto    0x567            	GOTO	_01060_DS_
                                           ;	.line	2945; "123.c"	GV_SnoozeTimer = C_SnoozeTimer;//0.5s*120=60s
00055a   3c78     movai   0x78             	MOVAI	0x78
00055b   5679     movra   0x79             	MOVRA	_GV_SnoozeTimer
00055c   a567     goto    0x567            	GOTO	_01060_DS_
                                           _01055_DS_
                                           ;	.line	2950; "123.c"	if(GV_Mode == 0)
00055d   3c00     movai   0                	MOVAI	0x00
00055e   5c52     orar    0x52             	ORAR	_GV_Mode
00055f   e587     jbset   0x187, 0x2       	JBSET	PFLAG,2
000560   a567     goto    0x567            	GOTO	_01060_DS_
                                           ;	.line	2952; "123.c"	if(++GV_DisplayBrightnessLevel > 2)//3
000561   6678     incr    0x78             	INCR	_GV_DisplayBrightnessLevel
                                           ;;swapping arguments (AOP_TYPEs 1/3)
                                           ;;unsigned compare: left >= lit(0x3=3), size=1
000562   3c03     movai   0x3              	MOVAI	0x03
000563   4878     rsubar  0x78             	RSUBAR	_GV_DisplayBrightnessLevel
000564   e187     jbset   0x187, 0         	JBSET	PFLAG,0
000565   a567     goto    0x567            	GOTO	_01060_DS_
                                           ;;genSkipc:3195: created from rifx:00DE608C
                                           ;	.line	2954; "123.c"	GV_DisplayBrightnessLevel = 0;
000566   7678     clrr    0x78             	CLRR	_GV_DisplayBrightnessLevel
                                           _01060_DS_
                                           ;	.line	2962; "123.c"	GV_PreKey = GV_CurKey; 	
000567   5851     movar   0x51             	MOVAR	_GV_CurKey
000568   5650     movra   0x50             	MOVRA	_GV_PreKey
                                           _01061_DS_
000569   000c     return                   	RETURN	
                                           ; exit point of _Sub_KeyScan
                                           
                                           ;***
                                           ;  pBlock Stats: dbName = C
                                           ;***
                                           ;entry:  _Sub_SetKeyAlarmEnter	;Function start
                                           ; 2 exit points
                                           ;has an exit
                                           ;2 compiler assigned registers:
                                           ;   r0x105A
                                           ;   r0x105B
                                           ;; Starting pCode block
                                           _Sub_SetKeyAlarmEnter	;Function start
                                           ; 2 exit points
                                           ;	.line	2589; "123.c"	if(GV_AlarmClockSetStep==0)
00056a   3c00     movai   0                	MOVAI	0x00
00056b   5c54     orar    0x54             	ORAR	_GV_AlarmClockSetStep
00056c   e587     jbset   0x187, 0x2       	JBSET	PFLAG,2
00056d   a58e     goto    0x58e            	GOTO	_00985_DS_
                                           ;	.line	2591; "123.c"	BF_RunAlarmOnOff = BF_SetAlarmOnOff;
00056e   760e     clrr    0xe              	CLRR	r0x105A
00056f   fa46     jbclr   0x46, 0x5        	JBCLR	_UserFlag1,5
000570   660e     incr    0xe              	INCR	r0x105A
000571   580e     movar   0xe              	MOVAR	r0x105A
000572   560f     movra   0xf              	MOVRA	r0x105B
000573   4c0f     rrar    0xf              	RRAR	r0x105B
000574   e187     jbset   0x187, 0         	JBSET	PFLAG,0
000575   dc46     bclr    0x46, 0x6        	BCLR	_UserFlag1,6
000576   f187     jbclr   0x187, 0         	JBCLR	PFLAG,0
000577   cc46     bset    0x46, 0x6        	BSET	_UserFlag1,6
                                           ;	.line	2592; "123.c"	if(BF_RunAlarmOnOff)//0 = Run alarm off; 1 = Run alarm on
000578   ec46     jbset   0x46, 0x6        	JBSET	_UserFlag1,6
000579   a58a     goto    0x58a            	GOTO	_00977_DS_
                                           ;	.line	2594; "123.c"	GV_SetAlarmClockHrSingleDig = GV_RunAlarmClockHrSingleDig;
00057a   5873     movar   0x73             	MOVAR	_GV_RunAlarmClockHrSingleDig
00057b   566f     movra   0x6f             	MOVRA	_GV_SetAlarmClockHrSingleDig
                                           ;	.line	2595; "123.c"	GV_SetAlarmClockHrTenDig = GV_RunAlarmClockHrTenDig;
00057c   5874     movar   0x74             	MOVAR	_GV_RunAlarmClockHrTenDig
00057d   5670     movra   0x70             	MOVRA	_GV_SetAlarmClockHrTenDig
                                           ;	.line	2596; "123.c"	BF_SetAlarmAM_PM = BF_RunAlarmAM_PM;
00057e   760e     clrr    0xe              	CLRR	r0x105A
00057f   f646     jbclr   0x46, 0x3        	JBCLR	_UserFlag1,3
000580   660e     incr    0xe              	INCR	r0x105A
000581   580e     movar   0xe              	MOVAR	r0x105A
000582   560f     movra   0xf              	MOVRA	r0x105B
000583   4c0f     rrar    0xf              	RRAR	r0x105B
000584   e187     jbset   0x187, 0         	JBSET	PFLAG,0
000585   d446     bclr    0x46, 0x2        	BCLR	_UserFlag1,2
000586   f187     jbclr   0x187, 0         	JBCLR	PFLAG,0
000587   c446     bset    0x46, 0x2        	BSET	_UserFlag1,2
                                           ;	.line	2597; "123.c"	GV_AlarmClockSetStep++;
000588   6654     incr    0x54             	INCR	_GV_AlarmClockSetStep
000589   a58b     goto    0x58b            	GOTO	_00978_DS_
                                           _00977_DS_
                                           ;	.line	2601; "123.c"	GV_Mode = 0;//0=Normal mode;mode;
00058a   7652     clrr    0x52             	CLRR	_GV_Mode
                                           _00978_DS_
                                           ;	.line	2603; "123.c"	GV_PreKey = GV_CurKey;     	   	
00058b   5851     movar   0x51             	MOVAR	_GV_CurKey
00058c   5650     movra   0x50             	MOVRA	_GV_PreKey
00058d   a5b0     goto    0x5b0            	GOTO	_00987_DS_
                                           _00985_DS_
                                           ;	.line	2605; "123.c"	else if(GV_AlarmClockSetStep==1)
00058e   5854     movar   0x54             	MOVAR	_GV_AlarmClockSetStep
00058f   3901     xorai   0x1              	XORAI	0x01
000590   e587     jbset   0x187, 0x2       	JBSET	PFLAG,2
000591   a5a6     goto    0x5a6            	GOTO	_00982_DS_
                                           ;	.line	2607; "123.c"	GV_RunAlarmClockHrSingleDig = GV_SetAlarmClockHrSingleDig;
000592   586f     movar   0x6f             	MOVAR	_GV_SetAlarmClockHrSingleDig
000593   5673     movra   0x73             	MOVRA	_GV_RunAlarmClockHrSingleDig
                                           ;	.line	2608; "123.c"	GV_RunAlarmClockHrTenDig = GV_SetAlarmClockHrTenDig;
000594   5870     movar   0x70             	MOVAR	_GV_SetAlarmClockHrTenDig
000595   5674     movra   0x74             	MOVRA	_GV_RunAlarmClockHrTenDig
                                           ;	.line	2609; "123.c"	BF_RunAlarmAM_PM = BF_SetAlarmAM_PM;
000596   760e     clrr    0xe              	CLRR	r0x105A
000597   f446     jbclr   0x46, 0x2        	JBCLR	_UserFlag1,2
000598   660e     incr    0xe              	INCR	r0x105A
000599   580e     movar   0xe              	MOVAR	r0x105A
00059a   560f     movra   0xf              	MOVRA	r0x105B
00059b   4c0f     rrar    0xf              	RRAR	r0x105B
00059c   e187     jbset   0x187, 0         	JBSET	PFLAG,0
00059d   d646     bclr    0x46, 0x3        	BCLR	_UserFlag1,3
00059e   f187     jbclr   0x187, 0         	JBCLR	PFLAG,0
00059f   c646     bset    0x46, 0x3        	BSET	_UserFlag1,3
                                           ;	.line	2611; "123.c"	GV_SetAlarmClockMinSingleDig = GV_RunAlarmClockMinSingleDig;
0005a0   5875     movar   0x75             	MOVAR	_GV_RunAlarmClockMinSingleDig
0005a1   5671     movra   0x71             	MOVRA	_GV_SetAlarmClockMinSingleDig
                                           ;	.line	2612; "123.c"	GV_SetAlarmClockMinTenDig = GV_RunAlarmClockMinTenDig;
0005a2   5876     movar   0x76             	MOVAR	_GV_RunAlarmClockMinTenDig
0005a3   5672     movra   0x72             	MOVRA	_GV_SetAlarmClockMinTenDig
                                           ;	.line	2613; "123.c"	GV_AlarmClockSetStep++;    	   	
0005a4   6654     incr    0x54             	INCR	_GV_AlarmClockSetStep
0005a5   a5b0     goto    0x5b0            	GOTO	_00987_DS_
                                           _00982_DS_
                                           ;	.line	2615; "123.c"	else if(GV_AlarmClockSetStep==2)
0005a6   5854     movar   0x54             	MOVAR	_GV_AlarmClockSetStep
0005a7   3902     xorai   0x2              	XORAI	0x02
0005a8   e587     jbset   0x187, 0x2       	JBSET	PFLAG,2
0005a9   a5b0     goto    0x5b0            	GOTO	_00987_DS_
                                           ;	.line	2617; "123.c"	GV_RunAlarmClockMinSingleDig = GV_SetAlarmClockMinSingleDig;
0005aa   5871     movar   0x71             	MOVAR	_GV_SetAlarmClockMinSingleDig
0005ab   5675     movra   0x75             	MOVRA	_GV_RunAlarmClockMinSingleDig
                                           ;	.line	2618; "123.c"	GV_RunAlarmClockMinTenDig = GV_SetAlarmClockMinTenDig;
0005ac   5872     movar   0x72             	MOVAR	_GV_SetAlarmClockMinTenDig
0005ad   5676     movra   0x76             	MOVRA	_GV_RunAlarmClockMinTenDig
                                           ;	.line	2619; "123.c"	GV_Mode = 0;//0=Normal mode;mode;
0005ae   7652     clrr    0x52             	CLRR	_GV_Mode
                                           ;	.line	2620; "123.c"	GV_AlarmClockSetStep = 0;      	   	
0005af   7654     clrr    0x54             	CLRR	_GV_AlarmClockSetStep
                                           _00987_DS_
0005b0   000c     return                   	RETURN	
                                           ; exit point of _Sub_SetKeyAlarmEnter
                                           
                                           ;***
                                           ;  pBlock Stats: dbName = C
                                           ;***
                                           ;entry:  _Sub_SetKeyRealTimeClockEnter	;Function start
                                           ; 2 exit points
                                           ;has an exit
                                           ;functions called:
                                           ;   _Sub_Write1302
                                           ;   _Sub_Write1302
                                           ;   _Sub_Write1302
                                           ;   _Sub_Write1302
                                           ;   _Sub_Write1302
                                           ;   _Sub_Write1302
                                           ;   _Sub_Read1302
                                           ;   __mulchar
                                           ;   _Sub_Read1302
                                           ;   __mulchar
                                           ;   _Sub_Read1302
                                           ;   __mulchar
                                           ;   _Sub_Write1302
                                           ;   _Sub_Write1302
                                           ;   _Sub_Write1302
                                           ;   _Sub_Write1302
                                           ;   _Sub_Write1302
                                           ;   _Sub_Write1302
                                           ;   _Sub_Write1302
                                           ;   _Sub_Write1302
                                           ;   _Sub_Write1302
                                           ;   _Sub_Write1302
                                           ;   _Sub_Write1302
                                           ;   _Sub_Write1302
                                           ;   _Sub_Write1302
                                           ;   _Sub_Write1302
                                           ;   _Sub_Write1302
                                           ;   _Sub_Read1302
                                           ;   __mulchar
                                           ;   _Sub_Read1302
                                           ;   __mulchar
                                           ;   _Sub_Read1302
                                           ;   __mulchar
                                           ;   _Sub_Write1302
                                           ;   _Sub_Write1302
                                           ;   _Sub_Write1302
                                           ;   _Sub_Write1302
                                           ;   _Sub_Write1302
                                           ;   _Sub_Write1302
                                           ;   _Sub_Write1302
                                           ;   _Sub_Write1302
                                           ;   _Sub_Write1302
                                           ;7 compiler assigned registers:
                                           ;   r0x105D
                                           ;   STK00
                                           ;   r0x105E
                                           ;   r0x105F
                                           ;   r0x1060
                                           ;   r0x1061
                                           ;   r0x1062
                                           ;; Starting pCode block
                                           _Sub_SetKeyRealTimeClockEnter	;Function start
                                           ; 2 exit points
                                           ;	.line	2131; "123.c"	if(GV_RealTimeClockSetStep==0)
0005b1   3c00     movai   0                	MOVAI	0x00
0005b2   5c53     orar    0x53             	ORAR	_GV_RealTimeClockSetStep
0005b3   e587     jbset   0x187, 0x2       	JBSET	PFLAG,2
0005b4   a5d0     goto    0x5d0            	GOTO	_00907_DS_
                                           ;	.line	2133; "123.c"	LV_TenTemp = GV_SetYearTenDig;
0005b5   585a     movar   0x5a             	MOVAR	_GV_SetYearTenDig
0005b6   5613     movra   0x13             	MOVRA	r0x105D
                                           ;	.line	2134; "123.c"	LV_TenTemp <<= 4;
0005b7   4413     swapar  0x13             	SWAPAR	r0x105D
0005b8   3ef0     andai   0xf0             	ANDAI	0xf0
0005b9   5613     movra   0x13             	MOVRA	r0x105D
                                           ;	.line	2135; "123.c"	GV_GetByteFromDs1302 = (GV_SetYearSingleDig | LV_TenTemp);
0005ba   5813     movar   0x13             	MOVAR	r0x105D
0005bb   5c59     orar    0x59             	ORAR	_GV_SetYearSingleDig
0005bc   5657     movra   0x57             	MOVRA	_GV_GetByteFromDs1302
                                           ;	.line	2136; "123.c"	Sub_Write1302(C_DS1302_WriteProtect,C_DS1302_DisableWriteProtect); //Disable write protect
0005bd   3c00     movai   0                	MOVAI	0x00
0005be   5606     movra   0x6              	MOVRA	STK00
0005bf   3c8e     movai   0x8e             	MOVAI	0x8e
0005c0   8b6d     call    0xb6d            	CALL	_Sub_Write1302
                                           ;	.line	2137; "123.c"	Nop();
0005c1   0000     nop                      	nop
                                           ;	.line	2138; "123.c"	Nop();
0005c2   0000     nop                      	nop
                                           ;	.line	2139; "123.c"	Sub_Write1302(C_DS1302_Year,GV_GetByteFromDs1302); 	   	
0005c3   5857     movar   0x57             	MOVAR	_GV_GetByteFromDs1302
0005c4   5606     movra   0x6              	MOVRA	STK00
0005c5   3c8c     movai   0x8c             	MOVAI	0x8c
0005c6   8b6d     call    0xb6d            	CALL	_Sub_Write1302
                                           ;	.line	2140; "123.c"	Nop();
0005c7   0000     nop                      	nop
                                           ;	.line	2141; "123.c"	Nop();
0005c8   0000     nop                      	nop
                                           ;	.line	2142; "123.c"	Sub_Write1302(C_DS1302_WriteProtect,C_DS1302_EnableWriteProtect); //Enable write protect
0005c9   3c80     movai   0x80             	MOVAI	0x80
0005ca   5606     movra   0x6              	MOVRA	STK00
0005cb   3c8e     movai   0x8e             	MOVAI	0x8e
0005cc   8b6d     call    0xb6d            	CALL	_Sub_Write1302
                                           ;	.line	2143; "123.c"	Nop();
0005cd   0000     nop                      	nop
                                           ;	.line	2144; "123.c"	Nop();     	   	
0005ce   0000     nop                      	nop
0005cf   a6e6     goto    0x6e6            	GOTO	_00908_DS_
                                           _00907_DS_
                                           ;	.line	2146; "123.c"	else if(GV_RealTimeClockSetStep==1)
0005d0   5853     movar   0x53             	MOVAR	_GV_RealTimeClockSetStep
0005d1   3901     xorai   0x1              	XORAI	0x01
0005d2   e587     jbset   0x187, 0x2       	JBSET	PFLAG,2
0005d3   a684     goto    0x684            	GOTO	_00904_DS_
                                           ;	.line	2148; "123.c"	LV_TenTemp = GV_SetMonthTenDig;
0005d4   5860     movar   0x60             	MOVAR	_GV_SetMonthTenDig
0005d5   5613     movra   0x13             	MOVRA	r0x105D
                                           ;	.line	2149; "123.c"	LV_TenTemp <<= 4;
0005d6   4413     swapar  0x13             	SWAPAR	r0x105D
0005d7   3ef0     andai   0xf0             	ANDAI	0xf0
0005d8   5613     movra   0x13             	MOVRA	r0x105D
                                           ;	.line	2150; "123.c"	GV_GetByteFromDs1302 = (GV_SetMonthSingleDig | LV_TenTemp);
0005d9   5813     movar   0x13             	MOVAR	r0x105D
0005da   5c5f     orar    0x5f             	ORAR	_GV_SetMonthSingleDig
0005db   5657     movra   0x57             	MOVRA	_GV_GetByteFromDs1302
                                           ;	.line	2151; "123.c"	Sub_Write1302(C_DS1302_WriteProtect,C_DS1302_DisableWriteProtect); //Disable write protect
0005dc   3c00     movai   0                	MOVAI	0x00
0005dd   5606     movra   0x6              	MOVRA	STK00
0005de   3c8e     movai   0x8e             	MOVAI	0x8e
0005df   8b6d     call    0xb6d            	CALL	_Sub_Write1302
                                           ;	.line	2152; "123.c"	Nop();
0005e0   0000     nop                      	nop
                                           ;	.line	2153; "123.c"	Nop();
0005e1   0000     nop                      	nop
                                           ;	.line	2154; "123.c"	Sub_Write1302(C_DS1302_Month,GV_GetByteFromDs1302);	   	
0005e2   5857     movar   0x57             	MOVAR	_GV_GetByteFromDs1302
0005e3   5606     movra   0x6              	MOVRA	STK00
0005e4   3c88     movai   0x88             	MOVAI	0x88
0005e5   8b6d     call    0xb6d            	CALL	_Sub_Write1302
                                           ;	.line	2155; "123.c"	Nop();
0005e6   0000     nop                      	nop
                                           ;	.line	2156; "123.c"	Nop();
0005e7   0000     nop                      	nop
                                           ;	.line	2157; "123.c"	Sub_Write1302(C_DS1302_WriteProtect,C_DS1302_EnableWriteProtect); //Enable write protect
0005e8   3c80     movai   0x80             	MOVAI	0x80
0005e9   5606     movra   0x6              	MOVRA	STK00
0005ea   3c8e     movai   0x8e             	MOVAI	0x8e
0005eb   8b6d     call    0xb6d            	CALL	_Sub_Write1302
                                           ;	.line	2158; "123.c"	Nop();
0005ec   0000     nop                      	nop
                                           ;	.line	2159; "123.c"	Nop();
0005ed   0000     nop                      	nop
                                           ;	.line	2161; "123.c"	Sub_Read1302(C_DS1302_Year);//C_DS1302_Year
0005ee   3c8c     movai   0x8c             	MOVAI	0x8c
0005ef   8b9b     call    0xb9b            	CALL	_Sub_Read1302
                                           ;	.line	2162; "123.c"	LV_TempA = GV_GetByteFromDs1302;
0005f0   5857     movar   0x57             	MOVAR	_GV_GetByteFromDs1302
0005f1   5614     movra   0x14             	MOVRA	r0x105E
                                           ;	.line	2163; "123.c"	LV_TempB = (LV_TempA>>4)*10;//BCD_TO_HEX
0005f2   4414     swapar  0x14             	SWAPAR	r0x105E
0005f3   3e0f     andai   0xf              	ANDAI	0x0f
0005f4   5615     movra   0x15             	MOVRA	r0x105F
0005f5   3c0a     movai   0xa              	MOVAI	0x0a
0005f6   5606     movra   0x6              	MOVRA	STK00
0005f7   5815     movar   0x15             	MOVAR	r0x105F
0005f8   8bf2     call    0xbf2            	CALL	__mulchar
0005f9   5616     movra   0x16             	MOVRA	r0x1060
                                           ;	.line	2164; "123.c"	LV_TempYear = LV_TempA & 0x0f;
0005fa   3c0f     movai   0xf              	MOVAI	0x0f
0005fb   7814     andar   0x14             	ANDAR	r0x105E
0005fc   5615     movra   0x15             	MOVRA	r0x105F
                                           ;	.line	2165; "123.c"	LV_TempYear = LV_TempYear + LV_TempB;
0005fd   5816     movar   0x16             	MOVAR	r0x1060
0005fe   7e15     addra   0x15             	ADDRA	r0x105F
                                           ;	.line	2167; "123.c"	Sub_Read1302(C_DS1302_Month);//C_DS1302_Month
0005ff   3c88     movai   0x88             	MOVAI	0x88
000600   8b9b     call    0xb9b            	CALL	_Sub_Read1302
                                           ;	.line	2168; "123.c"	LV_TempA = GV_GetByteFromDs1302;
000601   5857     movar   0x57             	MOVAR	_GV_GetByteFromDs1302
000602   5614     movra   0x14             	MOVRA	r0x105E
                                           ;	.line	2169; "123.c"	LV_TempB = (LV_TempA>>4)*10;//BCD_TO_HEX
000603   4414     swapar  0x14             	SWAPAR	r0x105E
000604   3e0f     andai   0xf              	ANDAI	0x0f
000605   5617     movra   0x17             	MOVRA	r0x1061
000606   3c0a     movai   0xa              	MOVAI	0x0a
000607   5606     movra   0x6              	MOVRA	STK00
000608   5817     movar   0x17             	MOVAR	r0x1061
000609   8bf2     call    0xbf2            	CALL	__mulchar
00060a   5616     movra   0x16             	MOVRA	r0x1060
                                           ;	.line	2170; "123.c"	LV_TempMonth = LV_TempA & 0x0f;
00060b   3c0f     movai   0xf              	MOVAI	0x0f
00060c   7814     andar   0x14             	ANDAR	r0x105E
00060d   5617     movra   0x17             	MOVRA	r0x1061
                                           ;	.line	2171; "123.c"	LV_TempMonth = LV_TempMonth + LV_TempB;
00060e   5816     movar   0x16             	MOVAR	r0x1060
00060f   7e17     addra   0x17             	ADDRA	r0x1061
                                           ;	.line	2173; "123.c"	Sub_Read1302(C_DS1302_Day);//C_DS1302_Day
000610   3c86     movai   0x86             	MOVAI	0x86
000611   8b9b     call    0xb9b            	CALL	_Sub_Read1302
                                           ;	.line	2174; "123.c"	LV_TempA = GV_GetByteFromDs1302;
000612   5857     movar   0x57             	MOVAR	_GV_GetByteFromDs1302
000613   5614     movra   0x14             	MOVRA	r0x105E
                                           ;	.line	2175; "123.c"	LV_TempB = (LV_TempA>>4)*10;//BCD_TO_HEX
000614   4414     swapar  0x14             	SWAPAR	r0x105E
000615   3e0f     andai   0xf              	ANDAI	0x0f
000616   5618     movra   0x18             	MOVRA	r0x1062
000617   3c0a     movai   0xa              	MOVAI	0x0a
000618   5606     movra   0x6              	MOVRA	STK00
000619   5818     movar   0x18             	MOVAR	r0x1062
00061a   8bf2     call    0xbf2            	CALL	__mulchar
00061b   5616     movra   0x16             	MOVRA	r0x1060
                                           ;	.line	2176; "123.c"	LV_TempDay = LV_TempA & 0x0f;
00061c   3c0f     movai   0xf              	MOVAI	0x0f
00061d   7a14     andra   0x14             	ANDRA	r0x105E
                                           ;	.line	2177; "123.c"	LV_TempDay = LV_TempDay + LV_TempB;	
00061e   5816     movar   0x16             	MOVAR	r0x1060
00061f   7e14     addra   0x14             	ADDRA	r0x105E
                                           ;	.line	2194; "123.c"	if(LV_TempMonth==0)
000620   3c00     movai   0                	MOVAI	0x00
000621   5c17     orar    0x17             	ORAR	r0x1061
000622   f587     jbclr   0x187, 0x2       	JBCLR	PFLAG,2
000623   a6e6     goto    0x6e6            	GOTO	_00908_DS_
                                           ;	.line	2198; "123.c"	else if(LV_TempMonth==1||LV_TempMonth==3||LV_TempMonth==5||LV_TempMonth==7||LV_TempMonth==8||LV_TempMonth==10||LV_TempMonth==12)
000624   5817     movar   0x17             	MOVAR	r0x1061
000625   3901     xorai   0x1              	XORAI	0x01
000626   e587     jbset   0x187, 0x2       	JBSET	PFLAG,2
000627   a629     goto    0x629            	GOTO	_00959_DS_
000628   a646     goto    0x646            	GOTO	_00880_DS_
                                           _00959_DS_
000629   5817     movar   0x17             	MOVAR	r0x1061
00062a   3903     xorai   0x3              	XORAI	0x03
00062b   e587     jbset   0x187, 0x2       	JBSET	PFLAG,2
00062c   a62e     goto    0x62e            	GOTO	_00960_DS_
00062d   a646     goto    0x646            	GOTO	_00880_DS_
                                           _00960_DS_
00062e   5817     movar   0x17             	MOVAR	r0x1061
00062f   3905     xorai   0x5              	XORAI	0x05
000630   e587     jbset   0x187, 0x2       	JBSET	PFLAG,2
000631   a633     goto    0x633            	GOTO	_00961_DS_
000632   a646     goto    0x646            	GOTO	_00880_DS_
                                           _00961_DS_
000633   5817     movar   0x17             	MOVAR	r0x1061
000634   3907     xorai   0x7              	XORAI	0x07
000635   e587     jbset   0x187, 0x2       	JBSET	PFLAG,2
000636   a638     goto    0x638            	GOTO	_00962_DS_
000637   a646     goto    0x646            	GOTO	_00880_DS_
                                           _00962_DS_
000638   5817     movar   0x17             	MOVAR	r0x1061
000639   3908     xorai   0x8              	XORAI	0x08
00063a   e587     jbset   0x187, 0x2       	JBSET	PFLAG,2
00063b   a63d     goto    0x63d            	GOTO	_00963_DS_
00063c   a646     goto    0x646            	GOTO	_00880_DS_
                                           _00963_DS_
00063d   5817     movar   0x17             	MOVAR	r0x1061
00063e   390a     xorai   0xa              	XORAI	0x0a
00063f   e587     jbset   0x187, 0x2       	JBSET	PFLAG,2
000640   a642     goto    0x642            	GOTO	_00964_DS_
000641   a646     goto    0x646            	GOTO	_00880_DS_
                                           _00964_DS_
000642   5817     movar   0x17             	MOVAR	r0x1061
000643   390c     xorai   0xc              	XORAI	0x0c
000644   e587     jbset   0x187, 0x2       	JBSET	PFLAG,2
000645   a64f     goto    0x64f            	GOTO	_00881_DS_
                                           ;;unsigned compare: left < lit(0x20=32), size=1
                                           _00880_DS_
                                           ;	.line	2200; "123.c"	if(LV_TempDay >= 32)
000646   3c20     movai   0x20             	MOVAI	0x20
000647   4814     rsubar  0x14             	RSUBAR	r0x105E
000648   e187     jbset   0x187, 0         	JBSET	PFLAG,0
000649   a6e6     goto    0x6e6            	GOTO	_00908_DS_
                                           ;;genSkipc:3195: created from rifx:00DE608C
                                           ;	.line	2202; "123.c"	GV_SetDaySingleDig = 1;
00064a   3c01     movai   0x1              	MOVAI	0x01
00064b   5663     movra   0x63             	MOVRA	_GV_SetDaySingleDig
                                           ;	.line	2203; "123.c"	GV_SetDayTenDig = 3;
00064c   3c03     movai   0x3              	MOVAI	0x03
00064d   5664     movra   0x64             	MOVRA	_GV_SetDayTenDig
00064e   a6e6     goto    0x6e6            	GOTO	_00908_DS_
                                           _00881_DS_
                                           ;	.line	2206; "123.c"	else if(LV_TempMonth==2)
00064f   5817     movar   0x17             	MOVAR	r0x1061
000650   3902     xorai   0x2              	XORAI	0x02
000651   e587     jbset   0x187, 0x2       	JBSET	PFLAG,2
000652   a669     goto    0x669            	GOTO	_00878_DS_
                                           ;	.line	2208; "123.c"	if(LV_TempYear % 4)//4(229),(228)
000653   5815     movar   0x15             	MOVAR	r0x105F
000654   3e03     andai   0x3              	ANDAI	0x03
000655   f587     jbclr   0x187, 0x2       	JBCLR	PFLAG,2
000656   a660     goto    0x660            	GOTO	_00868_DS_
                                           ;;unsigned compare: left < lit(0x1E=30), size=1
                                           ;	.line	2210; "123.c"	if(LV_TempDay >= 30)
000657   3c1e     movai   0x1e             	MOVAI	0x1e
000658   4814     rsubar  0x14             	RSUBAR	r0x105E
000659   e187     jbset   0x187, 0         	JBSET	PFLAG,0
00065a   a6e6     goto    0x6e6            	GOTO	_00908_DS_
                                           ;;genSkipc:3195: created from rifx:00DE608C
                                           ;	.line	2212; "123.c"	GV_SetDaySingleDig = 9;
00065b   3c09     movai   0x9              	MOVAI	0x09
00065c   5663     movra   0x63             	MOVRA	_GV_SetDaySingleDig
                                           ;	.line	2213; "123.c"	GV_SetDayTenDig = 2;
00065d   3c02     movai   0x2              	MOVAI	0x02
00065e   5664     movra   0x64             	MOVRA	_GV_SetDayTenDig
00065f   a6e6     goto    0x6e6            	GOTO	_00908_DS_
                                           ;;unsigned compare: left < lit(0x1D=29), size=1
                                           _00868_DS_
                                           ;	.line	2218; "123.c"	if(LV_TempDay >= 29)
000660   3c1d     movai   0x1d             	MOVAI	0x1d
000661   4814     rsubar  0x14             	RSUBAR	r0x105E
000662   e187     jbset   0x187, 0         	JBSET	PFLAG,0
000663   a6e6     goto    0x6e6            	GOTO	_00908_DS_
                                           ;;genSkipc:3195: created from rifx:00DE608C
                                           ;	.line	2220; "123.c"	GV_SetDaySingleDig = 8;
000664   3c08     movai   0x8              	MOVAI	0x08
000665   5663     movra   0x63             	MOVRA	_GV_SetDaySingleDig
                                           ;	.line	2221; "123.c"	GV_SetDayTenDig = 2;
000666   3c02     movai   0x2              	MOVAI	0x02
000667   5664     movra   0x64             	MOVRA	_GV_SetDayTenDig
000668   a6e6     goto    0x6e6            	GOTO	_00908_DS_
                                           _00878_DS_
                                           ;	.line	2225; "123.c"	else if(LV_TempMonth==4||LV_TempMonth==6||LV_TempMonth==9||LV_TempMonth==11)
000669   5817     movar   0x17             	MOVAR	r0x1061
00066a   3904     xorai   0x4              	XORAI	0x04
00066b   e587     jbset   0x187, 0x2       	JBSET	PFLAG,2
00066c   a66e     goto    0x66e            	GOTO	_00969_DS_
00066d   a67c     goto    0x67c            	GOTO	_00872_DS_
                                           _00969_DS_
00066e   5817     movar   0x17             	MOVAR	r0x1061
00066f   3906     xorai   0x6              	XORAI	0x06
000670   e587     jbset   0x187, 0x2       	JBSET	PFLAG,2
000671   a673     goto    0x673            	GOTO	_00970_DS_
000672   a67c     goto    0x67c            	GOTO	_00872_DS_
                                           _00970_DS_
000673   5817     movar   0x17             	MOVAR	r0x1061
000674   3909     xorai   0x9              	XORAI	0x09
000675   e587     jbset   0x187, 0x2       	JBSET	PFLAG,2
000676   a678     goto    0x678            	GOTO	_00971_DS_
000677   a67c     goto    0x67c            	GOTO	_00872_DS_
                                           _00971_DS_
000678   5817     movar   0x17             	MOVAR	r0x1061
000679   390b     xorai   0xb              	XORAI	0x0b
00067a   e587     jbset   0x187, 0x2       	JBSET	PFLAG,2
00067b   a6e6     goto    0x6e6            	GOTO	_00908_DS_
                                           ;;unsigned compare: left < lit(0x1F=31), size=1
                                           _00872_DS_
                                           ;	.line	2227; "123.c"	if(LV_TempDay >= 31)
00067c   3c1f     movai   0x1f             	MOVAI	0x1f
00067d   4814     rsubar  0x14             	RSUBAR	r0x105E
00067e   e187     jbset   0x187, 0         	JBSET	PFLAG,0
00067f   a6e6     goto    0x6e6            	GOTO	_00908_DS_
                                           ;;genSkipc:3195: created from rifx:00DE608C
                                           ;	.line	2229; "123.c"	GV_SetDaySingleDig = 0;
000680   7663     clrr    0x63             	CLRR	_GV_SetDaySingleDig
                                           ;	.line	2230; "123.c"	GV_SetDayTenDig = 3;   	   	   	   	   	   	   	
000681   3c03     movai   0x3              	MOVAI	0x03
000682   5664     movra   0x64             	MOVRA	_GV_SetDayTenDig
000683   a6e6     goto    0x6e6            	GOTO	_00908_DS_
                                           _00904_DS_
                                           ;	.line	2290; "123.c"	else if(GV_RealTimeClockSetStep==2)
000684   5853     movar   0x53             	MOVAR	_GV_RealTimeClockSetStep
000685   3902     xorai   0x2              	XORAI	0x02
000686   e587     jbset   0x187, 0x2       	JBSET	PFLAG,2
000687   a6a3     goto    0x6a3            	GOTO	_00901_DS_
                                           ;	.line	2292; "123.c"	LV_TenTemp = GV_SetDayTenDig;
000688   5864     movar   0x64             	MOVAR	_GV_SetDayTenDig
000689   5613     movra   0x13             	MOVRA	r0x105D
                                           ;	.line	2293; "123.c"	LV_TenTemp <<= 4;
00068a   4413     swapar  0x13             	SWAPAR	r0x105D
00068b   3ef0     andai   0xf0             	ANDAI	0xf0
00068c   5613     movra   0x13             	MOVRA	r0x105D
                                           ;	.line	2294; "123.c"	GV_GetByteFromDs1302 = (GV_SetDaySingleDig | LV_TenTemp);
00068d   5813     movar   0x13             	MOVAR	r0x105D
00068e   5c63     orar    0x63             	ORAR	_GV_SetDaySingleDig
00068f   5657     movra   0x57             	MOVRA	_GV_GetByteFromDs1302
                                           ;	.line	2295; "123.c"	Sub_Write1302(C_DS1302_WriteProtect,C_DS1302_DisableWriteProtect); //Disable write protect
000690   3c00     movai   0                	MOVAI	0x00
000691   5606     movra   0x6              	MOVRA	STK00
000692   3c8e     movai   0x8e             	MOVAI	0x8e
000693   8b6d     call    0xb6d            	CALL	_Sub_Write1302
                                           ;	.line	2296; "123.c"	Nop();
000694   0000     nop                      	nop
                                           ;	.line	2297; "123.c"	Nop();
000695   0000     nop                      	nop
                                           ;	.line	2298; "123.c"	Sub_Write1302(C_DS1302_Day,GV_GetByteFromDs1302);  	   	
000696   5857     movar   0x57             	MOVAR	_GV_GetByteFromDs1302
000697   5606     movra   0x6              	MOVRA	STK00
000698   3c86     movai   0x86             	MOVAI	0x86
000699   8b6d     call    0xb6d            	CALL	_Sub_Write1302
                                           ;	.line	2299; "123.c"	Nop();
00069a   0000     nop                      	nop
                                           ;	.line	2300; "123.c"	Nop();
00069b   0000     nop                      	nop
                                           ;	.line	2301; "123.c"	Sub_Write1302(C_DS1302_WriteProtect,C_DS1302_EnableWriteProtect); //Enable write protect
00069c   3c80     movai   0x80             	MOVAI	0x80
00069d   5606     movra   0x6              	MOVRA	STK00
00069e   3c8e     movai   0x8e             	MOVAI	0x8e
00069f   8b6d     call    0xb6d            	CALL	_Sub_Write1302
                                           ;	.line	2302; "123.c"	Nop();
0006a0   0000     nop                      	nop
                                           ;	.line	2303; "123.c"	Nop();     	   	
0006a1   0000     nop                      	nop
0006a2   a6e6     goto    0x6e6            	GOTO	_00908_DS_
                                           _00901_DS_
                                           ;	.line	2305; "123.c"	else if(GV_RealTimeClockSetStep==3)
0006a3   5853     movar   0x53             	MOVAR	_GV_RealTimeClockSetStep
0006a4   3903     xorai   0x3              	XORAI	0x03
0006a5   e587     jbset   0x187, 0x2       	JBSET	PFLAG,2
0006a6   a6c8     goto    0x6c8            	GOTO	_00898_DS_
                                           ;	.line	2307; "123.c"	LV_TenTemp = GV_SetRealTimeClockHrTenDig;
0006a7   5868     movar   0x68             	MOVAR	_GV_SetRealTimeClockHrTenDig
0006a8   5613     movra   0x13             	MOVRA	r0x105D
                                           ;	.line	2308; "123.c"	LV_TenTemp <<= 4;
0006a9   4413     swapar  0x13             	SWAPAR	r0x105D
0006aa   3ef0     andai   0xf0             	ANDAI	0xf0
0006ab   5613     movra   0x13             	MOVRA	r0x105D
                                           ;	.line	2309; "123.c"	if(BF_SetRealTimeClockAM_PM)//0=AM1=PM
0006ac   e445     jbset   0x45, 0x2        	JBSET	_UserFlag,2
0006ad   a6b1     goto    0x6b1            	GOTO	_00893_DS_
                                           ;	.line	2311; "123.c"	LV_TenTemp |= 0xA0;//(RTCBit7=024Bit7=11212Bit50=AM1=PM
0006ae   3ca0     movai   0xa0             	MOVAI	0xa0
0006af   5e13     orra    0x13             	ORRA	r0x105D
0006b0   a6b2     goto    0x6b2            	GOTO	_00894_DS_
                                           _00893_DS_
                                           ;	.line	2315; "123.c"	LV_TenTemp |= 0x80;//(RTCBit7=024Bit7=11212Bit50=AM1=PM)
0006b1   ce13     bset    0x13, 0x7        	BSET	r0x105D,7
                                           _00894_DS_
                                           ;	.line	2318; "123.c"	GV_GetByteFromDs1302 = (GV_SetRealTimeClockHrSingleDig | LV_TenTemp);
0006b2   5813     movar   0x13             	MOVAR	r0x105D
0006b3   5c67     orar    0x67             	ORAR	_GV_SetRealTimeClockHrSingleDig
0006b4   5657     movra   0x57             	MOVRA	_GV_GetByteFromDs1302
                                           ;	.line	2319; "123.c"	Sub_Write1302(C_DS1302_WriteProtect,C_DS1302_DisableWriteProtect); //Disable write protect
0006b5   3c00     movai   0                	MOVAI	0x00
0006b6   5606     movra   0x6              	MOVRA	STK00
0006b7   3c8e     movai   0x8e             	MOVAI	0x8e
0006b8   8b6d     call    0xb6d            	CALL	_Sub_Write1302
                                           ;	.line	2320; "123.c"	Nop();
0006b9   0000     nop                      	nop
                                           ;	.line	2321; "123.c"	Nop();
0006ba   0000     nop                      	nop
                                           ;	.line	2322; "123.c"	Sub_Write1302(C_DS1302_Hour,GV_GetByteFromDs1302); 	   	
0006bb   5857     movar   0x57             	MOVAR	_GV_GetByteFromDs1302
0006bc   5606     movra   0x6              	MOVRA	STK00
0006bd   3c84     movai   0x84             	MOVAI	0x84
0006be   8b6d     call    0xb6d            	CALL	_Sub_Write1302
                                           ;	.line	2323; "123.c"	Nop();
0006bf   0000     nop                      	nop
                                           ;	.line	2324; "123.c"	Nop();
0006c0   0000     nop                      	nop
                                           ;	.line	2325; "123.c"	Sub_Write1302(C_DS1302_WriteProtect,C_DS1302_EnableWriteProtect); //Enable write protect
0006c1   3c80     movai   0x80             	MOVAI	0x80
0006c2   5606     movra   0x6              	MOVRA	STK00
0006c3   3c8e     movai   0x8e             	MOVAI	0x8e
0006c4   8b6d     call    0xb6d            	CALL	_Sub_Write1302
                                           ;	.line	2326; "123.c"	Nop();
0006c5   0000     nop                      	nop
                                           ;	.line	2327; "123.c"	Nop();     	   	
0006c6   0000     nop                      	nop
0006c7   a6e6     goto    0x6e6            	GOTO	_00908_DS_
                                           _00898_DS_
                                           ;	.line	2329; "123.c"	else if(GV_RealTimeClockSetStep==4)
0006c8   5853     movar   0x53             	MOVAR	_GV_RealTimeClockSetStep
0006c9   3904     xorai   0x4              	XORAI	0x04
0006ca   e587     jbset   0x187, 0x2       	JBSET	PFLAG,2
0006cb   a6e6     goto    0x6e6            	GOTO	_00908_DS_
                                           ;	.line	2331; "123.c"	LV_TenTemp = GV_SetRealTimeClockMinTenDig;
0006cc   586a     movar   0x6a             	MOVAR	_GV_SetRealTimeClockMinTenDig
0006cd   5613     movra   0x13             	MOVRA	r0x105D
                                           ;	.line	2332; "123.c"	LV_TenTemp <<= 4;
0006ce   4413     swapar  0x13             	SWAPAR	r0x105D
0006cf   3ef0     andai   0xf0             	ANDAI	0xf0
0006d0   5613     movra   0x13             	MOVRA	r0x105D
                                           ;	.line	2333; "123.c"	GV_GetByteFromDs1302 = (GV_SetRealTimeClockMinSingleDig | LV_TenTemp);
0006d1   5813     movar   0x13             	MOVAR	r0x105D
0006d2   5c69     orar    0x69             	ORAR	_GV_SetRealTimeClockMinSingleDig
0006d3   5657     movra   0x57             	MOVRA	_GV_GetByteFromDs1302
                                           ;	.line	2334; "123.c"	Sub_Write1302(C_DS1302_WriteProtect,C_DS1302_DisableWriteProtect); //Disable write protect
0006d4   3c00     movai   0                	MOVAI	0x00
0006d5   5606     movra   0x6              	MOVRA	STK00
0006d6   3c8e     movai   0x8e             	MOVAI	0x8e
0006d7   8b6d     call    0xb6d            	CALL	_Sub_Write1302
                                           ;	.line	2335; "123.c"	Nop();
0006d8   0000     nop                      	nop
                                           ;	.line	2336; "123.c"	Nop();
0006d9   0000     nop                      	nop
                                           ;	.line	2337; "123.c"	Sub_Write1302(C_DS1302_Minute,GV_GetByteFromDs1302);   	   	
0006da   5857     movar   0x57             	MOVAR	_GV_GetByteFromDs1302
0006db   5606     movra   0x6              	MOVRA	STK00
0006dc   3c82     movai   0x82             	MOVAI	0x82
0006dd   8b6d     call    0xb6d            	CALL	_Sub_Write1302
                                           ;	.line	2338; "123.c"	Nop();
0006de   0000     nop                      	nop
                                           ;	.line	2339; "123.c"	Nop();
0006df   0000     nop                      	nop
                                           ;	.line	2340; "123.c"	Sub_Write1302(C_DS1302_WriteProtect,C_DS1302_EnableWriteProtect); //Enable write protect
0006e0   3c80     movai   0x80             	MOVAI	0x80
0006e1   5606     movra   0x6              	MOVRA	STK00
0006e2   3c8e     movai   0x8e             	MOVAI	0x8e
0006e3   8b6d     call    0xb6d            	CALL	_Sub_Write1302
                                           ;	.line	2341; "123.c"	Nop();
0006e4   0000     nop                      	nop
                                           ;	.line	2342; "123.c"	Nop();     	   	
0006e5   0000     nop                      	nop
                                           _00908_DS_
                                           ;	.line	2568; "123.c"	if(++GV_RealTimeClockSetStep >= 5)
0006e6   6653     incr    0x53             	INCR	_GV_RealTimeClockSetStep
                                           ;;unsigned compare: left < lit(0x5=5), size=1
0006e7   3c05     movai   0x5              	MOVAI	0x05
0006e8   4853     rsubar  0x53             	RSUBAR	_GV_RealTimeClockSetStep
0006e9   e187     jbset   0x187, 0         	JBSET	PFLAG,0
0006ea   a6ed     goto    0x6ed            	GOTO	_00911_DS_
                                           ;;genSkipc:3195: created from rifx:00DE608C
                                           ;	.line	2570; "123.c"	GV_RealTimeClockSetStep = 0;
0006eb   7653     clrr    0x53             	CLRR	_GV_RealTimeClockSetStep
                                           ;	.line	2571; "123.c"	GV_Mode = 0;//0=Normal mode;mode;  	   	 
0006ec   7652     clrr    0x52             	CLRR	_GV_Mode
                                           _00911_DS_
0006ed   000c     return                   	RETURN	
                                           ; exit point of _Sub_SetKeyRealTimeClockEnter
                                           
                                           ;***
                                           ;  pBlock Stats: dbName = C
                                           ;***
                                           ;entry:  _Sub_SetLongKeyGetRealTimeClockSetMode	;Function start
                                           ; 2 exit points
                                           ;has an exit
                                           ;functions called:
                                           ;   _Sub_Read1302
                                           ;   _Sub_Read1302
                                           ;   _Sub_Read1302
                                           ;   _Sub_Read1302
                                           ;   _Sub_Read1302
                                           ;   _Sub_Read1302
                                           ;   _Sub_Read1302
                                           ;   _Sub_Read1302
                                           ;   _Sub_Read1302
                                           ;   _Sub_Read1302
                                           ;; Starting pCode block
                                           _Sub_SetLongKeyGetRealTimeClockSetMode	;Function start
                                           ; 2 exit points
                                           ;	.line	2075; "123.c"	if(++GV_LongKeyTimer < 1500) return;//1500*2ms=3s
0006ee   663f     incr    0x3f             	INCR	_GV_LongKeyTimer
0006ef   f587     jbclr   0x187, 0x2       	JBCLR	PFLAG,2
0006f0   6640     incr    0x40             	INCR	(_GV_LongKeyTimer + 1)
                                           ;;unsigned compare: left < lit(0x5DC=1500), size=2
0006f1   3c05     movai   0x5              	MOVAI	0x05
0006f2   4840     rsubar  0x40             	RSUBAR	(_GV_LongKeyTimer + 1)
0006f3   e587     jbset   0x187, 0x2       	JBSET	PFLAG,2
0006f4   a6f7     goto    0x6f7            	GOTO	_00856_DS_
0006f5   3cdc     movai   0xdc             	MOVAI	0xdc
0006f6   483f     rsubar  0x3f             	RSUBAR	_GV_LongKeyTimer
                                           _00856_DS_
0006f7   f187     jbclr   0x187, 0         	JBCLR	PFLAG,0
0006f8   a6fa     goto    0x6fa            	GOTO	_00846_DS_
                                           ;;genSkipc:3195: created from rifx:00DE608C
0006f9   a729     goto    0x729            	GOTO	_00850_DS_
                                           _00846_DS_
                                           ;	.line	2076; "123.c"	GV_PreKey = GV_CurKey;
0006fa   5851     movar   0x51             	MOVAR	_GV_CurKey
0006fb   5650     movra   0x50             	MOVRA	_GV_PreKey
                                           ;	.line	2079; "123.c"	GV_RealTimeClockSetStep = 0;
0006fc   7653     clrr    0x53             	CLRR	_GV_RealTimeClockSetStep
                                           ;	.line	2081; "123.c"	Sub_Read1302(C_DS1302_Year);//C_DS1302_Year
0006fd   3c8c     movai   0x8c             	MOVAI	0x8c
0006fe   8b9b     call    0xb9b            	CALL	_Sub_Read1302
                                           ;	.line	2082; "123.c"	GV_SetYearSingleDig = GV_GetByteFromDs1302 & 0x0F;
0006ff   3c0f     movai   0xf              	MOVAI	0x0f
000700   7857     andar   0x57             	ANDAR	_GV_GetByteFromDs1302
000701   5659     movra   0x59             	MOVRA	_GV_SetYearSingleDig
                                           ;	.line	2083; "123.c"	GV_SetYearTenDig = GV_GetByteFromDs1302 >> 4;
000702   4457     swapar  0x57             	SWAPAR	_GV_GetByteFromDs1302
000703   3e0f     andai   0xf              	ANDAI	0x0f
000704   565a     movra   0x5a             	MOVRA	_GV_SetYearTenDig
                                           ;	.line	2086; "123.c"	Sub_Read1302(C_DS1302_Month);//C_DS1302_Month
000705   3c88     movai   0x88             	MOVAI	0x88
000706   8b9b     call    0xb9b            	CALL	_Sub_Read1302
                                           ;	.line	2087; "123.c"	GV_SetMonthSingleDig = GV_GetByteFromDs1302  &0x0F;
000707   3c0f     movai   0xf              	MOVAI	0x0f
000708   7857     andar   0x57             	ANDAR	_GV_GetByteFromDs1302
000709   565f     movra   0x5f             	MOVRA	_GV_SetMonthSingleDig
                                           ;	.line	2088; "123.c"	GV_SetMonthTenDig = GV_GetByteFromDs1302 >> 4;
00070a   4457     swapar  0x57             	SWAPAR	_GV_GetByteFromDs1302
00070b   3e0f     andai   0xf              	ANDAI	0x0f
00070c   5660     movra   0x60             	MOVRA	_GV_SetMonthTenDig
                                           ;	.line	2090; "123.c"	Sub_Read1302(C_DS1302_Day);//C_DS1302_Day
00070d   3c86     movai   0x86             	MOVAI	0x86
00070e   8b9b     call    0xb9b            	CALL	_Sub_Read1302
                                           ;	.line	2091; "123.c"	GV_SetDaySingleDig = GV_GetByteFromDs1302 & 0x0F;
00070f   3c0f     movai   0xf              	MOVAI	0x0f
000710   7857     andar   0x57             	ANDAR	_GV_GetByteFromDs1302
000711   5663     movra   0x63             	MOVRA	_GV_SetDaySingleDig
                                           ;	.line	2092; "123.c"	GV_SetDayTenDig = GV_GetByteFromDs1302 >> 4;
000712   4457     swapar  0x57             	SWAPAR	_GV_GetByteFromDs1302
000713   3e0f     andai   0xf              	ANDAI	0x0f
000714   5664     movra   0x64             	MOVRA	_GV_SetDayTenDig
                                           ;	.line	2094; "123.c"	Sub_Read1302(C_DS1302_Hour);//C_DS1302_Hour
000715   3c84     movai   0x84             	MOVAI	0x84
000716   8b9b     call    0xb9b            	CALL	_Sub_Read1302
                                           ;	.line	2095; "123.c"	GV_SetRealTimeClockHrSingleDig = GV_GetByteFromDs1302 & 0x0F;
000717   3c0f     movai   0xf              	MOVAI	0x0f
000718   7857     andar   0x57             	ANDAR	_GV_GetByteFromDs1302
000719   5667     movra   0x67             	MOVRA	_GV_SetRealTimeClockHrSingleDig
                                           ;	.line	2100; "123.c"	LV_TempA = GV_GetByteFromDs1302 & 0x02;//Get AM/PM
00071a   e257     jbset   0x57, 0x1        	JBSET	_GV_GetByteFromDs1302,1
00071b   a71e     goto    0x71e            	GOTO	_00848_DS_
                                           ;	.line	2104; "123.c"	BF_SetRealTimeClockAM_PM = 1;
00071c   c445     bset    0x45, 0x2        	BSET	_UserFlag,2
00071d   a71f     goto    0x71f            	GOTO	_00849_DS_
                                           _00848_DS_
                                           ;	.line	2108; "123.c"	BF_SetRealTimeClockAM_PM = 0;
00071e   d445     bclr    0x45, 0x2        	BCLR	_UserFlag,2
                                           _00849_DS_
                                           ;	.line	2110; "123.c"	Sub_Read1302(C_DS1302_Minute);//C_DS1302_Minute
00071f   3c82     movai   0x82             	MOVAI	0x82
000720   8b9b     call    0xb9b            	CALL	_Sub_Read1302
                                           ;	.line	2111; "123.c"	GV_SetRealTimeClockMinSingleDig = GV_GetByteFromDs1302 & 0x0F;
000721   3c0f     movai   0xf              	MOVAI	0x0f
000722   7857     andar   0x57             	ANDAR	_GV_GetByteFromDs1302
000723   5669     movra   0x69             	MOVRA	_GV_SetRealTimeClockMinSingleDig
                                           ;	.line	2112; "123.c"	GV_SetRealTimeClockMinTenDig = GV_GetByteFromDs1302 >> 4;
000724   4457     swapar  0x57             	SWAPAR	_GV_GetByteFromDs1302
000725   3e0f     andai   0xf              	ANDAI	0x0f
000726   566a     movra   0x6a             	MOVRA	_GV_SetRealTimeClockMinTenDig
                                           ;	.line	2114; "123.c"	GV_Mode = 1;//1=Clock set mode
000727   3c01     movai   0x1              	MOVAI	0x01
000728   5652     movra   0x52             	MOVRA	_GV_Mode
                                           _00850_DS_
000729   000c     return                   	RETURN	
                                           ; exit point of _Sub_SetLongKeyGetRealTimeClockSetMode
                                           
                                           ;***
                                           ;  pBlock Stats: dbName = C
                                           ;***
                                           ;entry:  _Sub_DownShortLongKeyClockSet	;Function start
                                           ; 2 exit points
                                           ;has an exit
                                           ;functions called:
                                           ;   _Sub_RealTimeClockDec
                                           ;   _Sub_RealTimeClockDec
                                           ;   _Sub_RealTimeClockDec
                                           ;   _Sub_RealTimeClockDec
                                           ;; Starting pCode block
                                           _Sub_DownShortLongKeyClockSet	;Function start
                                           ; 2 exit points
                                           ;	.line	2031; "123.c"	BF_DownKeyPressesd = 1;
00072a   cc45     bset    0x45, 0x6        	BSET	_UserFlag,6
                                           ;	.line	2032; "123.c"	if(BF_DownLongKeyPressesd)//
00072b   ee45     jbset   0x45, 0x7        	JBSET	_UserFlag,7
00072c   a73d     goto    0x73d            	GOTO	_00829_DS_
                                           ;	.line	2034; "123.c"	if(++GV_LongKeyTimer < 125) return;//125*2ms=250ms
00072d   663f     incr    0x3f             	INCR	_GV_LongKeyTimer
00072e   f587     jbclr   0x187, 0x2       	JBCLR	PFLAG,2
00072f   6640     incr    0x40             	INCR	(_GV_LongKeyTimer + 1)
                                           ;;unsigned compare: left < lit(0x7D=125), size=2
000730   3c00     movai   0                	MOVAI	0x00
000731   4840     rsubar  0x40             	RSUBAR	(_GV_LongKeyTimer + 1)
000732   e587     jbset   0x187, 0x2       	JBSET	PFLAG,2
000733   a736     goto    0x736            	GOTO	_00839_DS_
000734   3c7d     movai   0x7d             	MOVAI	0x7d
000735   483f     rsubar  0x3f             	RSUBAR	_GV_LongKeyTimer
                                           _00839_DS_
000736   f187     jbclr   0x187, 0         	JBCLR	PFLAG,0
000737   a739     goto    0x739            	GOTO	_00825_DS_
                                           ;;genSkipc:3195: created from rifx:00DE608C
000738   a74d     goto    0x74d            	GOTO	_00831_DS_
                                           _00825_DS_
                                           ;	.line	2037; "123.c"	GV_LongKeyTimer = 0;
000739   763f     clrr    0x3f             	CLRR	_GV_LongKeyTimer
00073a   7640     clrr    0x40             	CLRR	(_GV_LongKeyTimer + 1)
                                           ;	.line	2038; "123.c"	Sub_RealTimeClockDec();
00073b   874e     call    0x74e            	CALL	_Sub_RealTimeClockDec
00073c   a74d     goto    0x74d            	GOTO	_00831_DS_
                                           _00829_DS_
                                           ;	.line	2043; "123.c"	if(++GV_LongKeyTimer < 500) return;//500*2ms=1s
00073d   663f     incr    0x3f             	INCR	_GV_LongKeyTimer
00073e   f587     jbclr   0x187, 0x2       	JBCLR	PFLAG,2
00073f   6640     incr    0x40             	INCR	(_GV_LongKeyTimer + 1)
                                           ;;unsigned compare: left < lit(0x1F4=500), size=2
000740   3c01     movai   0x1              	MOVAI	0x01
000741   4840     rsubar  0x40             	RSUBAR	(_GV_LongKeyTimer + 1)
000742   e587     jbset   0x187, 0x2       	JBSET	PFLAG,2
000743   a746     goto    0x746            	GOTO	_00840_DS_
000744   3cf4     movai   0xf4             	MOVAI	0xf4
000745   483f     rsubar  0x3f             	RSUBAR	_GV_LongKeyTimer
                                           _00840_DS_
000746   f187     jbclr   0x187, 0         	JBCLR	PFLAG,0
000747   a749     goto    0x749            	GOTO	_00827_DS_
                                           ;;genSkipc:3195: created from rifx:00DE608C
000748   a74d     goto    0x74d            	GOTO	_00831_DS_
                                           _00827_DS_
                                           ;	.line	2046; "123.c"	GV_LongKeyTimer = 0;
000749   763f     clrr    0x3f             	CLRR	_GV_LongKeyTimer
00074a   7640     clrr    0x40             	CLRR	(_GV_LongKeyTimer + 1)
                                           ;	.line	2047; "123.c"	BF_DownLongKeyPressesd = 1;
00074b   ce45     bset    0x45, 0x7        	BSET	_UserFlag,7
                                           ;	.line	2048; "123.c"	Sub_RealTimeClockDec();
00074c   874e     call    0x74e            	CALL	_Sub_RealTimeClockDec
                                           _00831_DS_
00074d   000c     return                   	RETURN	
                                           ; exit point of _Sub_DownShortLongKeyClockSet
                                           
                                           ;***
                                           ;  pBlock Stats: dbName = C
                                           ;***
                                           ;entry:  _Sub_RealTimeClockDec	;Function start
                                           ; 2 exit points
                                           ;has an exit
                                           ;functions called:
                                           ;   _Sub_Read1302
                                           ;   __mulchar
                                           ;   _Sub_Read1302
                                           ;   __mulchar
                                           ;   _Sub_Read1302
                                           ;   __mulchar
                                           ;   _Sub_Read1302
                                           ;   __mulchar
                                           ;5 compiler assigned registers:
                                           ;   r0x105A
                                           ;   r0x105B
                                           ;   STK00
                                           ;   r0x105C
                                           ;   r0x105D
                                           ;; Starting pCode block
                                           _Sub_RealTimeClockDec	;Function start
                                           ; 2 exit points
                                           ;	.line	1587; "123.c"	if(GV_RealTimeClockSetStep==0)
00074e   3c00     movai   0                	MOVAI	0x00
00074f   5c53     orar    0x53             	ORAR	_GV_RealTimeClockSetStep
000750   e587     jbset   0x187, 0x2       	JBSET	PFLAG,2
000751   a765     goto    0x765            	GOTO	_00714_DS_
                                           ;	.line	1589; "123.c"	if(GV_SetYearSingleDig)
000752   3c00     movai   0                	MOVAI	0x00
000753   5c59     orar    0x59             	ORAR	_GV_SetYearSingleDig
000754   f587     jbclr   0x187, 0x2       	JBCLR	PFLAG,2
000755   a758     goto    0x758            	GOTO	_00619_DS_
                                           ;	.line	1591; "123.c"	GV_SetYearSingleDig--;
000756   6e59     decr    0x59             	DECR	_GV_SetYearSingleDig
000757   a88e     goto    0x88e            	GOTO	_00716_DS_
                                           _00619_DS_
                                           ;	.line	1595; "123.c"	if(GV_SetYearTenDig)
000758   3c00     movai   0                	MOVAI	0x00
000759   5c5a     orar    0x5a             	ORAR	_GV_SetYearTenDig
00075a   f587     jbclr   0x187, 0x2       	JBCLR	PFLAG,2
00075b   a760     goto    0x760            	GOTO	_00616_DS_
                                           ;	.line	1597; "123.c"	GV_SetYearSingleDig = 9;
00075c   3c09     movai   0x9              	MOVAI	0x09
00075d   5659     movra   0x59             	MOVRA	_GV_SetYearSingleDig
                                           ;	.line	1598; "123.c"	GV_SetYearTenDig--;
00075e   6e5a     decr    0x5a             	DECR	_GV_SetYearTenDig
00075f   a88e     goto    0x88e            	GOTO	_00716_DS_
                                           _00616_DS_
                                           ;	.line	1602; "123.c"	GV_SetYearSingleDig = 9;
000760   3c09     movai   0x9              	MOVAI	0x09
000761   5659     movra   0x59             	MOVRA	_GV_SetYearSingleDig
                                           ;	.line	1603; "123.c"	GV_SetYearTenDig = 9;
000762   3c09     movai   0x9              	MOVAI	0x09
000763   565a     movra   0x5a             	MOVRA	_GV_SetYearTenDig
000764   a88e     goto    0x88e            	GOTO	_00716_DS_
                                           _00714_DS_
                                           ;	.line	1607; "123.c"	else if(GV_RealTimeClockSetStep==1)
000765   5853     movar   0x53             	MOVAR	_GV_RealTimeClockSetStep
000766   3901     xorai   0x1              	XORAI	0x01
000767   e587     jbset   0x187, 0x2       	JBSET	PFLAG,2
000768   a783     goto    0x783            	GOTO	_00711_DS_
                                           ;	.line	1609; "123.c"	if(GV_SetMonthSingleDig)
000769   3c00     movai   0                	MOVAI	0x00
00076a   5c5f     orar    0x5f             	ORAR	_GV_SetMonthSingleDig
00076b   f587     jbclr   0x187, 0x2       	JBCLR	PFLAG,2
00076c   a76f     goto    0x76f            	GOTO	_00624_DS_
                                           ;	.line	1611; "123.c"	GV_SetMonthSingleDig--;
00076d   6e5f     decr    0x5f             	DECR	_GV_SetMonthSingleDig
00076e   a776     goto    0x776            	GOTO	_00625_DS_
                                           _00624_DS_
                                           ;	.line	1615; "123.c"	if(GV_SetMonthTenDig)
00076f   3c00     movai   0                	MOVAI	0x00
000770   5c60     orar    0x60             	ORAR	_GV_SetMonthTenDig
000771   f587     jbclr   0x187, 0x2       	JBCLR	PFLAG,2
000772   a776     goto    0x776            	GOTO	_00625_DS_
                                           ;	.line	1617; "123.c"	GV_SetMonthSingleDig = 9;
000773   3c09     movai   0x9              	MOVAI	0x09
000774   565f     movra   0x5f             	MOVRA	_GV_SetMonthSingleDig
                                           ;	.line	1618; "123.c"	GV_SetMonthTenDig--;
000775   6e60     decr    0x60             	DECR	_GV_SetMonthTenDig
                                           _00625_DS_
                                           ;	.line	1622; "123.c"	if((GV_SetMonthSingleDig==0)&&(GV_SetMonthTenDig==0))
000776   3c00     movai   0                	MOVAI	0x00
000777   5c5f     orar    0x5f             	ORAR	_GV_SetMonthSingleDig
000778   e587     jbset   0x187, 0x2       	JBSET	PFLAG,2
000779   a88e     goto    0x88e            	GOTO	_00716_DS_
00077a   3c00     movai   0                	MOVAI	0x00
00077b   5c60     orar    0x60             	ORAR	_GV_SetMonthTenDig
00077c   e587     jbset   0x187, 0x2       	JBSET	PFLAG,2
00077d   a88e     goto    0x88e            	GOTO	_00716_DS_
                                           ;	.line	1624; "123.c"	GV_SetMonthSingleDig = 0x02;
00077e   3c02     movai   0x2              	MOVAI	0x02
00077f   565f     movra   0x5f             	MOVRA	_GV_SetMonthSingleDig
                                           ;	.line	1625; "123.c"	GV_SetMonthTenDig = 0x01;
000780   3c01     movai   0x1              	MOVAI	0x01
000781   5660     movra   0x60             	MOVRA	_GV_SetMonthTenDig
000782   a88e     goto    0x88e            	GOTO	_00716_DS_
                                           _00711_DS_
                                           ;	.line	1628; "123.c"	else if(GV_RealTimeClockSetStep==2)
000783   5853     movar   0x53             	MOVAR	_GV_RealTimeClockSetStep
000784   3902     xorai   0x2              	XORAI	0x02
000785   e587     jbset   0x187, 0x2       	JBSET	PFLAG,2
000786   a850     goto    0x850            	GOTO	_00708_DS_
                                           ;	.line	1630; "123.c"	Sub_Read1302(C_DS1302_Year);//C_DS1302_Year
000787   3c8c     movai   0x8c             	MOVAI	0x8c
000788   8b9b     call    0xb9b            	CALL	_Sub_Read1302
                                           ;	.line	1631; "123.c"	LV_TempA = GV_GetByteFromDs1302;
000789   5857     movar   0x57             	MOVAR	_GV_GetByteFromDs1302
00078a   560e     movra   0xe              	MOVRA	r0x105A
                                           ;	.line	1632; "123.c"	LV_TempB = (LV_TempA>>4)*10;//BCD_TO_HEX
00078b   440e     swapar  0xe              	SWAPAR	r0x105A
00078c   3e0f     andai   0xf              	ANDAI	0x0f
00078d   560f     movra   0xf              	MOVRA	r0x105B
00078e   3c0a     movai   0xa              	MOVAI	0x0a
00078f   5606     movra   0x6              	MOVRA	STK00
000790   580f     movar   0xf              	MOVAR	r0x105B
000791   8bf2     call    0xbf2            	CALL	__mulchar
000792   5610     movra   0x10             	MOVRA	r0x105C
                                           ;	.line	1633; "123.c"	LV_TempYear = LV_TempA & 0x0f;
000793   3c0f     movai   0xf              	MOVAI	0x0f
000794   780e     andar   0xe              	ANDAR	r0x105A
000795   560f     movra   0xf              	MOVRA	r0x105B
                                           ;	.line	1634; "123.c"	LV_TempYear = LV_TempYear + LV_TempB;
000796   5810     movar   0x10             	MOVAR	r0x105C
000797   7e0f     addra   0xf              	ADDRA	r0x105B
                                           ;	.line	1636; "123.c"	Sub_Read1302(C_DS1302_Month);//C_DS1302_Month
000798   3c88     movai   0x88             	MOVAI	0x88
000799   8b9b     call    0xb9b            	CALL	_Sub_Read1302
                                           ;	.line	1637; "123.c"	LV_TempA = GV_GetByteFromDs1302;
00079a   5857     movar   0x57             	MOVAR	_GV_GetByteFromDs1302
00079b   560e     movra   0xe              	MOVRA	r0x105A
                                           ;	.line	1638; "123.c"	LV_TempB = (LV_TempA>>4)*10;//BCD_TO_HEX
00079c   440e     swapar  0xe              	SWAPAR	r0x105A
00079d   3e0f     andai   0xf              	ANDAI	0x0f
00079e   5613     movra   0x13             	MOVRA	r0x105D
00079f   3c0a     movai   0xa              	MOVAI	0x0a
0007a0   5606     movra   0x6              	MOVRA	STK00
0007a1   5813     movar   0x13             	MOVAR	r0x105D
0007a2   8bf2     call    0xbf2            	CALL	__mulchar
0007a3   5610     movra   0x10             	MOVRA	r0x105C
                                           ;	.line	1639; "123.c"	LV_TempMonth = LV_TempA & 0x0f;
0007a4   3c0f     movai   0xf              	MOVAI	0x0f
0007a5   7a0e     andra   0xe              	ANDRA	r0x105A
                                           ;	.line	1640; "123.c"	LV_TempMonth = LV_TempMonth + LV_TempB;	 
0007a6   5810     movar   0x10             	MOVAR	r0x105C
0007a7   7e0e     addra   0xe              	ADDRA	r0x105A
                                           ;	.line	1642; "123.c"	if(LV_TempMonth==0)
0007a8   3c00     movai   0                	MOVAI	0x00
0007a9   5c0e     orar    0xe              	ORAR	r0x105A
0007aa   f587     jbclr   0x187, 0x2       	JBCLR	PFLAG,2
0007ab   a88e     goto    0x88e            	GOTO	_00716_DS_
                                           ;	.line	1646; "123.c"	else if(LV_TempMonth==1||LV_TempMonth==3||LV_TempMonth==5||LV_TempMonth==7||LV_TempMonth==8||LV_TempMonth==10||LV_TempMonth==12)
0007ac   580e     movar   0xe              	MOVAR	r0x105A
0007ad   3901     xorai   0x1              	XORAI	0x01
0007ae   e587     jbset   0x187, 0x2       	JBSET	PFLAG,2
0007af   a7b1     goto    0x7b1            	GOTO	_00810_DS_
0007b0   a7ce     goto    0x7ce            	GOTO	_00672_DS_
                                           _00810_DS_
0007b1   580e     movar   0xe              	MOVAR	r0x105A
0007b2   3903     xorai   0x3              	XORAI	0x03
0007b3   e587     jbset   0x187, 0x2       	JBSET	PFLAG,2
0007b4   a7b6     goto    0x7b6            	GOTO	_00811_DS_
0007b5   a7ce     goto    0x7ce            	GOTO	_00672_DS_
                                           _00811_DS_
0007b6   580e     movar   0xe              	MOVAR	r0x105A
0007b7   3905     xorai   0x5              	XORAI	0x05
0007b8   e587     jbset   0x187, 0x2       	JBSET	PFLAG,2
0007b9   a7bb     goto    0x7bb            	GOTO	_00812_DS_
0007ba   a7ce     goto    0x7ce            	GOTO	_00672_DS_
                                           _00812_DS_
0007bb   580e     movar   0xe              	MOVAR	r0x105A
0007bc   3907     xorai   0x7              	XORAI	0x07
0007bd   e587     jbset   0x187, 0x2       	JBSET	PFLAG,2
0007be   a7c0     goto    0x7c0            	GOTO	_00813_DS_
0007bf   a7ce     goto    0x7ce            	GOTO	_00672_DS_
                                           _00813_DS_
0007c0   580e     movar   0xe              	MOVAR	r0x105A
0007c1   3908     xorai   0x8              	XORAI	0x08
0007c2   e587     jbset   0x187, 0x2       	JBSET	PFLAG,2
0007c3   a7c5     goto    0x7c5            	GOTO	_00814_DS_
0007c4   a7ce     goto    0x7ce            	GOTO	_00672_DS_
                                           _00814_DS_
0007c5   580e     movar   0xe              	MOVAR	r0x105A
0007c6   390a     xorai   0xa              	XORAI	0x0a
0007c7   e587     jbset   0x187, 0x2       	JBSET	PFLAG,2
0007c8   a7ca     goto    0x7ca            	GOTO	_00815_DS_
0007c9   a7ce     goto    0x7ce            	GOTO	_00672_DS_
                                           _00815_DS_
0007ca   580e     movar   0xe              	MOVAR	r0x105A
0007cb   390c     xorai   0xc              	XORAI	0x0c
0007cc   e587     jbset   0x187, 0x2       	JBSET	PFLAG,2
0007cd   a7e8     goto    0x7e8            	GOTO	_00673_DS_
                                           _00672_DS_
                                           ;	.line	1648; "123.c"	if(GV_SetDaySingleDig)
0007ce   3c00     movai   0                	MOVAI	0x00
0007cf   5c63     orar    0x63             	ORAR	_GV_SetDaySingleDig
0007d0   f587     jbclr   0x187, 0x2       	JBCLR	PFLAG,2
0007d1   a7d4     goto    0x7d4            	GOTO	_00632_DS_
                                           ;	.line	1650; "123.c"	GV_SetDaySingleDig--;
0007d2   6e63     decr    0x63             	DECR	_GV_SetDaySingleDig
0007d3   a7db     goto    0x7db            	GOTO	_00633_DS_
                                           _00632_DS_
                                           ;	.line	1654; "123.c"	if(GV_SetDayTenDig)
0007d4   3c00     movai   0                	MOVAI	0x00
0007d5   5c64     orar    0x64             	ORAR	_GV_SetDayTenDig
0007d6   f587     jbclr   0x187, 0x2       	JBCLR	PFLAG,2
0007d7   a7db     goto    0x7db            	GOTO	_00633_DS_
                                           ;	.line	1656; "123.c"	GV_SetDaySingleDig = 9;
0007d8   3c09     movai   0x9              	MOVAI	0x09
0007d9   5663     movra   0x63             	MOVRA	_GV_SetDaySingleDig
                                           ;	.line	1657; "123.c"	GV_SetDayTenDig--;
0007da   6e64     decr    0x64             	DECR	_GV_SetDayTenDig
                                           _00633_DS_
                                           ;	.line	1660; "123.c"	if((GV_SetDaySingleDig==0)&&(GV_SetDayTenDig==0))
0007db   3c00     movai   0                	MOVAI	0x00
0007dc   5c63     orar    0x63             	ORAR	_GV_SetDaySingleDig
0007dd   e587     jbset   0x187, 0x2       	JBSET	PFLAG,2
0007de   a88e     goto    0x88e            	GOTO	_00716_DS_
0007df   3c00     movai   0                	MOVAI	0x00
0007e0   5c64     orar    0x64             	ORAR	_GV_SetDayTenDig
0007e1   e587     jbset   0x187, 0x2       	JBSET	PFLAG,2
0007e2   a88e     goto    0x88e            	GOTO	_00716_DS_
                                           ;	.line	1662; "123.c"	GV_SetDaySingleDig = 0x01;
0007e3   3c01     movai   0x1              	MOVAI	0x01
0007e4   5663     movra   0x63             	MOVRA	_GV_SetDaySingleDig
                                           ;	.line	1663; "123.c"	GV_SetDayTenDig = 0x03;
0007e5   3c03     movai   0x3              	MOVAI	0x03
0007e6   5664     movra   0x64             	MOVRA	_GV_SetDayTenDig
0007e7   a88e     goto    0x88e            	GOTO	_00716_DS_
                                           _00673_DS_
                                           ;	.line	1666; "123.c"	else if(LV_TempMonth==2)
0007e8   580e     movar   0xe              	MOVAR	r0x105A
0007e9   3902     xorai   0x2              	XORAI	0x02
0007ea   e587     jbset   0x187, 0x2       	JBSET	PFLAG,2
0007eb   a824     goto    0x824            	GOTO	_00670_DS_
                                           ;	.line	1668; "123.c"	if(LV_TempYear % 4)//4(229),(228)
0007ec   580f     movar   0xf              	MOVAR	r0x105B
0007ed   3e03     andai   0x3              	ANDAI	0x03
0007ee   f587     jbclr   0x187, 0x2       	JBCLR	PFLAG,2
0007ef   a80a     goto    0x80a            	GOTO	_00654_DS_
                                           ;	.line	1670; "123.c"	if(GV_SetDaySingleDig)
0007f0   3c00     movai   0                	MOVAI	0x00
0007f1   5c63     orar    0x63             	ORAR	_GV_SetDaySingleDig
0007f2   f587     jbclr   0x187, 0x2       	JBCLR	PFLAG,2
0007f3   a7f6     goto    0x7f6            	GOTO	_00640_DS_
                                           ;	.line	1672; "123.c"	GV_SetDaySingleDig--;
0007f4   6e63     decr    0x63             	DECR	_GV_SetDaySingleDig
0007f5   a7fd     goto    0x7fd            	GOTO	_00641_DS_
                                           _00640_DS_
                                           ;	.line	1676; "123.c"	if(GV_SetDayTenDig)
0007f6   3c00     movai   0                	MOVAI	0x00
0007f7   5c64     orar    0x64             	ORAR	_GV_SetDayTenDig
0007f8   f587     jbclr   0x187, 0x2       	JBCLR	PFLAG,2
0007f9   a7fd     goto    0x7fd            	GOTO	_00641_DS_
                                           ;	.line	1678; "123.c"	GV_SetDaySingleDig = 9;
0007fa   3c09     movai   0x9              	MOVAI	0x09
0007fb   5663     movra   0x63             	MOVRA	_GV_SetDaySingleDig
                                           ;	.line	1679; "123.c"	GV_SetDayTenDig--;
0007fc   6e64     decr    0x64             	DECR	_GV_SetDayTenDig
                                           _00641_DS_
                                           ;	.line	1682; "123.c"	if((GV_SetDaySingleDig==0)&&(GV_SetDayTenDig==0))
0007fd   3c00     movai   0                	MOVAI	0x00
0007fe   5c63     orar    0x63             	ORAR	_GV_SetDaySingleDig
0007ff   e587     jbset   0x187, 0x2       	JBSET	PFLAG,2
000800   a88e     goto    0x88e            	GOTO	_00716_DS_
000801   3c00     movai   0                	MOVAI	0x00
000802   5c64     orar    0x64             	ORAR	_GV_SetDayTenDig
000803   e587     jbset   0x187, 0x2       	JBSET	PFLAG,2
000804   a88e     goto    0x88e            	GOTO	_00716_DS_
                                           ;	.line	1684; "123.c"	GV_SetDaySingleDig = 9;
000805   3c09     movai   0x9              	MOVAI	0x09
000806   5663     movra   0x63             	MOVRA	_GV_SetDaySingleDig
                                           ;	.line	1685; "123.c"	GV_SetDayTenDig = 2;
000807   3c02     movai   0x2              	MOVAI	0x02
000808   5664     movra   0x64             	MOVRA	_GV_SetDayTenDig
000809   a88e     goto    0x88e            	GOTO	_00716_DS_
                                           _00654_DS_
                                           ;	.line	1690; "123.c"	if(GV_SetDaySingleDig)
00080a   3c00     movai   0                	MOVAI	0x00
00080b   5c63     orar    0x63             	ORAR	_GV_SetDaySingleDig
00080c   f587     jbclr   0x187, 0x2       	JBCLR	PFLAG,2
00080d   a810     goto    0x810            	GOTO	_00648_DS_
                                           ;	.line	1692; "123.c"	GV_SetDaySingleDig--;
00080e   6e63     decr    0x63             	DECR	_GV_SetDaySingleDig
00080f   a817     goto    0x817            	GOTO	_00649_DS_
                                           _00648_DS_
                                           ;	.line	1696; "123.c"	if(GV_SetDayTenDig)
000810   3c00     movai   0                	MOVAI	0x00
000811   5c64     orar    0x64             	ORAR	_GV_SetDayTenDig
000812   f587     jbclr   0x187, 0x2       	JBCLR	PFLAG,2
000813   a817     goto    0x817            	GOTO	_00649_DS_
                                           ;	.line	1698; "123.c"	GV_SetDaySingleDig = 9;
000814   3c09     movai   0x9              	MOVAI	0x09
000815   5663     movra   0x63             	MOVRA	_GV_SetDaySingleDig
                                           ;	.line	1699; "123.c"	GV_SetDayTenDig--;
000816   6e64     decr    0x64             	DECR	_GV_SetDayTenDig
                                           _00649_DS_
                                           ;	.line	1702; "123.c"	if((GV_SetDaySingleDig==0)&&(GV_SetDayTenDig==0))
000817   3c00     movai   0                	MOVAI	0x00
000818   5c63     orar    0x63             	ORAR	_GV_SetDaySingleDig
000819   e587     jbset   0x187, 0x2       	JBSET	PFLAG,2
00081a   a88e     goto    0x88e            	GOTO	_00716_DS_
00081b   3c00     movai   0                	MOVAI	0x00
00081c   5c64     orar    0x64             	ORAR	_GV_SetDayTenDig
00081d   e587     jbset   0x187, 0x2       	JBSET	PFLAG,2
00081e   a88e     goto    0x88e            	GOTO	_00716_DS_
                                           ;	.line	1704; "123.c"	GV_SetDaySingleDig = 8;
00081f   3c08     movai   0x8              	MOVAI	0x08
000820   5663     movra   0x63             	MOVRA	_GV_SetDaySingleDig
                                           ;	.line	1705; "123.c"	GV_SetDayTenDig = 2;
000821   3c02     movai   0x2              	MOVAI	0x02
000822   5664     movra   0x64             	MOVRA	_GV_SetDayTenDig
000823   a88e     goto    0x88e            	GOTO	_00716_DS_
                                           _00670_DS_
                                           ;	.line	1710; "123.c"	else if(LV_TempMonth==4||LV_TempMonth==6||LV_TempMonth==9||LV_TempMonth==11)
000824   580e     movar   0xe              	MOVAR	r0x105A
000825   3904     xorai   0x4              	XORAI	0x04
000826   e587     jbset   0x187, 0x2       	JBSET	PFLAG,2
000827   a829     goto    0x829            	GOTO	_00817_DS_
000828   a837     goto    0x837            	GOTO	_00664_DS_
                                           _00817_DS_
000829   580e     movar   0xe              	MOVAR	r0x105A
00082a   3906     xorai   0x6              	XORAI	0x06
00082b   e587     jbset   0x187, 0x2       	JBSET	PFLAG,2
00082c   a82e     goto    0x82e            	GOTO	_00818_DS_
00082d   a837     goto    0x837            	GOTO	_00664_DS_
                                           _00818_DS_
00082e   580e     movar   0xe              	MOVAR	r0x105A
00082f   3909     xorai   0x9              	XORAI	0x09
000830   e587     jbset   0x187, 0x2       	JBSET	PFLAG,2
000831   a833     goto    0x833            	GOTO	_00819_DS_
000832   a837     goto    0x837            	GOTO	_00664_DS_
                                           _00819_DS_
000833   580e     movar   0xe              	MOVAR	r0x105A
000834   390b     xorai   0xb              	XORAI	0x0b
000835   e587     jbset   0x187, 0x2       	JBSET	PFLAG,2
000836   a88e     goto    0x88e            	GOTO	_00716_DS_
                                           _00664_DS_
                                           ;	.line	1712; "123.c"	if(GV_SetDaySingleDig)
000837   3c00     movai   0                	MOVAI	0x00
000838   5c63     orar    0x63             	ORAR	_GV_SetDaySingleDig
000839   f587     jbclr   0x187, 0x2       	JBCLR	PFLAG,2
00083a   a83d     goto    0x83d            	GOTO	_00659_DS_
                                           ;	.line	1714; "123.c"	GV_SetDaySingleDig--;
00083b   6e63     decr    0x63             	DECR	_GV_SetDaySingleDig
00083c   a844     goto    0x844            	GOTO	_00660_DS_
                                           _00659_DS_
                                           ;	.line	1718; "123.c"	if(GV_SetDayTenDig)
00083d   3c00     movai   0                	MOVAI	0x00
00083e   5c64     orar    0x64             	ORAR	_GV_SetDayTenDig
00083f   f587     jbclr   0x187, 0x2       	JBCLR	PFLAG,2
000840   a844     goto    0x844            	GOTO	_00660_DS_
                                           ;	.line	1720; "123.c"	GV_SetDaySingleDig = 9;
000841   3c09     movai   0x9              	MOVAI	0x09
000842   5663     movra   0x63             	MOVRA	_GV_SetDaySingleDig
                                           ;	.line	1721; "123.c"	GV_SetDayTenDig--;
000843   6e64     decr    0x64             	DECR	_GV_SetDayTenDig
                                           _00660_DS_
                                           ;	.line	1724; "123.c"	if((GV_SetDaySingleDig==0)&&(GV_SetDayTenDig==0))
000844   3c00     movai   0                	MOVAI	0x00
000845   5c63     orar    0x63             	ORAR	_GV_SetDaySingleDig
000846   e587     jbset   0x187, 0x2       	JBSET	PFLAG,2
000847   a88e     goto    0x88e            	GOTO	_00716_DS_
000848   3c00     movai   0                	MOVAI	0x00
000849   5c64     orar    0x64             	ORAR	_GV_SetDayTenDig
00084a   e587     jbset   0x187, 0x2       	JBSET	PFLAG,2
00084b   a88e     goto    0x88e            	GOTO	_00716_DS_
                                           ;	.line	1726; "123.c"	GV_SetDaySingleDig = 0;
00084c   7663     clrr    0x63             	CLRR	_GV_SetDaySingleDig
                                           ;	.line	1727; "123.c"	GV_SetDayTenDig = 3;
00084d   3c03     movai   0x3              	MOVAI	0x03
00084e   5664     movra   0x64             	MOVRA	_GV_SetDayTenDig
00084f   a88e     goto    0x88e            	GOTO	_00716_DS_
                                           _00708_DS_
                                           ;	.line	1735; "123.c"	else if(GV_RealTimeClockSetStep==3)
000850   5853     movar   0x53             	MOVAR	_GV_RealTimeClockSetStep
000851   3903     xorai   0x3              	XORAI	0x03
000852   e587     jbset   0x187, 0x2       	JBSET	PFLAG,2
000853   a878     goto    0x878            	GOTO	_00705_DS_
                                           ;	.line	1737; "123.c"	if(GV_SetRealTimeClockHrSingleDig)
000854   3c00     movai   0                	MOVAI	0x00
000855   5c67     orar    0x67             	ORAR	_GV_SetRealTimeClockHrSingleDig
000856   f587     jbclr   0x187, 0x2       	JBCLR	PFLAG,2
000857   a85a     goto    0x85a            	GOTO	_00688_DS_
                                           ;	.line	1739; "123.c"	GV_SetRealTimeClockHrSingleDig--;
000858   6e67     decr    0x67             	DECR	_GV_SetRealTimeClockHrSingleDig
000859   a866     goto    0x866            	GOTO	_00689_DS_
                                           _00688_DS_
                                           ;	.line	1743; "123.c"	if(GV_SetRealTimeClockHrTenDig)
00085a   3c00     movai   0                	MOVAI	0x00
00085b   5c68     orar    0x68             	ORAR	_GV_SetRealTimeClockHrTenDig
00085c   f587     jbclr   0x187, 0x2       	JBCLR	PFLAG,2
00085d   a862     goto    0x862            	GOTO	_00685_DS_
                                           ;	.line	1745; "123.c"	GV_SetRealTimeClockHrSingleDig = 9;
00085e   3c09     movai   0x9              	MOVAI	0x09
00085f   5667     movra   0x67             	MOVRA	_GV_SetRealTimeClockHrSingleDig
                                           ;	.line	1746; "123.c"	GV_SetRealTimeClockHrTenDig--;
000860   6e68     decr    0x68             	DECR	_GV_SetRealTimeClockHrTenDig
000861   a866     goto    0x866            	GOTO	_00689_DS_
                                           _00685_DS_
                                           ;	.line	1750; "123.c"	GV_SetRealTimeClockHrSingleDig = 2;
000862   3c02     movai   0x2              	MOVAI	0x02
000863   5667     movra   0x67             	MOVRA	_GV_SetRealTimeClockHrSingleDig
                                           ;	.line	1751; "123.c"	GV_SetRealTimeClockHrTenDig = 1;
000864   3c01     movai   0x1              	MOVAI	0x01
000865   5668     movra   0x68             	MOVRA	_GV_SetRealTimeClockHrTenDig
                                           _00689_DS_
                                           ;	.line	1755; "123.c"	if((GV_SetRealTimeClockHrSingleDig==0)&&(GV_SetRealTimeClockHrTenDig==0))
000866   3c00     movai   0                	MOVAI	0x00
000867   5c67     orar    0x67             	ORAR	_GV_SetRealTimeClockHrSingleDig
000868   e587     jbset   0x187, 0x2       	JBSET	PFLAG,2
000869   a88e     goto    0x88e            	GOTO	_00716_DS_
00086a   3c00     movai   0                	MOVAI	0x00
00086b   5c68     orar    0x68             	ORAR	_GV_SetRealTimeClockHrTenDig
00086c   e587     jbset   0x187, 0x2       	JBSET	PFLAG,2
00086d   a88e     goto    0x88e            	GOTO	_00716_DS_
                                           ;	.line	1757; "123.c"	if(BF_SetRealTimeClockAM_PM)
00086e   e445     jbset   0x45, 0x2        	JBSET	_UserFlag,2
00086f   a872     goto    0x872            	GOTO	_00691_DS_
                                           ;	.line	1759; "123.c"	BF_SetRealTimeClockAM_PM = 0;
000870   d445     bclr    0x45, 0x2        	BCLR	_UserFlag,2
000871   a873     goto    0x873            	GOTO	_00692_DS_
                                           _00691_DS_
                                           ;	.line	1763; "123.c"	BF_SetRealTimeClockAM_PM = 1;
000872   c445     bset    0x45, 0x2        	BSET	_UserFlag,2
                                           _00692_DS_
                                           ;	.line	1765; "123.c"	GV_SetRealTimeClockHrSingleDig = 0x02;
000873   3c02     movai   0x2              	MOVAI	0x02
000874   5667     movra   0x67             	MOVRA	_GV_SetRealTimeClockHrSingleDig
                                           ;	.line	1766; "123.c"	GV_SetRealTimeClockHrTenDig = 0x01;
000875   3c01     movai   0x1              	MOVAI	0x01
000876   5668     movra   0x68             	MOVRA	_GV_SetRealTimeClockHrTenDig
000877   a88e     goto    0x88e            	GOTO	_00716_DS_
                                           _00705_DS_
                                           ;	.line	1769; "123.c"	else if(GV_RealTimeClockSetStep==4)
000878   5853     movar   0x53             	MOVAR	_GV_RealTimeClockSetStep
000879   3904     xorai   0x4              	XORAI	0x04
00087a   e587     jbset   0x187, 0x2       	JBSET	PFLAG,2
00087b   a88e     goto    0x88e            	GOTO	_00716_DS_
                                           ;	.line	1771; "123.c"	if(GV_SetRealTimeClockMinSingleDig)
00087c   3c00     movai   0                	MOVAI	0x00
00087d   5c69     orar    0x69             	ORAR	_GV_SetRealTimeClockMinSingleDig
00087e   f587     jbclr   0x187, 0x2       	JBCLR	PFLAG,2
00087f   a882     goto    0x882            	GOTO	_00700_DS_
                                           ;	.line	1773; "123.c"	GV_SetRealTimeClockMinSingleDig--;
000880   6e69     decr    0x69             	DECR	_GV_SetRealTimeClockMinSingleDig
000881   a88e     goto    0x88e            	GOTO	_00716_DS_
                                           _00700_DS_
                                           ;	.line	1777; "123.c"	if(GV_SetRealTimeClockMinTenDig)
000882   3c00     movai   0                	MOVAI	0x00
000883   5c6a     orar    0x6a             	ORAR	_GV_SetRealTimeClockMinTenDig
000884   f587     jbclr   0x187, 0x2       	JBCLR	PFLAG,2
000885   a88a     goto    0x88a            	GOTO	_00697_DS_
                                           ;	.line	1779; "123.c"	GV_SetRealTimeClockMinSingleDig = 9;
000886   3c09     movai   0x9              	MOVAI	0x09
000887   5669     movra   0x69             	MOVRA	_GV_SetRealTimeClockMinSingleDig
                                           ;	.line	1780; "123.c"	GV_SetRealTimeClockMinTenDig--;
000888   6e6a     decr    0x6a             	DECR	_GV_SetRealTimeClockMinTenDig
000889   a88e     goto    0x88e            	GOTO	_00716_DS_
                                           _00697_DS_
                                           ;	.line	1784; "123.c"	GV_SetRealTimeClockMinSingleDig = 9;
00088a   3c09     movai   0x9              	MOVAI	0x09
00088b   5669     movra   0x69             	MOVRA	_GV_SetRealTimeClockMinSingleDig
                                           ;	.line	1785; "123.c"	GV_SetRealTimeClockMinTenDig = 5;
00088c   3c05     movai   0x5              	MOVAI	0x05
00088d   566a     movra   0x6a             	MOVRA	_GV_SetRealTimeClockMinTenDig
                                           _00716_DS_
00088e   000c     return                   	RETURN	
                                           ; exit point of _Sub_RealTimeClockDec
                                           
                                           ;***
                                           ;  pBlock Stats: dbName = C
                                           ;***
                                           ;entry:  _Sub_DownShortLongKeyAlarmSet	;Function start
                                           ; 2 exit points
                                           ;has an exit
                                           ;functions called:
                                           ;   _Sub_SetAlarmDecTimer
                                           ;   _Sub_SetAlarmDecTimer
                                           ;   _Sub_SetAlarmDecTimer
                                           ;   _Sub_SetAlarmDecTimer
                                           ;; Starting pCode block
                                           _Sub_DownShortLongKeyAlarmSet	;Function start
                                           ; 2 exit points
                                           ;	.line	1554; "123.c"	BF_DownKeyPressesd = 1;
00088f   cc45     bset    0x45, 0x6        	BSET	_UserFlag,6
                                           ;	.line	1555; "123.c"	if(BF_DownLongKeyPressesd)//
000890   ee45     jbset   0x45, 0x7        	JBSET	_UserFlag,7
000891   a8a2     goto    0x8a2            	GOTO	_00599_DS_
                                           ;	.line	1557; "123.c"	if(++GV_LongKeyTimer < 125) return;//125*2ms=250ms
000892   663f     incr    0x3f             	INCR	_GV_LongKeyTimer
000893   f587     jbclr   0x187, 0x2       	JBCLR	PFLAG,2
000894   6640     incr    0x40             	INCR	(_GV_LongKeyTimer + 1)
                                           ;;unsigned compare: left < lit(0x7D=125), size=2
000895   3c00     movai   0                	MOVAI	0x00
000896   4840     rsubar  0x40             	RSUBAR	(_GV_LongKeyTimer + 1)
000897   e587     jbset   0x187, 0x2       	JBSET	PFLAG,2
000898   a89b     goto    0x89b            	GOTO	_00609_DS_
000899   3c7d     movai   0x7d             	MOVAI	0x7d
00089a   483f     rsubar  0x3f             	RSUBAR	_GV_LongKeyTimer
                                           _00609_DS_
00089b   f187     jbclr   0x187, 0         	JBCLR	PFLAG,0
00089c   a89e     goto    0x89e            	GOTO	_00595_DS_
                                           ;;genSkipc:3195: created from rifx:00DE608C
00089d   a8b2     goto    0x8b2            	GOTO	_00601_DS_
                                           _00595_DS_
                                           ;	.line	1559; "123.c"	GV_LongKeyTimer = 0;
00089e   763f     clrr    0x3f             	CLRR	_GV_LongKeyTimer
00089f   7640     clrr    0x40             	CLRR	(_GV_LongKeyTimer + 1)
                                           ;	.line	1560; "123.c"	Sub_SetAlarmDecTimer();
0008a0   88b3     call    0x8b3            	CALL	_Sub_SetAlarmDecTimer
0008a1   a8b2     goto    0x8b2            	GOTO	_00601_DS_
                                           _00599_DS_
                                           ;	.line	1565; "123.c"	if(++GV_LongKeyTimer < 500) return;//500*2ms=1s
0008a2   663f     incr    0x3f             	INCR	_GV_LongKeyTimer
0008a3   f587     jbclr   0x187, 0x2       	JBCLR	PFLAG,2
0008a4   6640     incr    0x40             	INCR	(_GV_LongKeyTimer + 1)
                                           ;;unsigned compare: left < lit(0x1F4=500), size=2
0008a5   3c01     movai   0x1              	MOVAI	0x01
0008a6   4840     rsubar  0x40             	RSUBAR	(_GV_LongKeyTimer + 1)
0008a7   e587     jbset   0x187, 0x2       	JBSET	PFLAG,2
0008a8   a8ab     goto    0x8ab            	GOTO	_00610_DS_
0008a9   3cf4     movai   0xf4             	MOVAI	0xf4
0008aa   483f     rsubar  0x3f             	RSUBAR	_GV_LongKeyTimer
                                           _00610_DS_
0008ab   f187     jbclr   0x187, 0         	JBCLR	PFLAG,0
0008ac   a8ae     goto    0x8ae            	GOTO	_00597_DS_
                                           ;;genSkipc:3195: created from rifx:00DE608C
0008ad   a8b2     goto    0x8b2            	GOTO	_00601_DS_
                                           _00597_DS_
                                           ;	.line	1567; "123.c"	GV_LongKeyTimer = 0;
0008ae   763f     clrr    0x3f             	CLRR	_GV_LongKeyTimer
0008af   7640     clrr    0x40             	CLRR	(_GV_LongKeyTimer + 1)
                                           ;	.line	1568; "123.c"	BF_DownLongKeyPressesd = 1;
0008b0   ce45     bset    0x45, 0x7        	BSET	_UserFlag,7
                                           ;	.line	1569; "123.c"	Sub_SetAlarmDecTimer();
0008b1   88b3     call    0x8b3            	CALL	_Sub_SetAlarmDecTimer
                                           _00601_DS_
0008b2   000c     return                   	RETURN	
                                           ; exit point of _Sub_DownShortLongKeyAlarmSet
                                           
                                           ;***
                                           ;  pBlock Stats: dbName = C
                                           ;***
                                           ;entry:  _Sub_SetAlarmDecTimer	;Function start
                                           ; 2 exit points
                                           ;has an exit
                                           ;; Starting pCode block
                                           _Sub_SetAlarmDecTimer	;Function start
                                           ; 2 exit points
                                           ;	.line	1429; "123.c"	if(GV_AlarmClockSetStep==0)
0008b3   3c00     movai   0                	MOVAI	0x00
0008b4   5c54     orar    0x54             	ORAR	_GV_AlarmClockSetStep
0008b5   f587     jbclr   0x187, 0x2       	JBCLR	PFLAG,2
0008b6   a8f0     goto    0x8f0            	GOTO	_00589_DS_
                                           ;	.line	1433; "123.c"	else if(GV_AlarmClockSetStep==1)
0008b7   5854     movar   0x54             	MOVAR	_GV_AlarmClockSetStep
0008b8   3901     xorai   0x1              	XORAI	0x01
0008b9   e587     jbset   0x187, 0x2       	JBSET	PFLAG,2
0008ba   a8da     goto    0x8da            	GOTO	_00584_DS_
                                           ;	.line	1435; "123.c"	if(GV_SetAlarmClockHrSingleDig)
0008bb   3c00     movai   0                	MOVAI	0x00
0008bc   5c6f     orar    0x6f             	ORAR	_GV_SetAlarmClockHrSingleDig
0008bd   f587     jbclr   0x187, 0x2       	JBCLR	PFLAG,2
0008be   a8c1     goto    0x8c1            	GOTO	_00567_DS_
                                           ;	.line	1437; "123.c"	GV_SetAlarmClockHrSingleDig--;
0008bf   6e6f     decr    0x6f             	DECR	_GV_SetAlarmClockHrSingleDig
0008c0   a8c8     goto    0x8c8            	GOTO	_00568_DS_
                                           _00567_DS_
                                           ;	.line	1441; "123.c"	if(GV_SetAlarmClockHrTenDig)
0008c1   3c00     movai   0                	MOVAI	0x00
0008c2   5c70     orar    0x70             	ORAR	_GV_SetAlarmClockHrTenDig
0008c3   f587     jbclr   0x187, 0x2       	JBCLR	PFLAG,2
0008c4   a8c8     goto    0x8c8            	GOTO	_00568_DS_
                                           ;	.line	1443; "123.c"	GV_SetAlarmClockHrSingleDig = 9;
0008c5   3c09     movai   0x9              	MOVAI	0x09
0008c6   566f     movra   0x6f             	MOVRA	_GV_SetAlarmClockHrSingleDig
                                           ;	.line	1444; "123.c"	GV_SetAlarmClockHrTenDig--;
0008c7   6e70     decr    0x70             	DECR	_GV_SetAlarmClockHrTenDig
                                           _00568_DS_
                                           ;	.line	1447; "123.c"	if((GV_SetAlarmClockHrSingleDig==0)&&(GV_SetAlarmClockHrTenDig==0))
0008c8   3c00     movai   0                	MOVAI	0x00
0008c9   5c6f     orar    0x6f             	ORAR	_GV_SetAlarmClockHrSingleDig
0008ca   e587     jbset   0x187, 0x2       	JBSET	PFLAG,2
0008cb   a8f0     goto    0x8f0            	GOTO	_00589_DS_
0008cc   3c00     movai   0                	MOVAI	0x00
0008cd   5c70     orar    0x70             	ORAR	_GV_SetAlarmClockHrTenDig
0008ce   e587     jbset   0x187, 0x2       	JBSET	PFLAG,2
0008cf   a8f0     goto    0x8f0            	GOTO	_00589_DS_
                                           ;	.line	1449; "123.c"	if(BF_SetAlarmAM_PM)
0008d0   e446     jbset   0x46, 0x2        	JBSET	_UserFlag1,2
0008d1   a8d4     goto    0x8d4            	GOTO	_00570_DS_
                                           ;	.line	1451; "123.c"	BF_SetAlarmAM_PM = 0;
0008d2   d446     bclr    0x46, 0x2        	BCLR	_UserFlag1,2
0008d3   a8d5     goto    0x8d5            	GOTO	_00571_DS_
                                           _00570_DS_
                                           ;	.line	1455; "123.c"	BF_SetAlarmAM_PM = 1;
0008d4   c446     bset    0x46, 0x2        	BSET	_UserFlag1,2
                                           _00571_DS_
                                           ;	.line	1457; "123.c"	GV_SetAlarmClockHrSingleDig = 0x02;
0008d5   3c02     movai   0x2              	MOVAI	0x02
0008d6   566f     movra   0x6f             	MOVRA	_GV_SetAlarmClockHrSingleDig
                                           ;	.line	1458; "123.c"	GV_SetAlarmClockHrTenDig = 0x01;
0008d7   3c01     movai   0x1              	MOVAI	0x01
0008d8   5670     movra   0x70             	MOVRA	_GV_SetAlarmClockHrTenDig
0008d9   a8f0     goto    0x8f0            	GOTO	_00589_DS_
                                           _00584_DS_
                                           ;	.line	1461; "123.c"	else if(GV_AlarmClockSetStep==2)
0008da   5854     movar   0x54             	MOVAR	_GV_AlarmClockSetStep
0008db   3902     xorai   0x2              	XORAI	0x02
0008dc   e587     jbset   0x187, 0x2       	JBSET	PFLAG,2
0008dd   a8f0     goto    0x8f0            	GOTO	_00589_DS_
                                           ;	.line	1463; "123.c"	if(GV_SetAlarmClockMinSingleDig)
0008de   3c00     movai   0                	MOVAI	0x00
0008df   5c71     orar    0x71             	ORAR	_GV_SetAlarmClockMinSingleDig
0008e0   f587     jbclr   0x187, 0x2       	JBCLR	PFLAG,2
0008e1   a8e4     goto    0x8e4            	GOTO	_00579_DS_
                                           ;	.line	1465; "123.c"	GV_SetAlarmClockMinSingleDig--;
0008e2   6e71     decr    0x71             	DECR	_GV_SetAlarmClockMinSingleDig
0008e3   a8f0     goto    0x8f0            	GOTO	_00589_DS_
                                           _00579_DS_
                                           ;	.line	1469; "123.c"	if(GV_SetAlarmClockMinTenDig)
0008e4   3c00     movai   0                	MOVAI	0x00
0008e5   5c72     orar    0x72             	ORAR	_GV_SetAlarmClockMinTenDig
0008e6   f587     jbclr   0x187, 0x2       	JBCLR	PFLAG,2
0008e7   a8ec     goto    0x8ec            	GOTO	_00576_DS_
                                           ;	.line	1471; "123.c"	GV_SetAlarmClockMinSingleDig = 9;
0008e8   3c09     movai   0x9              	MOVAI	0x09
0008e9   5671     movra   0x71             	MOVRA	_GV_SetAlarmClockMinSingleDig
                                           ;	.line	1472; "123.c"	GV_SetAlarmClockMinTenDig--;
0008ea   6e72     decr    0x72             	DECR	_GV_SetAlarmClockMinTenDig
0008eb   a8f0     goto    0x8f0            	GOTO	_00589_DS_
                                           _00576_DS_
                                           ;	.line	1476; "123.c"	GV_SetAlarmClockMinSingleDig = 9;
0008ec   3c09     movai   0x9              	MOVAI	0x09
0008ed   5671     movra   0x71             	MOVRA	_GV_SetAlarmClockMinSingleDig
                                           ;	.line	1477; "123.c"	GV_SetAlarmClockMinTenDig = 5;
0008ee   3c05     movai   0x5              	MOVAI	0x05
0008ef   5672     movra   0x72             	MOVRA	_GV_SetAlarmClockMinTenDig
                                           _00589_DS_
0008f0   000c     return                   	RETURN	
                                           ; exit point of _Sub_SetAlarmDecTimer
                                           
                                           ;***
                                           ;  pBlock Stats: dbName = C
                                           ;***
                                           ;entry:  _Sub_Up_AlShortLongKeyClockSet	;Function start
                                           ; 2 exit points
                                           ;has an exit
                                           ;functions called:
                                           ;   _Sub_RealTimeClockAdd
                                           ;   _Sub_RealTimeClockAdd
                                           ;   _Sub_RealTimeClockAdd
                                           ;   _Sub_RealTimeClockAdd
                                           ;; Starting pCode block
                                           _Sub_Up_AlShortLongKeyClockSet	;Function start
                                           ; 2 exit points
                                           ;	.line	1397; "123.c"	BF_Up_AlKeyPressesd = 1;
0008f1   c845     bset    0x45, 0x4        	BSET	_UserFlag,4
                                           ;	.line	1398; "123.c"	if(BF_Up_AlLongKeyPressesd)//
0008f2   ea45     jbset   0x45, 0x5        	JBSET	_UserFlag,5
0008f3   a904     goto    0x904            	GOTO	_00548_DS_
                                           ;	.line	1400; "123.c"	if(++GV_LongKeyTimer < 125) return;//125*2ms=250ms
0008f4   663f     incr    0x3f             	INCR	_GV_LongKeyTimer
0008f5   f587     jbclr   0x187, 0x2       	JBCLR	PFLAG,2
0008f6   6640     incr    0x40             	INCR	(_GV_LongKeyTimer + 1)
                                           ;;unsigned compare: left < lit(0x7D=125), size=2
0008f7   3c00     movai   0                	MOVAI	0x00
0008f8   4840     rsubar  0x40             	RSUBAR	(_GV_LongKeyTimer + 1)
0008f9   e587     jbset   0x187, 0x2       	JBSET	PFLAG,2
0008fa   a8fd     goto    0x8fd            	GOTO	_00558_DS_
0008fb   3c7d     movai   0x7d             	MOVAI	0x7d
0008fc   483f     rsubar  0x3f             	RSUBAR	_GV_LongKeyTimer
                                           _00558_DS_
0008fd   f187     jbclr   0x187, 0         	JBCLR	PFLAG,0
0008fe   a900     goto    0x900            	GOTO	_00544_DS_
                                           ;;genSkipc:3195: created from rifx:00DE608C
0008ff   a914     goto    0x914            	GOTO	_00550_DS_
                                           _00544_DS_
                                           ;	.line	1402; "123.c"	GV_LongKeyTimer = 0;
000900   763f     clrr    0x3f             	CLRR	_GV_LongKeyTimer
000901   7640     clrr    0x40             	CLRR	(_GV_LongKeyTimer + 1)
                                           ;	.line	1403; "123.c"	Sub_RealTimeClockAdd();
000902   8915     call    0x915            	CALL	_Sub_RealTimeClockAdd
000903   a914     goto    0x914            	GOTO	_00550_DS_
                                           _00548_DS_
                                           ;	.line	1408; "123.c"	if(++GV_LongKeyTimer < 500) return;//500*2ms=1s
000904   663f     incr    0x3f             	INCR	_GV_LongKeyTimer
000905   f587     jbclr   0x187, 0x2       	JBCLR	PFLAG,2
000906   6640     incr    0x40             	INCR	(_GV_LongKeyTimer + 1)
                                           ;;unsigned compare: left < lit(0x1F4=500), size=2
000907   3c01     movai   0x1              	MOVAI	0x01
000908   4840     rsubar  0x40             	RSUBAR	(_GV_LongKeyTimer + 1)
000909   e587     jbset   0x187, 0x2       	JBSET	PFLAG,2
00090a   a90d     goto    0x90d            	GOTO	_00559_DS_
00090b   3cf4     movai   0xf4             	MOVAI	0xf4
00090c   483f     rsubar  0x3f             	RSUBAR	_GV_LongKeyTimer
                                           _00559_DS_
00090d   f187     jbclr   0x187, 0         	JBCLR	PFLAG,0
00090e   a910     goto    0x910            	GOTO	_00546_DS_
                                           ;;genSkipc:3195: created from rifx:00DE608C
00090f   a914     goto    0x914            	GOTO	_00550_DS_
                                           _00546_DS_
                                           ;	.line	1410; "123.c"	GV_LongKeyTimer = 0;
000910   763f     clrr    0x3f             	CLRR	_GV_LongKeyTimer
000911   7640     clrr    0x40             	CLRR	(_GV_LongKeyTimer + 1)
                                           ;	.line	1411; "123.c"	BF_Up_AlLongKeyPressesd = 1;
000912   ca45     bset    0x45, 0x5        	BSET	_UserFlag,5
                                           ;	.line	1412; "123.c"	Sub_RealTimeClockAdd();
000913   8915     call    0x915            	CALL	_Sub_RealTimeClockAdd
                                           _00550_DS_
000914   000c     return                   	RETURN	
                                           ; exit point of _Sub_Up_AlShortLongKeyClockSet
                                           
                                           ;***
                                           ;  pBlock Stats: dbName = C
                                           ;***
                                           ;entry:  _Sub_RealTimeClockAdd	;Function start
                                           ; 2 exit points
                                           ;has an exit
                                           ;functions called:
                                           ;   _Sub_Read1302
                                           ;   __mulchar
                                           ;   _Sub_Read1302
                                           ;   __mulchar
                                           ;   _Sub_Read1302
                                           ;   __mulchar
                                           ;   _Sub_Read1302
                                           ;   __mulchar
                                           ;5 compiler assigned registers:
                                           ;   r0x105A
                                           ;   r0x105B
                                           ;   STK00
                                           ;   r0x105C
                                           ;   r0x105D
                                           ;; Starting pCode block
                                           _Sub_RealTimeClockAdd	;Function start
                                           ; 2 exit points
                                           ;	.line	995; "123.c"	if(GV_RealTimeClockSetStep==0)
000915   3c00     movai   0                	MOVAI	0x00
000916   5c53     orar    0x53             	ORAR	_GV_RealTimeClockSetStep
000917   e587     jbset   0x187, 0x2       	JBSET	PFLAG,2
000918   a92b     goto    0x92b            	GOTO	_00428_DS_
                                           ;	.line	997; "123.c"	GV_SetYearSingleDig++;
000919   6659     incr    0x59             	INCR	_GV_SetYearSingleDig
                                           ;;unsigned compare: left < lit(0xA=10), size=1
                                           ;	.line	998; "123.c"	if(GV_SetYearSingleDig >= 10)
00091a   3c0a     movai   0xa              	MOVAI	0x0a
00091b   4859     rsubar  0x59             	RSUBAR	_GV_SetYearSingleDig
00091c   e187     jbset   0x187, 0         	JBSET	PFLAG,0
00091d   a920     goto    0x920            	GOTO	_00351_DS_
                                           ;;genSkipc:3195: created from rifx:00DE608C
                                           ;	.line	1000; "123.c"	GV_SetYearSingleDig = 0;
00091e   7659     clrr    0x59             	CLRR	_GV_SetYearSingleDig
                                           ;	.line	1001; "123.c"	GV_SetYearTenDig++;
00091f   665a     incr    0x5a             	INCR	_GV_SetYearTenDig
                                           _00351_DS_
                                           ;	.line	1003; "123.c"	if((GV_SetYearSingleDig == 0)&&(GV_SetYearTenDig >= 10))
000920   3c00     movai   0                	MOVAI	0x00
000921   5c59     orar    0x59             	ORAR	_GV_SetYearSingleDig
000922   e587     jbset   0x187, 0x2       	JBSET	PFLAG,2
000923   aa22     goto    0xa22            	GOTO	_00430_DS_
                                           ;;unsigned compare: left < lit(0xA=10), size=1
000924   3c0a     movai   0xa              	MOVAI	0x0a
000925   485a     rsubar  0x5a             	RSUBAR	_GV_SetYearTenDig
000926   e187     jbset   0x187, 0         	JBSET	PFLAG,0
000927   aa22     goto    0xa22            	GOTO	_00430_DS_
                                           ;;genSkipc:3195: created from rifx:00DE608C
                                           ;	.line	1005; "123.c"	GV_SetYearSingleDig = 0;
000928   7659     clrr    0x59             	CLRR	_GV_SetYearSingleDig
                                           ;	.line	1006; "123.c"	GV_SetYearTenDig = 0;
000929   765a     clrr    0x5a             	CLRR	_GV_SetYearTenDig
00092a   aa22     goto    0xa22            	GOTO	_00430_DS_
                                           _00428_DS_
                                           ;	.line	1009; "123.c"	else if(GV_RealTimeClockSetStep==1)
00092b   5853     movar   0x53             	MOVAR	_GV_RealTimeClockSetStep
00092c   3901     xorai   0x1              	XORAI	0x01
00092d   e587     jbset   0x187, 0x2       	JBSET	PFLAG,2
00092e   a942     goto    0x942            	GOTO	_00425_DS_
                                           ;	.line	1011; "123.c"	GV_SetMonthSingleDig++;
00092f   665f     incr    0x5f             	INCR	_GV_SetMonthSingleDig
                                           ;;unsigned compare: left < lit(0xA=10), size=1
                                           ;	.line	1012; "123.c"	if(GV_SetMonthSingleDig >= 10)
000930   3c0a     movai   0xa              	MOVAI	0x0a
000931   485f     rsubar  0x5f             	RSUBAR	_GV_SetMonthSingleDig
000932   e187     jbset   0x187, 0         	JBSET	PFLAG,0
000933   a936     goto    0x936            	GOTO	_00356_DS_
                                           ;;genSkipc:3195: created from rifx:00DE608C
                                           ;	.line	1014; "123.c"	GV_SetMonthSingleDig = 0;
000934   765f     clrr    0x5f             	CLRR	_GV_SetMonthSingleDig
                                           ;	.line	1015; "123.c"	GV_SetMonthTenDig++;
000935   6660     incr    0x60             	INCR	_GV_SetMonthTenDig
                                           ;;unsigned compare: left < lit(0x3=3), size=1
                                           _00356_DS_
                                           ;	.line	1017; "123.c"	if((GV_SetMonthSingleDig >= 3)&&(GV_SetMonthTenDig >= 1))
000936   3c03     movai   0x3              	MOVAI	0x03
000937   485f     rsubar  0x5f             	RSUBAR	_GV_SetMonthSingleDig
000938   e187     jbset   0x187, 0         	JBSET	PFLAG,0
000939   aa22     goto    0xa22            	GOTO	_00430_DS_
                                           ;;genSkipc:3195: created from rifx:00DE608C
                                           ;;unsigned compare: left < lit(0x1=1), size=1
00093a   3c01     movai   0x1              	MOVAI	0x01
00093b   4860     rsubar  0x60             	RSUBAR	_GV_SetMonthTenDig
00093c   e187     jbset   0x187, 0         	JBSET	PFLAG,0
00093d   aa22     goto    0xa22            	GOTO	_00430_DS_
                                           ;;genSkipc:3195: created from rifx:00DE608C
                                           ;	.line	1019; "123.c"	GV_SetMonthSingleDig = 1;
00093e   3c01     movai   0x1              	MOVAI	0x01
00093f   565f     movra   0x5f             	MOVRA	_GV_SetMonthSingleDig
                                           ;	.line	1020; "123.c"	GV_SetMonthTenDig = 0;
000940   7660     clrr    0x60             	CLRR	_GV_SetMonthTenDig
000941   aa22     goto    0xa22            	GOTO	_00430_DS_
                                           _00425_DS_
                                           ;	.line	1023; "123.c"	else if(GV_RealTimeClockSetStep==2)
000942   5853     movar   0x53             	MOVAR	_GV_RealTimeClockSetStep
000943   3902     xorai   0x2              	XORAI	0x02
000944   e587     jbset   0x187, 0x2       	JBSET	PFLAG,2
000945   a9f1     goto    0x9f1            	GOTO	_00422_DS_
                                           ;	.line	1025; "123.c"	Sub_Read1302(C_DS1302_Year);//C_DS1302_Year
000946   3c8c     movai   0x8c             	MOVAI	0x8c
000947   8b9b     call    0xb9b            	CALL	_Sub_Read1302
                                           ;	.line	1026; "123.c"	LV_TempA = GV_GetByteFromDs1302;
000948   5857     movar   0x57             	MOVAR	_GV_GetByteFromDs1302
000949   560e     movra   0xe              	MOVRA	r0x105A
                                           ;	.line	1027; "123.c"	LV_TempB = (LV_TempA>>4)*10;//BCD_TO_HEX
00094a   440e     swapar  0xe              	SWAPAR	r0x105A
00094b   3e0f     andai   0xf              	ANDAI	0x0f
00094c   560f     movra   0xf              	MOVRA	r0x105B
00094d   3c0a     movai   0xa              	MOVAI	0x0a
00094e   5606     movra   0x6              	MOVRA	STK00
00094f   580f     movar   0xf              	MOVAR	r0x105B
000950   8bf2     call    0xbf2            	CALL	__mulchar
000951   5610     movra   0x10             	MOVRA	r0x105C
                                           ;	.line	1028; "123.c"	LV_TempYear = LV_TempA & 0x0f;
000952   3c0f     movai   0xf              	MOVAI	0x0f
000953   780e     andar   0xe              	ANDAR	r0x105A
000954   560f     movra   0xf              	MOVRA	r0x105B
                                           ;	.line	1029; "123.c"	LV_TempYear = LV_TempYear + LV_TempB;
000955   5810     movar   0x10             	MOVAR	r0x105C
000956   7e0f     addra   0xf              	ADDRA	r0x105B
                                           ;	.line	1031; "123.c"	Sub_Read1302(C_DS1302_Month);//C_DS1302_Month
000957   3c88     movai   0x88             	MOVAI	0x88
000958   8b9b     call    0xb9b            	CALL	_Sub_Read1302
                                           ;	.line	1032; "123.c"	LV_TempA = GV_GetByteFromDs1302;
000959   5857     movar   0x57             	MOVAR	_GV_GetByteFromDs1302
00095a   560e     movra   0xe              	MOVRA	r0x105A
                                           ;	.line	1033; "123.c"	LV_TempB = (LV_TempA>>4)*10;//BCD_TO_HEX
00095b   440e     swapar  0xe              	SWAPAR	r0x105A
00095c   3e0f     andai   0xf              	ANDAI	0x0f
00095d   5613     movra   0x13             	MOVRA	r0x105D
00095e   3c0a     movai   0xa              	MOVAI	0x0a
00095f   5606     movra   0x6              	MOVRA	STK00
000960   5813     movar   0x13             	MOVAR	r0x105D
000961   8bf2     call    0xbf2            	CALL	__mulchar
000962   5610     movra   0x10             	MOVRA	r0x105C
                                           ;	.line	1034; "123.c"	LV_TempMonth = LV_TempA & 0x0f;
000963   3c0f     movai   0xf              	MOVAI	0x0f
000964   7a0e     andra   0xe              	ANDRA	r0x105A
                                           ;	.line	1035; "123.c"	LV_TempMonth = LV_TempMonth + LV_TempB;
000965   5810     movar   0x10             	MOVAR	r0x105C
000966   7e0e     addra   0xe              	ADDRA	r0x105A
                                           ;	.line	1037; "123.c"	GV_SetDaySingleDig++; 
000967   6663     incr    0x63             	INCR	_GV_SetDaySingleDig
                                           ;	.line	1039; "123.c"	if(LV_TempMonth==0)
000968   3c00     movai   0                	MOVAI	0x00
000969   5c0e     orar    0xe              	ORAR	r0x105A
00096a   f587     jbclr   0x187, 0x2       	JBCLR	PFLAG,2
00096b   aa22     goto    0xa22            	GOTO	_00430_DS_
                                           ;	.line	1043; "123.c"	else if(LV_TempMonth==1||LV_TempMonth==3||LV_TempMonth==5||LV_TempMonth==7||LV_TempMonth==8||LV_TempMonth==10||LV_TempMonth==12)
00096c   580e     movar   0xe              	MOVAR	r0x105A
00096d   3901     xorai   0x1              	XORAI	0x01
00096e   e587     jbset   0x187, 0x2       	JBSET	PFLAG,2
00096f   a971     goto    0x971            	GOTO	_00521_DS_
000970   a98e     goto    0x98e            	GOTO	_00391_DS_
                                           _00521_DS_
000971   580e     movar   0xe              	MOVAR	r0x105A
000972   3903     xorai   0x3              	XORAI	0x03
000973   e587     jbset   0x187, 0x2       	JBSET	PFLAG,2
000974   a976     goto    0x976            	GOTO	_00522_DS_
000975   a98e     goto    0x98e            	GOTO	_00391_DS_
                                           _00522_DS_
000976   580e     movar   0xe              	MOVAR	r0x105A
000977   3905     xorai   0x5              	XORAI	0x05
000978   e587     jbset   0x187, 0x2       	JBSET	PFLAG,2
000979   a97b     goto    0x97b            	GOTO	_00523_DS_
00097a   a98e     goto    0x98e            	GOTO	_00391_DS_
                                           _00523_DS_
00097b   580e     movar   0xe              	MOVAR	r0x105A
00097c   3907     xorai   0x7              	XORAI	0x07
00097d   e587     jbset   0x187, 0x2       	JBSET	PFLAG,2
00097e   a980     goto    0x980            	GOTO	_00524_DS_
00097f   a98e     goto    0x98e            	GOTO	_00391_DS_
                                           _00524_DS_
000980   580e     movar   0xe              	MOVAR	r0x105A
000981   3908     xorai   0x8              	XORAI	0x08
000982   e587     jbset   0x187, 0x2       	JBSET	PFLAG,2
000983   a985     goto    0x985            	GOTO	_00525_DS_
000984   a98e     goto    0x98e            	GOTO	_00391_DS_
                                           _00525_DS_
000985   580e     movar   0xe              	MOVAR	r0x105A
000986   390a     xorai   0xa              	XORAI	0x0a
000987   e587     jbset   0x187, 0x2       	JBSET	PFLAG,2
000988   a98a     goto    0x98a            	GOTO	_00526_DS_
000989   a98e     goto    0x98e            	GOTO	_00391_DS_
                                           _00526_DS_
00098a   580e     movar   0xe              	MOVAR	r0x105A
00098b   390c     xorai   0xc              	XORAI	0x0c
00098c   e587     jbset   0x187, 0x2       	JBSET	PFLAG,2
00098d   a9a0     goto    0x9a0            	GOTO	_00392_DS_
                                           ;;unsigned compare: left < lit(0xA=10), size=1
                                           _00391_DS_
                                           ;	.line	1045; "123.c"	if(GV_SetDaySingleDig >= 10)
00098e   3c0a     movai   0xa              	MOVAI	0x0a
00098f   4863     rsubar  0x63             	RSUBAR	_GV_SetDaySingleDig
000990   e187     jbset   0x187, 0         	JBSET	PFLAG,0
000991   a994     goto    0x994            	GOTO	_00361_DS_
                                           ;;genSkipc:3195: created from rifx:00DE608C
                                           ;	.line	1047; "123.c"	GV_SetDaySingleDig = 0;
000992   7663     clrr    0x63             	CLRR	_GV_SetDaySingleDig
                                           ;	.line	1048; "123.c"	GV_SetDayTenDig++;
000993   6664     incr    0x64             	INCR	_GV_SetDayTenDig
                                           ;;unsigned compare: left < lit(0x2=2), size=1
                                           _00361_DS_
                                           ;	.line	1050; "123.c"	if((GV_SetDaySingleDig >= 2)&&(GV_SetDayTenDig >= 3))
000994   3c02     movai   0x2              	MOVAI	0x02
000995   4863     rsubar  0x63             	RSUBAR	_GV_SetDaySingleDig
000996   e187     jbset   0x187, 0         	JBSET	PFLAG,0
000997   aa22     goto    0xa22            	GOTO	_00430_DS_
                                           ;;genSkipc:3195: created from rifx:00DE608C
                                           ;;unsigned compare: left < lit(0x3=3), size=1
000998   3c03     movai   0x3              	MOVAI	0x03
000999   4864     rsubar  0x64             	RSUBAR	_GV_SetDayTenDig
00099a   e187     jbset   0x187, 0         	JBSET	PFLAG,0
00099b   aa22     goto    0xa22            	GOTO	_00430_DS_
                                           ;;genSkipc:3195: created from rifx:00DE608C
                                           ;	.line	1052; "123.c"	GV_SetDaySingleDig = 1;
00099c   3c01     movai   0x1              	MOVAI	0x01
00099d   5663     movra   0x63             	MOVRA	_GV_SetDaySingleDig
                                           ;	.line	1053; "123.c"	GV_SetDayTenDig = 0;
00099e   7664     clrr    0x64             	CLRR	_GV_SetDayTenDig
00099f   aa22     goto    0xa22            	GOTO	_00430_DS_
                                           _00392_DS_
                                           ;	.line	1056; "123.c"	else if(LV_TempMonth==2)
0009a0   580e     movar   0xe              	MOVAR	r0x105A
0009a1   3902     xorai   0x2              	XORAI	0x02
0009a2   e587     jbset   0x187, 0x2       	JBSET	PFLAG,2
0009a3   a9cc     goto    0x9cc            	GOTO	_00389_DS_
                                           ;	.line	1058; "123.c"	if(LV_TempYear % 4)//4(229),(228)
0009a4   580f     movar   0xf              	MOVAR	r0x105B
0009a5   3e03     andai   0x3              	ANDAI	0x03
0009a6   f587     jbclr   0x187, 0x2       	JBCLR	PFLAG,2
0009a7   a9ba     goto    0x9ba            	GOTO	_00376_DS_
                                           ;;unsigned compare: left < lit(0xA=10), size=1
                                           ;	.line	1060; "123.c"	if(GV_SetDaySingleDig >= 10)
0009a8   3c0a     movai   0xa              	MOVAI	0x0a
0009a9   4863     rsubar  0x63             	RSUBAR	_GV_SetDaySingleDig
0009aa   e187     jbset   0x187, 0         	JBSET	PFLAG,0
0009ab   a9ae     goto    0x9ae            	GOTO	_00366_DS_
                                           ;;genSkipc:3195: created from rifx:00DE608C
                                           ;	.line	1062; "123.c"	GV_SetDaySingleDig = 0;
0009ac   7663     clrr    0x63             	CLRR	_GV_SetDaySingleDig
                                           ;	.line	1063; "123.c"	GV_SetDayTenDig++;
0009ad   6664     incr    0x64             	INCR	_GV_SetDayTenDig
                                           _00366_DS_
                                           ;	.line	1065; "123.c"	if((GV_SetDaySingleDig == 0)&&(GV_SetDayTenDig >= 3))
0009ae   3c00     movai   0                	MOVAI	0x00
0009af   5c63     orar    0x63             	ORAR	_GV_SetDaySingleDig
0009b0   e587     jbset   0x187, 0x2       	JBSET	PFLAG,2
0009b1   aa22     goto    0xa22            	GOTO	_00430_DS_
                                           ;;unsigned compare: left < lit(0x3=3), size=1
0009b2   3c03     movai   0x3              	MOVAI	0x03
0009b3   4864     rsubar  0x64             	RSUBAR	_GV_SetDayTenDig
0009b4   e187     jbset   0x187, 0         	JBSET	PFLAG,0
0009b5   aa22     goto    0xa22            	GOTO	_00430_DS_
                                           ;;genSkipc:3195: created from rifx:00DE608C
                                           ;	.line	1067; "123.c"	GV_SetDaySingleDig = 1;
0009b6   3c01     movai   0x1              	MOVAI	0x01
0009b7   5663     movra   0x63             	MOVRA	_GV_SetDaySingleDig
                                           ;	.line	1068; "123.c"	GV_SetDayTenDig = 0;
0009b8   7664     clrr    0x64             	CLRR	_GV_SetDayTenDig
0009b9   aa22     goto    0xa22            	GOTO	_00430_DS_
                                           ;;unsigned compare: left < lit(0xA=10), size=1
                                           _00376_DS_
                                           ;	.line	1073; "123.c"	if(GV_SetDaySingleDig >= 10)
0009ba   3c0a     movai   0xa              	MOVAI	0x0a
0009bb   4863     rsubar  0x63             	RSUBAR	_GV_SetDaySingleDig
0009bc   e187     jbset   0x187, 0         	JBSET	PFLAG,0
0009bd   a9c0     goto    0x9c0            	GOTO	_00371_DS_
                                           ;;genSkipc:3195: created from rifx:00DE608C
                                           ;	.line	1075; "123.c"	GV_SetDaySingleDig = 0;
0009be   7663     clrr    0x63             	CLRR	_GV_SetDaySingleDig
                                           ;	.line	1076; "123.c"	GV_SetDayTenDig++;
0009bf   6664     incr    0x64             	INCR	_GV_SetDayTenDig
                                           ;;unsigned compare: left < lit(0x9=9), size=1
                                           _00371_DS_
                                           ;	.line	1078; "123.c"	if((GV_SetDaySingleDig >= 9)&&(GV_SetDayTenDig >= 2))
0009c0   3c09     movai   0x9              	MOVAI	0x09
0009c1   4863     rsubar  0x63             	RSUBAR	_GV_SetDaySingleDig
0009c2   e187     jbset   0x187, 0         	JBSET	PFLAG,0
0009c3   aa22     goto    0xa22            	GOTO	_00430_DS_
                                           ;;genSkipc:3195: created from rifx:00DE608C
                                           ;;unsigned compare: left < lit(0x2=2), size=1
0009c4   3c02     movai   0x2              	MOVAI	0x02
0009c5   4864     rsubar  0x64             	RSUBAR	_GV_SetDayTenDig
0009c6   e187     jbset   0x187, 0         	JBSET	PFLAG,0
0009c7   aa22     goto    0xa22            	GOTO	_00430_DS_
                                           ;;genSkipc:3195: created from rifx:00DE608C
                                           ;	.line	1080; "123.c"	GV_SetDaySingleDig = 1;
0009c8   3c01     movai   0x1              	MOVAI	0x01
0009c9   5663     movra   0x63             	MOVRA	_GV_SetDaySingleDig
                                           ;	.line	1081; "123.c"	GV_SetDayTenDig = 0;
0009ca   7664     clrr    0x64             	CLRR	_GV_SetDayTenDig
0009cb   aa22     goto    0xa22            	GOTO	_00430_DS_
                                           _00389_DS_
                                           ;	.line	1085; "123.c"	else if(LV_TempMonth==4||LV_TempMonth==6||LV_TempMonth==9||LV_TempMonth==11)
0009cc   580e     movar   0xe              	MOVAR	r0x105A
0009cd   3904     xorai   0x4              	XORAI	0x04
0009ce   e587     jbset   0x187, 0x2       	JBSET	PFLAG,2
0009cf   a9d1     goto    0x9d1            	GOTO	_00536_DS_
0009d0   a9df     goto    0x9df            	GOTO	_00383_DS_
                                           _00536_DS_
0009d1   580e     movar   0xe              	MOVAR	r0x105A
0009d2   3906     xorai   0x6              	XORAI	0x06
0009d3   e587     jbset   0x187, 0x2       	JBSET	PFLAG,2
0009d4   a9d6     goto    0x9d6            	GOTO	_00537_DS_
0009d5   a9df     goto    0x9df            	GOTO	_00383_DS_
                                           _00537_DS_
0009d6   580e     movar   0xe              	MOVAR	r0x105A
0009d7   3909     xorai   0x9              	XORAI	0x09
0009d8   e587     jbset   0x187, 0x2       	JBSET	PFLAG,2
0009d9   a9db     goto    0x9db            	GOTO	_00538_DS_
0009da   a9df     goto    0x9df            	GOTO	_00383_DS_
                                           _00538_DS_
0009db   580e     movar   0xe              	MOVAR	r0x105A
0009dc   390b     xorai   0xb              	XORAI	0x0b
0009dd   e587     jbset   0x187, 0x2       	JBSET	PFLAG,2
0009de   aa22     goto    0xa22            	GOTO	_00430_DS_
                                           ;;unsigned compare: left < lit(0xA=10), size=1
                                           _00383_DS_
                                           ;	.line	1087; "123.c"	if(GV_SetDaySingleDig >= 10)
0009df   3c0a     movai   0xa              	MOVAI	0x0a
0009e0   4863     rsubar  0x63             	RSUBAR	_GV_SetDaySingleDig
0009e1   e187     jbset   0x187, 0         	JBSET	PFLAG,0
0009e2   a9e5     goto    0x9e5            	GOTO	_00379_DS_
                                           ;;genSkipc:3195: created from rifx:00DE608C
                                           ;	.line	1089; "123.c"	GV_SetDaySingleDig = 0;
0009e3   7663     clrr    0x63             	CLRR	_GV_SetDaySingleDig
                                           ;	.line	1090; "123.c"	GV_SetDayTenDig++;
0009e4   6664     incr    0x64             	INCR	_GV_SetDayTenDig
                                           ;;unsigned compare: left < lit(0x1=1), size=1
                                           _00379_DS_
                                           ;	.line	1092; "123.c"	if((GV_SetDaySingleDig >= 1)&&(GV_SetDayTenDig >= 3))
0009e5   3c01     movai   0x1              	MOVAI	0x01
0009e6   4863     rsubar  0x63             	RSUBAR	_GV_SetDaySingleDig
0009e7   e187     jbset   0x187, 0         	JBSET	PFLAG,0
0009e8   aa22     goto    0xa22            	GOTO	_00430_DS_
                                           ;;genSkipc:3195: created from rifx:00DE608C
                                           ;;unsigned compare: left < lit(0x3=3), size=1
0009e9   3c03     movai   0x3              	MOVAI	0x03
0009ea   4864     rsubar  0x64             	RSUBAR	_GV_SetDayTenDig
0009eb   e187     jbset   0x187, 0         	JBSET	PFLAG,0
0009ec   aa22     goto    0xa22            	GOTO	_00430_DS_
                                           ;;genSkipc:3195: created from rifx:00DE608C
                                           ;	.line	1094; "123.c"	GV_SetDaySingleDig = 1;
0009ed   3c01     movai   0x1              	MOVAI	0x01
0009ee   5663     movra   0x63             	MOVRA	_GV_SetDaySingleDig
                                           ;	.line	1095; "123.c"	GV_SetDayTenDig = 0;
0009ef   7664     clrr    0x64             	CLRR	_GV_SetDayTenDig
0009f0   aa22     goto    0xa22            	GOTO	_00430_DS_
                                           _00422_DS_
                                           ;	.line	1174; "123.c"	else if(GV_RealTimeClockSetStep==3)
0009f1   5853     movar   0x53             	MOVAR	_GV_RealTimeClockSetStep
0009f2   3903     xorai   0x3              	XORAI	0x03
0009f3   e587     jbset   0x187, 0x2       	JBSET	PFLAG,2
0009f4   aa0d     goto    0xa0d            	GOTO	_00419_DS_
                                           ;	.line	1176; "123.c"	GV_SetRealTimeClockHrSingleDig++;
0009f5   6667     incr    0x67             	INCR	_GV_SetRealTimeClockHrSingleDig
                                           ;;unsigned compare: left < lit(0xA=10), size=1
                                           ;	.line	1177; "123.c"	if(GV_SetRealTimeClockHrSingleDig >= 10)
0009f6   3c0a     movai   0xa              	MOVAI	0x0a
0009f7   4867     rsubar  0x67             	RSUBAR	_GV_SetRealTimeClockHrSingleDig
0009f8   e187     jbset   0x187, 0         	JBSET	PFLAG,0
0009f9   a9fc     goto    0x9fc            	GOTO	_00404_DS_
                                           ;;genSkipc:3195: created from rifx:00DE608C
                                           ;	.line	1179; "123.c"	GV_SetRealTimeClockHrSingleDig = 0;
0009fa   7667     clrr    0x67             	CLRR	_GV_SetRealTimeClockHrSingleDig
                                           ;	.line	1180; "123.c"	GV_SetRealTimeClockHrTenDig++;
0009fb   6668     incr    0x68             	INCR	_GV_SetRealTimeClockHrTenDig
                                           ;;unsigned compare: left < lit(0x3=3), size=1
                                           _00404_DS_
                                           ;	.line	1182; "123.c"	if((GV_SetRealTimeClockHrSingleDig >= 3)&&(GV_SetRealTimeClockHrTenDig >= 1))
0009fc   3c03     movai   0x3              	MOVAI	0x03
0009fd   4867     rsubar  0x67             	RSUBAR	_GV_SetRealTimeClockHrSingleDig
0009fe   e187     jbset   0x187, 0         	JBSET	PFLAG,0
0009ff   aa22     goto    0xa22            	GOTO	_00430_DS_
                                           ;;genSkipc:3195: created from rifx:00DE608C
                                           ;;unsigned compare: left < lit(0x1=1), size=1
000a00   3c01     movai   0x1              	MOVAI	0x01
000a01   4868     rsubar  0x68             	RSUBAR	_GV_SetRealTimeClockHrTenDig
000a02   e187     jbset   0x187, 0         	JBSET	PFLAG,0
000a03   aa22     goto    0xa22            	GOTO	_00430_DS_
                                           ;;genSkipc:3195: created from rifx:00DE608C
                                           ;	.line	1184; "123.c"	GV_SetRealTimeClockHrSingleDig = 1;
000a04   3c01     movai   0x1              	MOVAI	0x01
000a05   5667     movra   0x67             	MOVRA	_GV_SetRealTimeClockHrSingleDig
                                           ;	.line	1185; "123.c"	GV_SetRealTimeClockHrTenDig = 0;
000a06   7668     clrr    0x68             	CLRR	_GV_SetRealTimeClockHrTenDig
                                           ;	.line	1186; "123.c"	if(BF_SetRealTimeClockAM_PM)
000a07   e445     jbset   0x45, 0x2        	JBSET	_UserFlag,2
000a08   aa0b     goto    0xa0b            	GOTO	_00406_DS_
                                           ;	.line	1188; "123.c"	BF_SetRealTimeClockAM_PM = 0;
000a09   d445     bclr    0x45, 0x2        	BCLR	_UserFlag,2
000a0a   aa22     goto    0xa22            	GOTO	_00430_DS_
                                           _00406_DS_
                                           ;	.line	1192; "123.c"	BF_SetRealTimeClockAM_PM = 1;
000a0b   c445     bset    0x45, 0x2        	BSET	_UserFlag,2
000a0c   aa22     goto    0xa22            	GOTO	_00430_DS_
                                           _00419_DS_
                                           ;	.line	1196; "123.c"	else if(GV_RealTimeClockSetStep==4)
000a0d   5853     movar   0x53             	MOVAR	_GV_RealTimeClockSetStep
000a0e   3904     xorai   0x4              	XORAI	0x04
000a0f   e587     jbset   0x187, 0x2       	JBSET	PFLAG,2
000a10   aa22     goto    0xa22            	GOTO	_00430_DS_
                                           ;	.line	1198; "123.c"	GV_SetRealTimeClockMinSingleDig++;
000a11   6669     incr    0x69             	INCR	_GV_SetRealTimeClockMinSingleDig
                                           ;;unsigned compare: left < lit(0xA=10), size=1
                                           ;	.line	1199; "123.c"	if(GV_SetRealTimeClockMinSingleDig >= 10)
000a12   3c0a     movai   0xa              	MOVAI	0x0a
000a13   4869     rsubar  0x69             	RSUBAR	_GV_SetRealTimeClockMinSingleDig
000a14   e187     jbset   0x187, 0         	JBSET	PFLAG,0
000a15   aa18     goto    0xa18            	GOTO	_00412_DS_
                                           ;;genSkipc:3195: created from rifx:00DE608C
                                           ;	.line	1201; "123.c"	GV_SetRealTimeClockMinSingleDig = 0;
000a16   7669     clrr    0x69             	CLRR	_GV_SetRealTimeClockMinSingleDig
                                           ;	.line	1202; "123.c"	GV_SetRealTimeClockMinTenDig++;
000a17   666a     incr    0x6a             	INCR	_GV_SetRealTimeClockMinTenDig
                                           _00412_DS_
                                           ;	.line	1204; "123.c"	if((GV_SetRealTimeClockMinSingleDig == 0)&&(GV_SetRealTimeClockMinTenDig >= 6))
000a18   3c00     movai   0                	MOVAI	0x00
000a19   5c69     orar    0x69             	ORAR	_GV_SetRealTimeClockMinSingleDig
000a1a   e587     jbset   0x187, 0x2       	JBSET	PFLAG,2
000a1b   aa22     goto    0xa22            	GOTO	_00430_DS_
                                           ;;unsigned compare: left < lit(0x6=6), size=1
000a1c   3c06     movai   0x6              	MOVAI	0x06
000a1d   486a     rsubar  0x6a             	RSUBAR	_GV_SetRealTimeClockMinTenDig
000a1e   e187     jbset   0x187, 0         	JBSET	PFLAG,0
000a1f   aa22     goto    0xa22            	GOTO	_00430_DS_
                                           ;;genSkipc:3195: created from rifx:00DE608C
                                           ;	.line	1206; "123.c"	GV_SetRealTimeClockMinSingleDig = 0;
000a20   7669     clrr    0x69             	CLRR	_GV_SetRealTimeClockMinSingleDig
                                           ;	.line	1207; "123.c"	GV_SetRealTimeClockMinTenDig = 0;
000a21   766a     clrr    0x6a             	CLRR	_GV_SetRealTimeClockMinTenDig
                                           _00430_DS_
000a22   000c     return                   	RETURN	
                                           ; exit point of _Sub_RealTimeClockAdd
                                           
                                           ;***
                                           ;  pBlock Stats: dbName = C
                                           ;***
                                           ;entry:  _Sub_Up_AlShortLongKeyAlarmSet	;Function start
                                           ; 2 exit points
                                           ;has an exit
                                           ;functions called:
                                           ;   _Sub_SetAlarmAddTimer
                                           ;   _Sub_SetAlarmAddTimer
                                           ;   _Sub_SetAlarmAddTimer
                                           ;   _Sub_SetAlarmAddTimer
                                           ;2 compiler assigned registers:
                                           ;   r0x105A
                                           ;   r0x105B
                                           ;; Starting pCode block
                                           _Sub_Up_AlShortLongKeyAlarmSet	;Function start
                                           ; 2 exit points
                                           ;	.line	915; "123.c"	if(GV_AlarmClockSetStep==0)
000a23   3c00     movai   0                	MOVAI	0x00
000a24   5c54     orar    0x54             	ORAR	_GV_AlarmClockSetStep
000a25   e587     jbset   0x187, 0x2       	JBSET	PFLAG,2
000a26   aa37     goto    0xa37            	GOTO	_00327_DS_
                                           ;	.line	917; "123.c"	BF_SetAlarmOnOff = !BF_SetAlarmOnOff;//0 = Set alarm off; 1 = Set alarm on
000a27   760e     clrr    0xe              	CLRR	r0x105A
000a28   fa46     jbclr   0x46, 0x5        	JBCLR	_UserFlag1,5
000a29   660e     incr    0xe              	INCR	r0x105A
000a2a   580e     movar   0xe              	MOVAR	r0x105A
000a2b   3c00     movai   0                	MOVAI	0x00
000a2c   f587     jbclr   0x187, 0x2       	JBCLR	PFLAG,2
000a2d   3c01     movai   0x1              	MOVAI	0x01
000a2e   560e     movra   0xe              	MOVRA	r0x105A
                                           ;;1	MOVRA	r0x105B
                                           ;;99	MOVAR	r0x105B
000a2f   4c0e     rrar    0xe              	RRAR	r0x105A
000a30   e187     jbset   0x187, 0         	JBSET	PFLAG,0
000a31   da46     bclr    0x46, 0x5        	BCLR	_UserFlag1,5
000a32   f187     jbclr   0x187, 0         	JBCLR	PFLAG,0
000a33   ca46     bset    0x46, 0x5        	BSET	_UserFlag1,5
                                           ;	.line	918; "123.c"	GV_PreKey = GV_CurKey;
000a34   5851     movar   0x51             	MOVAR	_GV_CurKey
000a35   5650     movra   0x50             	MOVRA	_GV_PreKey
000a36   aa63     goto    0xa63            	GOTO	_00329_DS_
                                           _00327_DS_
                                           ;	.line	920; "123.c"	else if(GV_AlarmClockSetStep==1)
000a37   5854     movar   0x54             	MOVAR	_GV_AlarmClockSetStep
000a38   3901     xorai   0x1              	XORAI	0x01
000a39   e587     jbset   0x187, 0x2       	JBSET	PFLAG,2
000a3a   aa3c     goto    0xa3c            	GOTO	_00343_DS_
000a3b   aa63     goto    0xa63            	GOTO	_00329_DS_
                                           _00343_DS_
                                           ;	.line	924; "123.c"	else if(GV_AlarmClockSetStep==2)
000a3c   5854     movar   0x54             	MOVAR	_GV_AlarmClockSetStep
000a3d   3902     xorai   0x2              	XORAI	0x02
000a3e   e587     jbset   0x187, 0x2       	JBSET	PFLAG,2
000a3f   aa63     goto    0xa63            	GOTO	_00329_DS_
                                           ;	.line	926; "123.c"	BF_Up_AlKeyPressesd = 1;
000a40   c845     bset    0x45, 0x4        	BSET	_UserFlag,4
                                           ;	.line	927; "123.c"	if(BF_Up_AlLongKeyPressesd)//
000a41   ea45     jbset   0x45, 0x5        	JBSET	_UserFlag,5
000a42   aa53     goto    0xa53            	GOTO	_00319_DS_
                                           ;	.line	929; "123.c"	if(++GV_LongKeyTimer < 125) return;//125*2ms=250ms
000a43   663f     incr    0x3f             	INCR	_GV_LongKeyTimer
000a44   f587     jbclr   0x187, 0x2       	JBCLR	PFLAG,2
000a45   6640     incr    0x40             	INCR	(_GV_LongKeyTimer + 1)
                                           ;;unsigned compare: left < lit(0x7D=125), size=2
000a46   3c00     movai   0                	MOVAI	0x00
000a47   4840     rsubar  0x40             	RSUBAR	(_GV_LongKeyTimer + 1)
000a48   e587     jbset   0x187, 0x2       	JBSET	PFLAG,2
000a49   aa4c     goto    0xa4c            	GOTO	_00344_DS_
000a4a   3c7d     movai   0x7d             	MOVAI	0x7d
000a4b   483f     rsubar  0x3f             	RSUBAR	_GV_LongKeyTimer
                                           _00344_DS_
000a4c   f187     jbclr   0x187, 0         	JBCLR	PFLAG,0
000a4d   aa4f     goto    0xa4f            	GOTO	_00315_DS_
                                           ;;genSkipc:3195: created from rifx:00DE608C
000a4e   aa63     goto    0xa63            	GOTO	_00329_DS_
                                           _00315_DS_
                                           ;	.line	931; "123.c"	GV_LongKeyTimer = 0;
000a4f   763f     clrr    0x3f             	CLRR	_GV_LongKeyTimer
000a50   7640     clrr    0x40             	CLRR	(_GV_LongKeyTimer + 1)
                                           ;	.line	932; "123.c"	Sub_SetAlarmAddTimer();
000a51   8a64     call    0xa64            	CALL	_Sub_SetAlarmAddTimer
000a52   aa63     goto    0xa63            	GOTO	_00329_DS_
                                           _00319_DS_
                                           ;	.line	937; "123.c"	if(++GV_LongKeyTimer < 500) return;//500*2ms=1s
000a53   663f     incr    0x3f             	INCR	_GV_LongKeyTimer
000a54   f587     jbclr   0x187, 0x2       	JBCLR	PFLAG,2
000a55   6640     incr    0x40             	INCR	(_GV_LongKeyTimer + 1)
                                           ;;unsigned compare: left < lit(0x1F4=500), size=2
000a56   3c01     movai   0x1              	MOVAI	0x01
000a57   4840     rsubar  0x40             	RSUBAR	(_GV_LongKeyTimer + 1)
000a58   e587     jbset   0x187, 0x2       	JBSET	PFLAG,2
000a59   aa5c     goto    0xa5c            	GOTO	_00345_DS_
000a5a   3cf4     movai   0xf4             	MOVAI	0xf4
000a5b   483f     rsubar  0x3f             	RSUBAR	_GV_LongKeyTimer
                                           _00345_DS_
000a5c   f187     jbclr   0x187, 0         	JBCLR	PFLAG,0
000a5d   aa5f     goto    0xa5f            	GOTO	_00317_DS_
                                           ;;genSkipc:3195: created from rifx:00DE608C
000a5e   aa63     goto    0xa63            	GOTO	_00329_DS_
                                           _00317_DS_
                                           ;	.line	939; "123.c"	GV_LongKeyTimer = 0;
000a5f   763f     clrr    0x3f             	CLRR	_GV_LongKeyTimer
000a60   7640     clrr    0x40             	CLRR	(_GV_LongKeyTimer + 1)
                                           ;	.line	940; "123.c"	BF_Up_AlLongKeyPressesd = 1;
000a61   ca45     bset    0x45, 0x5        	BSET	_UserFlag,5
                                           ;	.line	941; "123.c"	Sub_SetAlarmAddTimer();
000a62   8a64     call    0xa64            	CALL	_Sub_SetAlarmAddTimer
                                           _00329_DS_
000a63   000c     return                   	RETURN	
                                           ; exit point of _Sub_Up_AlShortLongKeyAlarmSet
                                           
                                           ;***
                                           ;  pBlock Stats: dbName = C
                                           ;***
                                           ;entry:  _Sub_SetAlarmAddTimer	;Function start
                                           ; 2 exit points
                                           ;has an exit
                                           ;; Starting pCode block
                                           _Sub_SetAlarmAddTimer	;Function start
                                           ; 2 exit points
                                           ;	.line	815; "123.c"	if(GV_AlarmClockSetStep==0)
000a64   3c00     movai   0                	MOVAI	0x00
000a65   5c54     orar    0x54             	ORAR	_GV_AlarmClockSetStep
000a66   f587     jbclr   0x187, 0x2       	JBCLR	PFLAG,2
000a67   aa99     goto    0xa99            	GOTO	_00309_DS_
                                           ;	.line	819; "123.c"	else if(GV_AlarmClockSetStep==1)
000a68   5854     movar   0x54             	MOVAR	_GV_AlarmClockSetStep
000a69   3901     xorai   0x1              	XORAI	0x01
000a6a   e587     jbset   0x187, 0x2       	JBSET	PFLAG,2
000a6b   aa84     goto    0xa84            	GOTO	_00304_DS_
                                           ;	.line	821; "123.c"	if(++GV_SetAlarmClockHrSingleDig >= 10)
000a6c   666f     incr    0x6f             	INCR	_GV_SetAlarmClockHrSingleDig
                                           ;;unsigned compare: left < lit(0xA=10), size=1
000a6d   3c0a     movai   0xa              	MOVAI	0x0a
000a6e   486f     rsubar  0x6f             	RSUBAR	_GV_SetAlarmClockHrSingleDig
000a6f   e187     jbset   0x187, 0         	JBSET	PFLAG,0
000a70   aa73     goto    0xa73            	GOTO	_00289_DS_
                                           ;;genSkipc:3195: created from rifx:00DE608C
                                           ;	.line	823; "123.c"	GV_SetAlarmClockHrSingleDig = 0;
000a71   766f     clrr    0x6f             	CLRR	_GV_SetAlarmClockHrSingleDig
                                           ;	.line	824; "123.c"	GV_SetAlarmClockHrTenDig++;
000a72   6670     incr    0x70             	INCR	_GV_SetAlarmClockHrTenDig
                                           ;;unsigned compare: left < lit(0x3=3), size=1
                                           _00289_DS_
                                           ;	.line	826; "123.c"	if((GV_SetAlarmClockHrSingleDig >= 3)&&(GV_SetAlarmClockHrTenDig >= 1))
000a73   3c03     movai   0x3              	MOVAI	0x03
000a74   486f     rsubar  0x6f             	RSUBAR	_GV_SetAlarmClockHrSingleDig
000a75   e187     jbset   0x187, 0         	JBSET	PFLAG,0
000a76   aa99     goto    0xa99            	GOTO	_00309_DS_
                                           ;;genSkipc:3195: created from rifx:00DE608C
                                           ;;unsigned compare: left < lit(0x1=1), size=1
000a77   3c01     movai   0x1              	MOVAI	0x01
000a78   4870     rsubar  0x70             	RSUBAR	_GV_SetAlarmClockHrTenDig
000a79   e187     jbset   0x187, 0         	JBSET	PFLAG,0
000a7a   aa99     goto    0xa99            	GOTO	_00309_DS_
                                           ;;genSkipc:3195: created from rifx:00DE608C
                                           ;	.line	828; "123.c"	if(BF_SetAlarmAM_PM)
000a7b   e446     jbset   0x46, 0x2        	JBSET	_UserFlag1,2
000a7c   aa7f     goto    0xa7f            	GOTO	_00291_DS_
                                           ;	.line	830; "123.c"	BF_SetAlarmAM_PM = 0;
000a7d   d446     bclr    0x46, 0x2        	BCLR	_UserFlag1,2
000a7e   aa80     goto    0xa80            	GOTO	_00292_DS_
                                           _00291_DS_
                                           ;	.line	834; "123.c"	BF_SetAlarmAM_PM = 1;
000a7f   c446     bset    0x46, 0x2        	BSET	_UserFlag1,2
                                           _00292_DS_
                                           ;	.line	837; "123.c"	GV_SetAlarmClockHrTenDig = 0x00;
000a80   7670     clrr    0x70             	CLRR	_GV_SetAlarmClockHrTenDig
                                           ;	.line	838; "123.c"	GV_SetAlarmClockHrSingleDig = 0x01;
000a81   3c01     movai   0x1              	MOVAI	0x01
000a82   566f     movra   0x6f             	MOVRA	_GV_SetAlarmClockHrSingleDig
000a83   aa99     goto    0xa99            	GOTO	_00309_DS_
                                           _00304_DS_
                                           ;	.line	841; "123.c"	else if(GV_AlarmClockSetStep==2)
000a84   5854     movar   0x54             	MOVAR	_GV_AlarmClockSetStep
000a85   3902     xorai   0x2              	XORAI	0x02
000a86   e587     jbset   0x187, 0x2       	JBSET	PFLAG,2
000a87   aa99     goto    0xa99            	GOTO	_00309_DS_
                                           ;	.line	843; "123.c"	if(++GV_SetAlarmClockMinSingleDig >= 10)
000a88   6671     incr    0x71             	INCR	_GV_SetAlarmClockMinSingleDig
                                           ;;unsigned compare: left < lit(0xA=10), size=1
000a89   3c0a     movai   0xa              	MOVAI	0x0a
000a8a   4871     rsubar  0x71             	RSUBAR	_GV_SetAlarmClockMinSingleDig
000a8b   e187     jbset   0x187, 0         	JBSET	PFLAG,0
000a8c   aa8f     goto    0xa8f            	GOTO	_00297_DS_
                                           ;;genSkipc:3195: created from rifx:00DE608C
                                           ;	.line	845; "123.c"	GV_SetAlarmClockMinSingleDig = 0;
000a8d   7671     clrr    0x71             	CLRR	_GV_SetAlarmClockMinSingleDig
                                           ;	.line	846; "123.c"	GV_SetAlarmClockMinTenDig++;
000a8e   6672     incr    0x72             	INCR	_GV_SetAlarmClockMinTenDig
                                           _00297_DS_
                                           ;	.line	848; "123.c"	if((GV_SetAlarmClockMinSingleDig == 0)&&(GV_SetAlarmClockMinTenDig >= 6))
000a8f   3c00     movai   0                	MOVAI	0x00
000a90   5c71     orar    0x71             	ORAR	_GV_SetAlarmClockMinSingleDig
000a91   e587     jbset   0x187, 0x2       	JBSET	PFLAG,2
000a92   aa99     goto    0xa99            	GOTO	_00309_DS_
                                           ;;unsigned compare: left < lit(0x6=6), size=1
000a93   3c06     movai   0x6              	MOVAI	0x06
000a94   4872     rsubar  0x72             	RSUBAR	_GV_SetAlarmClockMinTenDig
000a95   e187     jbset   0x187, 0         	JBSET	PFLAG,0
000a96   aa99     goto    0xa99            	GOTO	_00309_DS_
                                           ;;genSkipc:3195: created from rifx:00DE608C
                                           ;	.line	850; "123.c"	GV_SetAlarmClockMinSingleDig = 0;
000a97   7671     clrr    0x71             	CLRR	_GV_SetAlarmClockMinSingleDig
                                           ;	.line	851; "123.c"	GV_SetAlarmClockMinTenDig = 0;
000a98   7672     clrr    0x72             	CLRR	_GV_SetAlarmClockMinTenDig
                                           _00309_DS_
000a99   000c     return                   	RETURN	
                                           ; exit point of _Sub_SetAlarmAddTimer
                                           
                                           ;***
                                           ;  pBlock Stats: dbName = C
                                           ;***
                                           ;entry:  _Sub_Up_AlLongKeyGetAlarmSetMode	;Function start
                                           ; 2 exit points
                                           ;has an exit
                                           ;2 compiler assigned registers:
                                           ;   r0x105A
                                           ;   r0x105B
                                           ;; Starting pCode block
                                           _Sub_Up_AlLongKeyGetAlarmSetMode	;Function start
                                           ; 2 exit points
                                           ;	.line	789; "123.c"	if(++GV_LongKeyTimer < 1500) return;//1500*2ms=3s
000a9a   663f     incr    0x3f             	INCR	_GV_LongKeyTimer
000a9b   f587     jbclr   0x187, 0x2       	JBCLR	PFLAG,2
000a9c   6640     incr    0x40             	INCR	(_GV_LongKeyTimer + 1)
                                           ;;unsigned compare: left < lit(0x5DC=1500), size=2
000a9d   3c05     movai   0x5              	MOVAI	0x05
000a9e   4840     rsubar  0x40             	RSUBAR	(_GV_LongKeyTimer + 1)
000a9f   e587     jbset   0x187, 0x2       	JBSET	PFLAG,2
000aa0   aaa3     goto    0xaa3            	GOTO	_00283_DS_
000aa1   3cdc     movai   0xdc             	MOVAI	0xdc
000aa2   483f     rsubar  0x3f             	RSUBAR	_GV_LongKeyTimer
                                           _00283_DS_
000aa3   f187     jbclr   0x187, 0         	JBCLR	PFLAG,0
000aa4   aaa6     goto    0xaa6            	GOTO	_00278_DS_
                                           ;;genSkipc:3195: created from rifx:00DE608C
000aa5   aabd     goto    0xabd            	GOTO	_00279_DS_
                                           _00278_DS_
                                           ;	.line	790; "123.c"	GV_PreKey = GV_CurKey;
000aa6   5851     movar   0x51             	MOVAR	_GV_CurKey
000aa7   5650     movra   0x50             	MOVRA	_GV_PreKey
                                           ;	.line	792; "123.c"	GV_SetAlarmClockMinSingleDig = GV_RunAlarmClockMinSingleDig;
000aa8   5875     movar   0x75             	MOVAR	_GV_RunAlarmClockMinSingleDig
000aa9   5671     movra   0x71             	MOVRA	_GV_SetAlarmClockMinSingleDig
                                           ;	.line	793; "123.c"	GV_SetAlarmClockMinTenDig = GV_RunAlarmClockMinTenDig;
000aaa   5876     movar   0x76             	MOVAR	_GV_RunAlarmClockMinTenDig
000aab   5672     movra   0x72             	MOVRA	_GV_SetAlarmClockMinTenDig
                                           ;	.line	795; "123.c"	GV_SetAlarmClockHrSingleDig = GV_RunAlarmClockHrSingleDig;
000aac   5873     movar   0x73             	MOVAR	_GV_RunAlarmClockHrSingleDig
000aad   566f     movra   0x6f             	MOVRA	_GV_SetAlarmClockHrSingleDig
                                           ;	.line	796; "123.c"	GV_SetAlarmClockHrTenDig = GV_RunAlarmClockHrTenDig;   	
000aae   5874     movar   0x74             	MOVAR	_GV_RunAlarmClockHrTenDig
000aaf   5670     movra   0x70             	MOVRA	_GV_SetAlarmClockHrTenDig
                                           ;	.line	798; "123.c"	BF_SetAlarmOnOff = BF_RunAlarmOnOff;
000ab0   760e     clrr    0xe              	CLRR	r0x105A
000ab1   fc46     jbclr   0x46, 0x6        	JBCLR	_UserFlag1,6
000ab2   660e     incr    0xe              	INCR	r0x105A
000ab3   580e     movar   0xe              	MOVAR	r0x105A
000ab4   560f     movra   0xf              	MOVRA	r0x105B
000ab5   4c0f     rrar    0xf              	RRAR	r0x105B
000ab6   e187     jbset   0x187, 0         	JBSET	PFLAG,0
000ab7   da46     bclr    0x46, 0x5        	BCLR	_UserFlag1,5
000ab8   f187     jbclr   0x187, 0         	JBCLR	PFLAG,0
000ab9   ca46     bset    0x46, 0x5        	BSET	_UserFlag1,5
                                           ;	.line	799; "123.c"	GV_AlarmClockSetStep = 0;
000aba   7654     clrr    0x54             	CLRR	_GV_AlarmClockSetStep
                                           ;	.line	800; "123.c"	GV_Mode = 2;//2=Alarm set mode
000abb   3c02     movai   0x2              	MOVAI	0x02
000abc   5652     movra   0x52             	MOVRA	_GV_Mode
                                           _00279_DS_
000abd   000c     return                   	RETURN	
                                           ; exit point of _Sub_Up_AlLongKeyGetAlarmSetMode
                                           
                                           ;***
                                           ;  pBlock Stats: dbName = C
                                           ;***
                                           ;entry:  _Sub_Initial	;Function start
                                           ; 2 exit points
                                           ;has an exit
                                           ;functions called:
                                           ;   _Sub_IoInitial
                                           ;   _Sub_TC2Initial
                                           ;   _Sub_Write1302
                                           ;   _Sub_Write1302
                                           ;   _Sub_Write1302
                                           ;   _Sub_Write1302
                                           ;   _Sub_Write1302
                                           ;   _Sub_Write1302
                                           ;   _Sub_Write1302
                                           ;   _Sub_Write1302
                                           ;   _Sub_PT6964PowerOnAllDisp2s
                                           ;   _Sub_IoInitial
                                           ;   _Sub_TC2Initial
                                           ;   _Sub_Write1302
                                           ;   _Sub_Write1302
                                           ;   _Sub_Write1302
                                           ;   _Sub_Write1302
                                           ;   _Sub_Write1302
                                           ;   _Sub_Write1302
                                           ;   _Sub_Write1302
                                           ;   _Sub_Write1302
                                           ;   _Sub_PT6964PowerOnAllDisp2s
                                           ;1 compiler assigned register :
                                           ;   STK00
                                           ;; Starting pCode block
                                           _Sub_Initial	;Function start
                                           ; 2 exit points
                                           ;	.line	722; "123.c"	Sub_IoInitial();
000abe   8b20     call    0xb20            	CALL	_Sub_IoInitial
                                           ;	.line	724; "123.c"	Sub_TC2Initial();
000abf   8afe     call    0xafe            	CALL	_Sub_TC2Initial
                                           ;	.line	727; "123.c"	GIE = 1;  //FGIE = 1;  //Enable interrupt
000ac0   cf88     bset    0x188, 0x7       	BSET	_MCRbits,7
                                           ;	.line	729; "123.c"	Sub_Write1302(C_DS1302_WriteProtect,C_DS1302_DisableWriteProtect); //Disable write protect
000ac1   3c00     movai   0                	MOVAI	0x00
000ac2   5606     movra   0x6              	MOVRA	STK00
000ac3   3c8e     movai   0x8e             	MOVAI	0x8e
000ac4   8b6d     call    0xb6d            	CALL	_Sub_Write1302
                                           ;	.line	730; "123.c"	Sub_Write1302(C_DS1302_Second,0x00);
000ac5   3c00     movai   0                	MOVAI	0x00
000ac6   5606     movra   0x6              	MOVRA	STK00
000ac7   3c80     movai   0x80             	MOVAI	0x80
000ac8   8b6d     call    0xb6d            	CALL	_Sub_Write1302
                                           ;	.line	731; "123.c"	Sub_Write1302(C_DS1302_Minute,0x00);   	
000ac9   3c00     movai   0                	MOVAI	0x00
000aca   5606     movra   0x6              	MOVRA	STK00
000acb   3c82     movai   0x82             	MOVAI	0x82
000acc   8b6d     call    0xb6d            	CALL	_Sub_Write1302
                                           ;	.line	732; "123.c"	Sub_Write1302(C_DS1302_Hour,C_DS1302_AM12HrData);//(RTCBit7=024Bit7=11212Bit50=AM1=PM)	
000acd   3c92     movai   0x92             	MOVAI	0x92
000ace   5606     movra   0x6              	MOVRA	STK00
000acf   3c84     movai   0x84             	MOVAI	0x84
000ad0   8b6d     call    0xb6d            	CALL	_Sub_Write1302
                                           ;	.line	733; "123.c"	Sub_Write1302(C_DS1302_Day,0x01);  	   	
000ad1   3c01     movai   0x1              	MOVAI	0x01
000ad2   5606     movra   0x6              	MOVRA	STK00
000ad3   3c86     movai   0x86             	MOVAI	0x86
000ad4   8b6d     call    0xb6d            	CALL	_Sub_Write1302
                                           ;	.line	734; "123.c"	Sub_Write1302(C_DS1302_Month,0x01);	   	   	
000ad5   3c01     movai   0x1              	MOVAI	0x01
000ad6   5606     movra   0x6              	MOVRA	STK00
000ad7   3c88     movai   0x88             	MOVAI	0x88
000ad8   8b6d     call    0xb6d            	CALL	_Sub_Write1302
                                           ;	.line	735; "123.c"	Sub_Write1302(C_DS1302_Year,0x00);
000ad9   3c00     movai   0                	MOVAI	0x00
000ada   5606     movra   0x6              	MOVRA	STK00
000adb   3c8c     movai   0x8c             	MOVAI	0x8c
000adc   8b6d     call    0xb6d            	CALL	_Sub_Write1302
                                           ;	.line	736; "123.c"	Sub_Write1302(C_DS1302_WriteProtect,C_DS1302_EnableWriteProtect); //Enable write protect
000add   3c80     movai   0x80             	MOVAI	0x80
000ade   5606     movra   0x6              	MOVRA	STK00
000adf   3c8e     movai   0x8e             	MOVAI	0x8e
000ae0   8b6d     call    0xb6d            	CALL	_Sub_Write1302
                                           ;	.line	739; "123.c"	GV_RunAlarmClockHrSingleDig = 2;
000ae1   3c02     movai   0x2              	MOVAI	0x02
000ae2   5673     movra   0x73             	MOVRA	_GV_RunAlarmClockHrSingleDig
                                           ;	.line	740; "123.c"	GV_RunAlarmClockHrTenDig = 1;
000ae3   3c01     movai   0x1              	MOVAI	0x01
000ae4   5674     movra   0x74             	MOVRA	_GV_RunAlarmClockHrTenDig
                                           ;	.line	742; "123.c"	BF_SetAlarmAM_PM = 0;
000ae5   d446     bclr    0x46, 0x2        	BCLR	_UserFlag1,2
                                           ;	.line	743; "123.c"	BF_SetAlarmOnOff = 0;
000ae6   da46     bclr    0x46, 0x5        	BCLR	_UserFlag1,5
                                           ;	.line	744; "123.c"	BF_RunAlarmAM_PM = 0;
000ae7   d646     bclr    0x46, 0x3        	BCLR	_UserFlag1,3
                                           ;	.line	745; "123.c"	BF_RunAlarmOnOff = 0;
000ae8   dc46     bclr    0x46, 0x6        	BCLR	_UserFlag1,6
                                           ;	.line	747; "123.c"	BF_SetRealTimeClockAM_PM = 0;
000ae9   d445     bclr    0x45, 0x2        	BCLR	_UserFlag,2
                                           ;	.line	750; "123.c"	GV_200msClock = 100;
000aea   3c64     movai   0x64             	MOVAI	0x64
000aeb   564a     movra   0x4a             	MOVRA	_GV_200msClock
                                           _00269_DS_
                                           ;	.line	751; "123.c"	while(GV_200msClock)
000aec   3c00     movai   0                	MOVAI	0x00
000aed   5c4a     orar    0x4a             	ORAR	_GV_200msClock
000aee   f587     jbclr   0x187, 0x2       	JBCLR	PFLAG,2
000aef   aafd     goto    0xafd            	GOTO	_00272_DS_
                                           ;	.line	753; "123.c"	ClrWdt();   //(feed the doggie )
000af0   000e     clrwdt                   	clrwdt
                                           ;	.line	754; "123.c"	if(BF_TccClock2ms)  //
000af1   e045     jbset   0x45, 0          	JBSET	_UserFlag,0
000af2   aaec     goto    0xaec            	GOTO	_00269_DS_
                                           ;	.line	756; "123.c"	BF_TccClock2ms = 0;
000af3   d045     bclr    0x45, 0          	BCLR	_UserFlag,0
                                           ;	.line	757; "123.c"	if(++GV_10msClock>=5)
000af4   6648     incr    0x48             	INCR	_GV_10msClock
                                           ;;unsigned compare: left < lit(0x5=5), size=1
000af5   3c05     movai   0x5              	MOVAI	0x05
000af6   4848     rsubar  0x48             	RSUBAR	_GV_10msClock
000af7   e187     jbset   0x187, 0         	JBSET	PFLAG,0
000af8   aaec     goto    0xaec            	GOTO	_00269_DS_
                                           ;;genSkipc:3195: created from rifx:00DE608C
                                           ;	.line	759; "123.c"	GV_10msClock = 0;
000af9   7648     clrr    0x48             	CLRR	_GV_10msClock
                                           ;	.line	760; "123.c"	Sub_PT6964PowerOnAllDisp2s();
000afa   807f     call    0x7f             	CALL	_Sub_PT6964PowerOnAllDisp2s
                                           ;	.line	761; "123.c"	GV_200msClock--;
000afb   6e4a     decr    0x4a             	DECR	_GV_200msClock
000afc   aaec     goto    0xaec            	GOTO	_00269_DS_
                                           _00272_DS_
000afd   000c     return                   	RETURN	
                                           ; exit point of _Sub_Initial
                                           
                                           ;***
                                           ;  pBlock Stats: dbName = C
                                           ;***
                                           ;entry:  _Sub_TC2Initial	;Function start
                                           ; 2 exit points
                                           ;has an exit
                                           ;; Starting pCode block
                                           _Sub_TC2Initial	;Function start
                                           ; 2 exit points
                                           ;	.line	674; "123.c"	T0IE=0;//FTC2IEN = 0;      	// Disable TC2 interrupt service
000afe   d18a     bclr    0x18a, 0         	BCLR	_INTEbits,0
                                           ;	.line	675; "123.c"	TC0EN=0;//FTC2ENB = 0;     	// Disable TC2 timer
000aff   dfa0     bclr    0x1a0, 0x7       	BCLR	_T0CRbits,7
                                           ;	.line	676; "123.c"	T0CR=0x0a;//TC2M = 0x34;   	// Set TC2 clock = Foscu / 4
000b00   3c0a     movai   0xa              	MOVAI	0x0a
000b01   57a0     movra   0x1a0            	MOVRA	_T0CR
                                           ;	.line	677; "123.c"	T0LOAD=0x8b;//TC2R = 0x8B;     	// 0x8B;Set TC2 interval = 125us
000b02   3c8b     movai   0x8b             	MOVAI	0x8b
000b03   57a2     movra   0x1a2            	MOVRA	_T0LOAD
                                           ;	.line	678; "123.c"	T0IE=1;//FTC2IEN = 1;      	// Enable TC2 interrupt service
000b04   c18a     bset    0x18a, 0         	BSET	_INTEbits,0
                                           ;	.line	679; "123.c"	T0IF=0;//FTC2IRQ = 0;      	// Clear TC2 interrupt request flag
000b05   d18b     bclr    0x18b, 0         	BCLR	_INTFbits,0
                                           ;	.line	680; "123.c"	TC0EN=1;//FTC2ENB = 1;     	// Enable TC2 timer
000b06   cfa0     bset    0x1a0, 0x7       	BSET	_T0CRbits,7
000b07   000c     return                   	RETURN	
                                           ; exit point of _Sub_TC2Initial
                                           
                                           ;***
                                           ;  pBlock Stats: dbName = C
                                           ;***
                                           ;entry:  _Sub_LoopDelay	;Function start
                                           ; 2 exit points
                                           ;has an exit
                                           ;; Starting pCode block
                                           _Sub_LoopDelay	;Function start
                                           ; 2 exit points
                                           ;	.line	547; "123.c"	LV_Temp=0;
000b08   7643     clrr    0x43             	CLRR	_LV_Temp
000b09   7644     clrr    0x44             	CLRR	(_LV_Temp + 1)
                                           ;;unsigned compare: left < lit(0x1388=5000), size=2
                                           _00247_DS_
                                           ;	.line	548; "123.c"	while(LV_Temp<5000)
000b0a   3c13     movai   0x13             	MOVAI	0x13
000b0b   4844     rsubar  0x44             	RSUBAR	(_LV_Temp + 1)
000b0c   e587     jbset   0x187, 0x2       	JBSET	PFLAG,2
000b0d   ab10     goto    0xb10            	GOTO	_00256_DS_
000b0e   3c88     movai   0x88             	MOVAI	0x88
000b0f   4843     rsubar  0x43             	RSUBAR	_LV_Temp
                                           _00256_DS_
000b10   f187     jbclr   0x187, 0         	JBCLR	PFLAG,0
000b11   ab1f     goto    0xb1f            	GOTO	_00250_DS_
                                           ;;genSkipc:3195: created from rifx:00DE608C
                                           ;	.line	550; "123.c"	Nop();
000b12   0000     nop                      	nop
                                           ;	.line	551; "123.c"	Nop();
000b13   0000     nop                      	nop
                                           ;	.line	552; "123.c"	Nop();
000b14   0000     nop                      	nop
                                           ;	.line	553; "123.c"	Nop();
000b15   0000     nop                      	nop
                                           ;	.line	554; "123.c"	Nop();
000b16   0000     nop                      	nop
                                           ;	.line	555; "123.c"	Nop();
000b17   0000     nop                      	nop
                                           ;	.line	556; "123.c"	Nop();
000b18   0000     nop                      	nop
                                           ;	.line	557; "123.c"	Nop();
000b19   0000     nop                      	nop
                                           ;	.line	559; "123.c"	LV_Temp++;
000b1a   6643     incr    0x43             	INCR	_LV_Temp
000b1b   f587     jbclr   0x187, 0x2       	JBCLR	PFLAG,2
000b1c   6644     incr    0x44             	INCR	(_LV_Temp + 1)
                                           ;	.line	560; "123.c"	ClrWdt();//WDTR = 0x5a;
000b1d   000e     clrwdt                   	clrwdt
000b1e   ab0a     goto    0xb0a            	GOTO	_00247_DS_
                                           _00250_DS_
000b1f   000c     return                   	RETURN	
                                           ; exit point of _Sub_LoopDelay
                                           
                                           ;***
                                           ;  pBlock Stats: dbName = C
                                           ;***
                                           ;entry:  _Sub_IoInitial	;Function start
                                           ; 2 exit points
                                           ;has an exit
                                           ;; Starting pCode block
                                           _Sub_IoInitial	;Function start
                                           ; 2 exit points
                                           ;	.line	509; "123.c"	IOP0=0XFF;//P0  = 0xFF; //1111 1111B;  //0=low; 1=high;
000b20   3cff     movai   0xff             	MOVAI	0xff
000b21   5790     movra   0x190            	MOVRA	_IOP0
                                           ;	.line	510; "123.c"	OEP0=0X00;//P0M = 0x00; //0000 0000B;  //1=Output,0=input
000b22   7791     clrr    0x191            	CLRR	_OEP0
                                           ;	.line	511; "123.c"	PUP0=0XFF;//P0UR = 0xFF; //1111 1111B; //1=Enable,0=Disable Pull High
000b23   3cff     movai   0xff             	MOVAI	0xff
000b24   5792     movra   0x192            	MOVRA	_PUP0
                                           ;	.line	512; "123.c"	IOP0=0XFF;//P0  = 0xFF; //1111 1111B;  //0=low; 1=high
000b25   3cff     movai   0xff             	MOVAI	0xff
000b26   5790     movra   0x190            	MOVRA	_IOP0
                                           ;	.line	514; "123.c"	IOP1=0XFF;//P1  = 0xFF; //0000 0000B;  //0=low; 1=high;24c02(FP13:SCL, FP12:SDA = high.)
000b27   3cff     movai   0xff             	MOVAI	0xff
000b28   5794     movra   0x194            	MOVRA	_IOP1
                                           ;	.line	515; "123.c"	OEP1=0XBC;//P1M = 0x00; //0000 0000B;  //1=Output,0=input
000b29   3cbc     movai   0xbc             	MOVAI	0xbc
000b2a   5795     movra   0x195            	MOVRA	_OEP1
                                           ;	.line	516; "123.c"	PUP1=0X43;//P1UR = 0xFF;//1111 1111B;  //1=Enable,0=Disable Pull High
000b2b   3c43     movai   0x43             	MOVAI	0x43
000b2c   5796     movra   0x196            	MOVRA	_PUP1
                                           ;	.line	517; "123.c"	IOP1=0XFF;//P1  = 0xFF; //1111 1111B;  //0=low; 1=high
000b2d   3cff     movai   0xff             	MOVAI	0xff
000b2e   5794     movra   0x194            	MOVRA	_IOP1
                                           ;	.line	519; "123.c"	IOP2=0XFF;//P4  = 0x1F; //0001 1111B;  //0=low; 1=high;24c02(FP43:SCL, FP42:SDA = high.)
000b2f   3cff     movai   0xff             	MOVAI	0xff
000b30   5798     movra   0x198            	MOVRA	_IOP2
                                           ;	.line	520; "123.c"	OEP2=0X0A;//P4M = 0x3F; //0011 1111B;  //1=Output,0=input
000b31   3c0a     movai   0xa              	MOVAI	0x0a
000b32   5799     movra   0x199            	MOVRA	_OEP2
                                           ;	.line	521; "123.c"	PUP2=0XF5;//P4UR = 0xC0;//1100 0000B;  //1=Enable,0=Disable Pull High
000b33   3cf5     movai   0xf5             	MOVAI	0xf5
000b34   579a     movra   0x19a            	MOVRA	_PUP2
                                           ;	.line	522; "123.c"	IOP2=0XFF;//P4  = 0x1F; //0001 1111B;  //0=low; 1=high
000b35   3cff     movai   0xff             	MOVAI	0xff
000b36   5798     movra   0x198            	MOVRA	_IOP2
                                           ;	.line	529; "123.c"	DisableBuzzer();
000b37   d399     bclr    0x199, 0x1       	BCLR	_OEP2bits,1
000b38   000c     return                   	RETURN	
                                           ; exit point of _Sub_IoInitial
                                           
                                           ;***
                                           ;  pBlock Stats: dbName = C
                                           ;***
                                           ;entry:  _Sub_AlarmEvent	;Function start
                                           ; 2 exit points
                                           ;has an exit
                                           ;2 compiler assigned registers:
                                           ;   r0x1064
                                           ;   r0x1065
                                           ;; Starting pCode block
                                           _Sub_AlarmEvent	;Function start
                                           ; 2 exit points
                                           ;	.line	469; "123.c"	BF_BuzzerBBB = 0;
000b39   d846     bclr    0x46, 0x4        	BCLR	_UserFlag1,4
                                           ;	.line	471; "123.c"	if(GV_Mode) return;
000b3a   3c00     movai   0                	MOVAI	0x00
000b3b   5c52     orar    0x52             	ORAR	_GV_Mode
000b3c   f587     jbclr   0x187, 0x2       	JBCLR	PFLAG,2
000b3d   ab3f     goto    0xb3f            	GOTO	_00201_DS_
000b3e   ab6c     goto    0xb6c            	GOTO	_00216_DS_
                                           _00201_DS_
                                           ;	.line	472; "123.c"	if(BF_RunAlarmOnOff == 0) return;
000b3f   fc46     jbclr   0x46, 0x6        	JBCLR	_UserFlag1,6
000b40   ab42     goto    0xb42            	GOTO	_00203_DS_
000b41   ab6c     goto    0xb6c            	GOTO	_00216_DS_
                                           _00203_DS_
                                           ;	.line	473; "123.c"	if(GV_SnoozeTimer) return;
000b42   3c00     movai   0                	MOVAI	0x00
000b43   5c79     orar    0x79             	ORAR	_GV_SnoozeTimer
000b44   f587     jbclr   0x187, 0x2       	JBCLR	PFLAG,2
000b45   ab47     goto    0xb47            	GOTO	_00205_DS_
000b46   ab6c     goto    0xb6c            	GOTO	_00216_DS_
                                           _00205_DS_
                                           ;	.line	474; "123.c"	if(BF_RunRealTimeClockAM_PM != BF_RunAlarmAM_PM) return;
000b47   7611     clrr    0x11             	CLRR	r0x1064
000b48   f645     jbclr   0x45, 0x3        	JBCLR	_UserFlag,3
000b49   6611     incr    0x11             	INCR	r0x1064
000b4a   7612     clrr    0x12             	CLRR	r0x1065
000b4b   f646     jbclr   0x46, 0x3        	JBCLR	_UserFlag1,3
000b4c   6612     incr    0x12             	INCR	r0x1065
000b4d   5812     movar   0x12             	MOVAR	r0x1065
000b4e   4011     xorar   0x11             	XORAR	r0x1064
000b4f   e587     jbset   0x187, 0x2       	JBSET	PFLAG,2
000b50   ab52     goto    0xb52            	GOTO	_00234_DS_
000b51   ab53     goto    0xb53            	GOTO	_00207_DS_
                                           _00234_DS_
000b52   ab6c     goto    0xb6c            	GOTO	_00216_DS_
                                           _00207_DS_
                                           ;	.line	475; "123.c"	if(GV_RunAlarmClockHrTenDig != GV_RunRealTimeClockHrTenDig) return;
000b53   586c     movar   0x6c             	MOVAR	_GV_RunRealTimeClockHrTenDig
000b54   4074     xorar   0x74             	XORAR	_GV_RunAlarmClockHrTenDig
000b55   e587     jbset   0x187, 0x2       	JBSET	PFLAG,2
000b56   ab58     goto    0xb58            	GOTO	_00235_DS_
000b57   ab59     goto    0xb59            	GOTO	_00209_DS_
                                           _00235_DS_
000b58   ab6c     goto    0xb6c            	GOTO	_00216_DS_
                                           _00209_DS_
                                           ;	.line	476; "123.c"	if(GV_RunAlarmClockHrSingleDig != GV_RunRealTimeClockHrSingleDig) return;
000b59   586b     movar   0x6b             	MOVAR	_GV_RunRealTimeClockHrSingleDig
000b5a   4073     xorar   0x73             	XORAR	_GV_RunAlarmClockHrSingleDig
000b5b   e587     jbset   0x187, 0x2       	JBSET	PFLAG,2
000b5c   ab5e     goto    0xb5e            	GOTO	_00236_DS_
000b5d   ab5f     goto    0xb5f            	GOTO	_00211_DS_
                                           _00236_DS_
000b5e   ab6c     goto    0xb6c            	GOTO	_00216_DS_
                                           _00211_DS_
                                           ;	.line	477; "123.c"	if(GV_RunAlarmClockMinTenDig != GV_RunRealTimeClockMinTenDig) return;
000b5f   586e     movar   0x6e             	MOVAR	_GV_RunRealTimeClockMinTenDig
000b60   4076     xorar   0x76             	XORAR	_GV_RunAlarmClockMinTenDig
000b61   e587     jbset   0x187, 0x2       	JBSET	PFLAG,2
000b62   ab64     goto    0xb64            	GOTO	_00237_DS_
000b63   ab65     goto    0xb65            	GOTO	_00213_DS_
                                           _00237_DS_
000b64   ab6c     goto    0xb6c            	GOTO	_00216_DS_
                                           _00213_DS_
                                           ;	.line	478; "123.c"	if(GV_RunAlarmClockMinSingleDig != GV_RunRealTimeClockMinSingleDig) return;
000b65   586d     movar   0x6d             	MOVAR	_GV_RunRealTimeClockMinSingleDig
000b66   4075     xorar   0x75             	XORAR	_GV_RunAlarmClockMinSingleDig
000b67   e587     jbset   0x187, 0x2       	JBSET	PFLAG,2
000b68   ab6a     goto    0xb6a            	GOTO	_00238_DS_
000b69   ab6b     goto    0xb6b            	GOTO	_00215_DS_
                                           _00238_DS_
000b6a   ab6c     goto    0xb6c            	GOTO	_00216_DS_
                                           _00215_DS_
                                           ;	.line	480; "123.c"	BF_BuzzerBBB = 1;
000b6b   c846     bset    0x46, 0x4        	BSET	_UserFlag1,4
                                           _00216_DS_
000b6c   000c     return                   	RETURN	
                                           ; exit point of _Sub_AlarmEvent
                                           
                                           ;***
                                           ;  pBlock Stats: dbName = C
                                           ;***
                                           ;entry:  _Sub_Write1302	;Function start
                                           ; 2 exit points
                                           ;has an exit
                                           ;4 compiler assigned registers:
                                           ;   r0x105A
                                           ;   STK00
                                           ;   r0x105B
                                           ;   r0x105C
                                           ;; Starting pCode block
                                           _Sub_Write1302	;Function start
                                           ; 2 exit points
                                           ;	.line	409; "123.c"	void Sub_Write1302(unsigned char LV_Addr,unsigned char LV_Data) // DS1302
000b6d   560e     movra   0xe              	MOVRA	r0x105A
000b6e   5806     movar   0x6              	MOVAR	STK00
000b6f   560f     movra   0xf              	MOVRA	r0x105B
                                           ;	.line	412; "123.c"	PO_1381A_SCLK =0;  	
000b70   d594     bclr    0x194, 0x2       	BCLR	_IOP1bits,2
                                           ;	.line	413; "123.c"	Enable1381A_RESET();
000b71   cf94     bset    0x194, 0x7       	BSET	_IOP1bits,7
                                           ;	.line	418; "123.c"	Set1381A_I_O_ForOutput();
000b72   c795     bset    0x195, 0x3       	BSET	_OEP1bits,3
                                           ;	.line	419; "123.c"	for(i=8; i>0; i--)
000b73   3c08     movai   0x8              	MOVAI	0x08
000b74   5610     movra   0x10             	MOVRA	r0x105C
                                           _00176_DS_
000b75   3c00     movai   0                	MOVAI	0x00
000b76   5c10     orar    0x10             	ORAR	r0x105C
000b77   f587     jbclr   0x187, 0x2       	JBCLR	PFLAG,2
000b78   ab86     goto    0xb86            	GOTO	_00195_DS_
                                           ;	.line	421; "123.c"	PO_1381A_SCLK = 0; 	   	
000b79   d594     bclr    0x194, 0x2       	BCLR	_IOP1bits,2
                                           ;	.line	423; "123.c"	if(LV_TempE & 0x01)
000b7a   e00e     jbset   0xe, 0           	JBSET	r0x105A,0
000b7b   ab7e     goto    0xb7e            	GOTO	_00171_DS_
                                           ;	.line	424; "123.c"	{PO_1381A_DAT = 1;} 
000b7c   c794     bset    0x194, 0x3       	BSET	_IOP1bits,3
000b7d   ab7f     goto    0xb7f            	GOTO	_00172_DS_
                                           _00171_DS_
                                           ;	.line	426; "123.c"	{PO_1381A_DAT = 0;}
000b7e   d794     bclr    0x194, 0x3       	BCLR	_IOP1bits,3
                                           _00172_DS_
                                           ;	.line	427; "123.c"	Nop();
000b7f   0000     nop                      	nop
                                           ;	.line	428; "123.c"	Nop();
000b80   0000     nop                      	nop
                                           ;;shiftRight_Left2ResultLit:5216: shCount=1, size=1, sign=0, same=1, offr=0
                                           ;	.line	429; "123.c"	LV_Addr >>= 1;
000b81   d187     bclr    0x187, 0         	BCLR	PFLAG,0
000b82   4e0e     rrr     0xe              	RRR	r0x105A
                                           ;	.line	430; "123.c"	PO_1381A_SCLK = 1; 	
000b83   c594     bset    0x194, 0x2       	BSET	_IOP1bits,2
                                           ;	.line	419; "123.c"	for(i=8; i>0; i--)
000b84   6e10     decr    0x10             	DECR	r0x105C
000b85   ab75     goto    0xb75            	GOTO	_00176_DS_
                                           _00195_DS_
                                           ;	.line	433; "123.c"	for(i=8;i>0;i--)
000b86   3c08     movai   0x8              	MOVAI	0x08
000b87   560e     movra   0xe              	MOVRA	r0x105A
                                           _00180_DS_
000b88   3c00     movai   0                	MOVAI	0x00
000b89   5c0e     orar    0xe              	ORAR	r0x105A
000b8a   f587     jbclr   0x187, 0x2       	JBCLR	PFLAG,2
000b8b   ab99     goto    0xb99            	GOTO	_00183_DS_
                                           ;	.line	435; "123.c"	PO_1381A_SCLK = 0; 	   	
000b8c   d594     bclr    0x194, 0x2       	BCLR	_IOP1bits,2
                                           ;	.line	437; "123.c"	if(LV_TempE & 0x01)
000b8d   e00f     jbset   0xf, 0           	JBSET	r0x105B,0
000b8e   ab91     goto    0xb91            	GOTO	_00174_DS_
                                           ;	.line	438; "123.c"	{PO_1381A_DAT = 1;} 
000b8f   c794     bset    0x194, 0x3       	BSET	_IOP1bits,3
000b90   ab92     goto    0xb92            	GOTO	_00175_DS_
                                           _00174_DS_
                                           ;	.line	440; "123.c"	{PO_1381A_DAT = 0;}
000b91   d794     bclr    0x194, 0x3       	BCLR	_IOP1bits,3
                                           _00175_DS_
                                           ;	.line	441; "123.c"	Nop();
000b92   0000     nop                      	nop
                                           ;	.line	442; "123.c"	Nop();
000b93   0000     nop                      	nop
                                           ;;shiftRight_Left2ResultLit:5216: shCount=1, size=1, sign=0, same=1, offr=0
                                           ;	.line	443; "123.c"	LV_Data >>= 1;
000b94   d187     bclr    0x187, 0         	BCLR	PFLAG,0
000b95   4e0f     rrr     0xf              	RRR	r0x105B
                                           ;	.line	444; "123.c"	PO_1381A_SCLK = 1; 	
000b96   c594     bset    0x194, 0x2       	BSET	_IOP1bits,2
                                           ;	.line	433; "123.c"	for(i=8;i>0;i--)
000b97   6e0e     decr    0xe              	DECR	r0x105A
000b98   ab88     goto    0xb88            	GOTO	_00180_DS_
                                           _00183_DS_
                                           ;	.line	446; "123.c"	Disable1381A_RESET();
000b99   df94     bclr    0x194, 0x7       	BCLR	_IOP1bits,7
000b9a   000c     return                   	RETURN	
                                           ; exit point of _Sub_Write1302
                                           
                                           ;***
                                           ;  pBlock Stats: dbName = C
                                           ;***
                                           ;entry:  _Sub_Read1302	;Function start
                                           ; 2 exit points
                                           ;has an exit
                                           ;2 compiler assigned registers:
                                           ;   r0x1048
                                           ;   r0x1049
                                           ;; Starting pCode block
                                           _Sub_Read1302	;Function start
                                           ; 2 exit points
                                           ;	.line	360; "123.c"	void Sub_Read1302(unsigned char	LV_Addr) // DS1302
000b9b   560c     movra   0xc              	MOVRA	r0x1048
                                           ;	.line	363; "123.c"	PO_1381A_SCLK = 0; 	
000b9c   d594     bclr    0x194, 0x2       	BCLR	_IOP1bits,2
                                           ;	.line	364; "123.c"	Enable1381A_RESET();
000b9d   cf94     bset    0x194, 0x7       	BSET	_IOP1bits,7
                                           ;	.line	366; "123.c"	LV_Addr=(LV_Addr|0x01); //  
000b9e   c00c     bset    0xc, 0           	BSET	r0x1048,0
                                           ;	.line	367; "123.c"	PO_1381A_DAT = 0;
000b9f   d794     bclr    0x194, 0x3       	BCLR	_IOP1bits,3
                                           ;	.line	368; "123.c"	Set1381A_I_O_ForOutput();
000ba0   c795     bset    0x195, 0x3       	BSET	_OEP1bits,3
                                           ;	.line	369; "123.c"	for(i=8;i>0;i--)
000ba1   3c08     movai   0x8              	MOVAI	0x08
000ba2   560d     movra   0xd              	MOVRA	r0x1049
                                           _00158_DS_
000ba3   3c00     movai   0                	MOVAI	0x00
000ba4   5c0d     orar    0xd              	ORAR	r0x1049
000ba5   f587     jbclr   0x187, 0x2       	JBCLR	PFLAG,2
000ba6   abb4     goto    0xbb4            	GOTO	_00161_DS_
                                           ;	.line	371; "123.c"	PO_1381A_SCLK = 0; 	   	
000ba7   d594     bclr    0x194, 0x2       	BCLR	_IOP1bits,2
                                           ;	.line	373; "123.c"	if(LV_TempE & 0x01)
000ba8   e00c     jbset   0xc, 0           	JBSET	r0x1048,0
000ba9   abac     goto    0xbac            	GOTO	_00154_DS_
                                           ;	.line	374; "123.c"	{PO_1381A_DAT = 1;} 
000baa   c794     bset    0x194, 0x3       	BSET	_IOP1bits,3
000bab   abad     goto    0xbad            	GOTO	_00155_DS_
                                           _00154_DS_
                                           ;	.line	376; "123.c"	{PO_1381A_DAT = 0;}
000bac   d794     bclr    0x194, 0x3       	BCLR	_IOP1bits,3
                                           _00155_DS_
                                           ;	.line	377; "123.c"	Nop();
000bad   0000     nop                      	nop
                                           ;	.line	378; "123.c"	Nop();
000bae   0000     nop                      	nop
                                           ;;shiftRight_Left2ResultLit:5216: shCount=1, size=1, sign=0, same=1, offr=0
                                           ;	.line	379; "123.c"	LV_Addr >>= 1;
000baf   d187     bclr    0x187, 0         	BCLR	PFLAG,0
000bb0   4e0c     rrr     0xc              	RRR	r0x1048
                                           ;	.line	380; "123.c"	PO_1381A_SCLK = 1; 	
000bb1   c594     bset    0x194, 0x2       	BSET	_IOP1bits,2
                                           ;	.line	369; "123.c"	for(i=8;i>0;i--)
000bb2   6e0d     decr    0xd              	DECR	r0x1049
000bb3   aba3     goto    0xba3            	GOTO	_00158_DS_
                                           _00161_DS_
                                           ;	.line	383; "123.c"	Set1381A_I_O_ForInput();
000bb4   d795     bclr    0x195, 0x3       	BCLR	_OEP1bits,3
                                           ;	.line	384; "123.c"	for(i=8;i>0;i--)
000bb5   3c08     movai   0x8              	MOVAI	0x08
000bb6   560c     movra   0xc              	MOVRA	r0x1048
                                           _00162_DS_
000bb7   3c00     movai   0                	MOVAI	0x00
000bb8   5c0c     orar    0xc              	ORAR	r0x1048
000bb9   f587     jbclr   0x187, 0x2       	JBCLR	PFLAG,2
000bba   abc6     goto    0xbc6            	GOTO	_00165_DS_
                                           ;	.line	386; "123.c"	if(PI_PD2_DAT)
000bbb   e794     jbset   0x194, 0x3       	JBSET	_IOP1bits,3
000bbc   abbe     goto    0xbbe            	GOTO	_00157_DS_
                                           ;	.line	387; "123.c"	{GV_GetByteFromDs1302 = GV_GetByteFromDs1302|0x80;} 
000bbd   ce57     bset    0x57, 0x7        	BSET	_GV_GetByteFromDs1302,7
                                           _00157_DS_
                                           ;	.line	388; "123.c"	PO_1381A_SCLK = 1;
000bbe   c594     bset    0x194, 0x2       	BSET	_IOP1bits,2
                                           ;	.line	389; "123.c"	Nop();
000bbf   0000     nop                      	nop
                                           ;	.line	390; "123.c"	Nop();
000bc0   0000     nop                      	nop
                                           ;;shiftRight_Left2ResultLit:5216: shCount=1, size=1, sign=0, same=1, offr=0
                                           ;	.line	391; "123.c"	GV_GetByteFromDs1302 = GV_GetByteFromDs1302 >> 1;  	   	   	   	
000bc1   d187     bclr    0x187, 0         	BCLR	PFLAG,0
000bc2   4e57     rrr     0x57             	RRR	_GV_GetByteFromDs1302
                                           ;	.line	392; "123.c"	PO_1381A_SCLK = 0;
000bc3   d594     bclr    0x194, 0x2       	BCLR	_IOP1bits,2
                                           ;	.line	384; "123.c"	for(i=8;i>0;i--)
000bc4   6e0c     decr    0xc              	DECR	r0x1048
000bc5   abb7     goto    0xbb7            	GOTO	_00162_DS_
                                           _00165_DS_
                                           ;	.line	394; "123.c"	PO_1381A_SCLK = 0;
000bc6   d594     bclr    0x194, 0x2       	BCLR	_IOP1bits,2
                                           ;	.line	395; "123.c"	Disable1381A_RESET();
000bc7   df94     bclr    0x194, 0x7       	BCLR	_IOP1bits,7
000bc8   000c     return                   	RETURN	
                                           ; exit point of _Sub_Read1302
                                           
                                           ;***
                                           ;  pBlock Stats: dbName = C
                                           ;***
                                           ;entry:  _Sub_GetByteFromDS1302	;Function start
                                           ; 2 exit points
                                           ;has an exit
                                           ;1 compiler assigned register :
                                           ;   r0x1066
                                           ;; Starting pCode block
                                           _Sub_GetByteFromDS1302	;Function start
                                           ; 2 exit points
                                           ;	.line	336; "123.c"	Set1381A_I_O_ForInput();
000bc9   d795     bclr    0x195, 0x3       	BCLR	_OEP1bits,3
                                           ;	.line	337; "123.c"	for(i=8;i>0;i--)
000bca   3c08     movai   0x8              	MOVAI	0x08
000bcb   560b     movra   0xb              	MOVRA	r0x1066
                                           _00144_DS_
000bcc   3c00     movai   0                	MOVAI	0x00
000bcd   5c0b     orar    0xb              	ORAR	r0x1066
000bce   f587     jbclr   0x187, 0x2       	JBCLR	PFLAG,2
000bcf   abdb     goto    0xbdb            	GOTO	_00148_DS_
                                           ;;shiftRight_Left2ResultLit:5216: shCount=1, size=1, sign=0, same=1, offr=0
                                           ;	.line	339; "123.c"	GV_GetByteFromDs1302 = GV_GetByteFromDs1302 >> 1;  	   	
000bd0   d187     bclr    0x187, 0         	BCLR	PFLAG,0
000bd1   4e57     rrr     0x57             	RRR	_GV_GetByteFromDs1302
                                           ;	.line	340; "123.c"	if(PI_PD2_DAT)
000bd2   e794     jbset   0x194, 0x3       	JBSET	_IOP1bits,3
000bd3   abd5     goto    0xbd5            	GOTO	_00143_DS_
                                           ;	.line	341; "123.c"	{GV_GetByteFromDs1302 = GV_GetByteFromDs1302|0x80;} 
000bd4   ce57     bset    0x57, 0x7        	BSET	_GV_GetByteFromDs1302,7
                                           _00143_DS_
                                           ;	.line	342; "123.c"	PO_1381A_SCLK = 1;
000bd5   c594     bset    0x194, 0x2       	BSET	_IOP1bits,2
                                           ;	.line	343; "123.c"	Nop();
000bd6   0000     nop                      	nop
                                           ;	.line	344; "123.c"	Nop();
000bd7   0000     nop                      	nop
                                           ;	.line	345; "123.c"	PO_1381A_SCLK = 0;
000bd8   d594     bclr    0x194, 0x2       	BCLR	_IOP1bits,2
                                           ;	.line	337; "123.c"	for(i=8;i>0;i--)
000bd9   6e0b     decr    0xb              	DECR	r0x1066
000bda   abcc     goto    0xbcc            	GOTO	_00144_DS_
                                           _00148_DS_
000bdb   000c     return                   	RETURN	
                                           ; exit point of _Sub_GetByteFromDS1302
                                           
                                           ;***
                                           ;  pBlock Stats: dbName = C
                                           ;***
                                           ;entry:  _Sub_SendByteToDS1302	;Function start
                                           ; 2 exit points
                                           ;has an exit
                                           ;2 compiler assigned registers:
                                           ;   r0x1067
                                           ;   r0x1068
                                           ;; Starting pCode block
                                           _Sub_SendByteToDS1302	;Function start
                                           ; 2 exit points
                                           ;	.line	302; "123.c"	void Sub_SendByteToDS1302(unsigned char	LV_SendTodata)  
000bdc   5609     movra   0x9              	MOVRA	r0x1067
                                           ;	.line	305; "123.c"	Set1381A_I_O_ForOutput();
000bdd   c795     bset    0x195, 0x3       	BSET	_OEP1bits,3
                                           ;	.line	306; "123.c"	for(i=8; i>0; i--)
000bde   3c08     movai   0x8              	MOVAI	0x08
000bdf   560a     movra   0xa              	MOVRA	r0x1068
                                           _00133_DS_
000be0   3c00     movai   0                	MOVAI	0x00
000be1   5c0a     orar    0xa              	ORAR	r0x1068
000be2   f587     jbclr   0x187, 0x2       	JBCLR	PFLAG,2
000be3   abf1     goto    0xbf1            	GOTO	_00137_DS_
                                           ;	.line	308; "123.c"	PO_1381A_SCLK = 0; 	   	
000be4   d594     bclr    0x194, 0x2       	BCLR	_IOP1bits,2
                                           ;	.line	310; "123.c"	if(LV_TempE & 0x01)
000be5   e009     jbset   0x9, 0           	JBSET	r0x1067,0
000be6   abe9     goto    0xbe9            	GOTO	_00131_DS_
                                           ;	.line	311; "123.c"	{PO_1381A_DAT = 1;} 
000be7   c794     bset    0x194, 0x3       	BSET	_IOP1bits,3
000be8   abea     goto    0xbea            	GOTO	_00132_DS_
                                           _00131_DS_
                                           ;	.line	313; "123.c"	{PO_1381A_DAT = 0;}
000be9   d794     bclr    0x194, 0x3       	BCLR	_IOP1bits,3
                                           _00132_DS_
                                           ;	.line	314; "123.c"	Nop();
000bea   0000     nop                      	nop
                                           ;	.line	315; "123.c"	Nop();
000beb   0000     nop                      	nop
                                           ;;shiftRight_Left2ResultLit:5216: shCount=1, size=1, sign=0, same=1, offr=0
                                           ;	.line	316; "123.c"	LV_SendTodata >>= 1;
000bec   d187     bclr    0x187, 0         	BCLR	PFLAG,0
000bed   4e09     rrr     0x9              	RRR	r0x1067
                                           ;	.line	317; "123.c"	PO_1381A_SCLK = 1; 	   	
000bee   c594     bset    0x194, 0x2       	BSET	_IOP1bits,2
                                           ;	.line	306; "123.c"	for(i=8; i>0; i--)
000bef   6e0a     decr    0xa              	DECR	r0x1068
000bf0   abe0     goto    0xbe0            	GOTO	_00133_DS_
                                           _00137_DS_
000bf1   000c     return                   	RETURN	
                                           ; exit point of _Sub_SendByteToDS1302
                                           
                                           
                                           ;	code size estimation:
                                           ;	 2962+    0 =  2962 instructions ( 5924 byte)
                                           
                                           	end


MEMORY USAGE MAP ('X' = Used,  '-' = Unused)

0000 : XXXXXX---------- XXXXXXXXXXXXXXXX XXXXXXXXXXXXXXXX XXXXXXXXXXXXXXXX
0040 : XXXXXXXXXXXXXXXX XXXXXXXXXXXXXXXX XXXXXXXXXXXXXXXX XXXXXXXXXXXXXXXX
0080 : XXXXXXXXXXXXXXXX XXXXXXXXXXXXXXXX XXXXXXXXXXXXXXXX XXXXXXXXXXXXXXXX
00C0 : XXXXXXXXXXXXXXXX XXXXXXXXXXXXXXXX XXXXXXXXXXXXXXXX XXXXXXXXXXXXXXXX
0100 : XXXXXXXXXXXXXXXX XXXXXXXXXXXXXXXX XXXXXXXXXXXXXXXX XXXXXXXXXXXXXXXX
0140 : XXXXXXXXXXXXXXXX XXXXXXXXXXXXXXXX XXXXXXXXXXXXXXXX XXXXXXXXXXXXXXXX
0180 : XXXXXXXXXXXXXXXX XXXXXXXXXXXXXXXX XXXXXXXXXXXXXXXX XXXXXXXXXXXXXXXX
01C0 : XXXXXXXXXXXXXXXX XXXXXXXXXXXXXXXX XXXXXXXXXXXXXXXX XXXXXXXXXXXXXXXX
0200 : XXXXXXXXXXXXXXXX XXXXXXXXXXXXXXXX XXXXXXXXXXXXXXXX XXXXXXXXXXXXXXXX
0240 : XXXXXXXXXXXXXXXX XXXXXXXXXXXXXXXX XXXXXXXXXXXXXXXX XXXXXXXXXXXXXXXX
0280 : XXXXXXXXXXXXXXXX XXXXXXXXXXXXXXXX XXXXXXXXXXXXXXXX XXXXXXXXXXXXXXXX
02C0 : XXXXXXXXXXXXXXXX XXXXXXXXXXXXXXXX XXXXXXXXXXXXXXXX XXXXXXXXXXXXXXXX
0300 : XXXXXXXXXXXXXXXX XXXXXXXXXXXXXXXX XXXXXXXXXXXXXXXX XXXXXXXXXXXXXXXX
0340 : XXXXXXXXXXXXXXXX XXXXXXXXXXXXXXXX XXXXXXXXXXXXXXXX XXXXXXXXXXXXXXXX
0380 : XXXXXXXXXXXXXXXX XXXXXXXXXXXXXXXX XXXXXXXXXXXXXXXX XXXXXXXXXXXXXXXX
03C0 : XXXXXXXXXXXXXXXX XXXXXXXXXXXXXXXX XXXXXXXXXXXXXXXX XXXXXXXXXXXXXXXX
0400 : XXXXXXXXXXXXXXXX XXXXXXXXXXXXXXXX XXXXXXXXXXXXXXXX XXXXXXXXXXXXXXXX
0440 : XXXXXXXXXXXXXXXX XXXXXXXXXXXXXXXX XXXXXXXXXXXXXXXX XXXXXXXXXXXXXXXX
0480 : XXXXXXXXXXXXXXXX XXXXXXXXXXXXXXXX XXXXXXXXXXXXXXXX XXXXXXXXXXXXXXXX
04C0 : XXXXXXXXXXXXXXXX XXXXXXXXXXXXXXXX XXXXXXXXXXXXXXXX XXXXXXXXXXXXXXXX
0500 : XXXXXXXXXXXXXXXX XXXXXXXXXXXXXXXX XXXXXXXXXXXXXXXX XXXXXXXXXXXXXXXX
0540 : XXXXXXXXXXXXXXXX XXXXXXXXXXXXXXXX XXXXXXXXXXXXXXXX XXXXXXXXXXXXXXXX
0580 : XXXXXXXXXXXXXXXX XXXXXXXXXXXXXXXX XXXXXXXXXXXXXXXX XXXXXXXXXXXXXXXX
05C0 : XXXXXXXXXXXXXXXX XXXXXXXXXXXXXXXX XXXXXXXXXXXXXXXX XXXXXXXXXXXXXXXX
0600 : XXXXXXXXXXXXXXXX XXXXXXXXXXXXXXXX XXXXXXXXXXXXXXXX XXXXXXXXXXXXXXXX
0640 : XXXXXXXXXXXXXXXX XXXXXXXXXXXXXXXX XXXXXXXXXXXXXXXX XXXXXXXXXXXXXXXX
0680 : XXXXXXXXXXXXXXXX XXXXXXXXXXXXXXXX XXXXXXXXXXXXXXXX XXXXXXXXXXXXXXXX
06C0 : XXXXXXXXXXXXXXXX XXXXXXXXXXXXXXXX XXXXXXXXXXXXXXXX XXXXXXXXXXXXXXXX
0700 : XXXXXXXXXXXXXXXX XXXXXXXXXXXXXXXX XXXXXXXXXXXXXXXX XXXXXXXXXXXXXXXX
0740 : XXXXXXXXXXXXXXXX XXXXXXXXXXXXXXXX XXXXXXXXXXXXXXXX XXXXXXXXXXXXXXXX
0780 : XXXXXXXXXXXXXXXX XXXXXXXXXXXXXXXX XXXXXXXXXXXXXXXX XXXXXXXXXXXXXXXX
07C0 : XXXXXXXXXXXXXXXX XXXXXXXXXXXXXXXX XXXXXXXXXXXXXXXX XXXXXXXXXXXXXXXX
0800 : XXXXXXXXXXXXXXXX XXXXXXXXXXXXXXXX XXXXXXXXXXXXXXXX XXXXXXXXXXXXXXXX
0840 : XXXXXXXXXXXXXXXX XXXXXXXXXXXXXXXX XXXXXXXXXXXXXXXX XXXXXXXXXXXXXXXX
0880 : XXXXXXXXXXXXXXXX XXXXXXXXXXXXXXXX XXXXXXXXXXXXXXXX XXXXXXXXXXXXXXXX
08C0 : XXXXXXXXXXXXXXXX XXXXXXXXXXXXXXXX XXXXXXXXXXXXXXXX XXXXXXXXXXXXXXXX
0900 : XXXXXXXXXXXXXXXX XXXXXXXXXXXXXXXX XXXXXXXXXXXXXXXX XXXXXXXXXXXXXXXX
0940 : XXXXXXXXXXXXXXXX XXXXXXXXXXXXXXXX XXXXXXXXXXXXXXXX XXXXXXXXXXXXXXXX
0980 : XXXXXXXXXXXXXXXX XXXXXXXXXXXXXXXX XXXXXXXXXXXXXXXX XXXXXXXXXXXXXXXX
09C0 : XXXXXXXXXXXXXXXX XXXXXXXXXXXXXXXX XXXXXXXXXXXXXXXX XXXXXXXXXXXXXXXX
0A00 : XXXXXXXXXXXXXXXX XXXXXXXXXXXXXXXX XXXXXXXXXXXXXXXX XXXXXXXXXXXXXXXX
0A40 : XXXXXXXXXXXXXXXX XXXXXXXXXXXXXXXX XXXXXXXXXXXXXXXX XXXXXXXXXXXXXXXX
0A80 : XXXXXXXXXXXXXXXX XXXXXXXXXXXXXXXX XXXXXXXXXXXXXXXX XXXXXXXXXXXXXXXX
0AC0 : XXXXXXXXXXXXXXXX XXXXXXXXXXXXXXXX XXXXXXXXXXXXXXXX XXXXXXXXXXXXXXXX
0B00 : XXXXXXXXXXXXXXXX XXXXXXXXXXXXXXXX XXXXXXXXXXXXXXXX XXXXXXXXXXXXXXXX
0B40 : XXXXXXXXXXXXXXXX XXXXXXXXXXXXXXXX XXXXXXXXXXXXXXXX XXXXXXXXXXXXXXXX
0B80 : XXXXXXXXXXXXXXXX XXXXXXXXXXXXXXXX XXXXXXXXXXXXXXXX XXXXXXXXXXXXXXXX
0BC0 : XXXXXXXXXXXXXXXX XXXXXXXXXXXXXXXX XXXXXXXXXXXXXXXX XXXXXXXXXXXXXXXX
0C00 : XXXXXXXXXXXXXXXX XXXXXXXXXXXXXXXX XXXXXXXXXXXXXXXX XXXXXXXXXXXXXXXX
0C40 : XXXXXXXXXXXXXXXX XXXXXXXXXXXXXXXX XXXXXXXXXXXXXXXX XXXXXXXXXXXXXXXX
0C80 : XXXXXXXXXXXXXXXX XXXXXXXXXXXXXXXX XXXXXXXXXXXXXXXX XXXXXXXXXXXXXXXX
0CC0 : XXXXXXXXXXXXXXXX XXXXXXXXXXXXXXXX XXXXXXXXXXXXXXXX XXXXXXXXXXXXXXXX
0D00 : XXXXXXXXXXXXXXXX XXXXXXXXXXXXXXXX XXXXXXXXXXXXXXXX XXXXXXXXXXXXXXXX
0D40 : XXXXXXXXXXXXXXXX XXXXXXXXXXXXXXXX XXXXXXXXXXXXXXXX XXXXXXXXXXXXXXXX
0D80 : XXXXXXXXXXXXXXXX XXXXXXXXXXXXXXXX XXXXXXXXXXXXXXXX XXXXXXXXXXXXXXXX
0DC0 : XXXXXXXXXXXXXXXX XXXXXXXXXXXXXXXX XXXXXXXXXXXXXXXX XXXXXXXXXXXXXXXX
0E00 : XXXXXXXXXXXXXXXX XXXXXXXXXXXXXXXX XXXXXXXXXXXXXXXX XXXXXXXXXXXXXXXX
0E40 : XXXXXXXXXXXXXXXX XXXXXXXXXXXXXXXX XXXXXXXXXXXXXXXX XXXXXXXXXXXXXXXX
0E80 : XXXXXXXXXXXXXXXX XXXXXXXXXXXXXXXX XXXXXXXXXXXXXXXX XXXXXXXXXXXXXXXX
0EC0 : XXXXXXXXXXXXXXXX XXXXXXXXXXXXXXXX XXXXXXXXXXXXXXXX XXXXXXXXXXXXXXXX
0F00 : XXXXXXXXXXXXXXXX XXXXXXXXXXXXXXXX XXXXXXXXXXXXXXXX XXXXXXXXXXXXXXXX
0F40 : XXXXXXXXXXXXXXXX XXXXXXXXXXXXXXXX XXXXXXXXXXXXXXXX XXXXXXXXXXXXXXXX
0F80 : XXXXXXXXXXXXXXXX XXXXXXXXXXXXXXXX XXXXXXXXXXXXXXXX XXXXXXXXXXXXXXXX
0FC0 : XXXXXXXXXXXXXXXX XXXXXXXXXXXXXXXX XXXXXXXXXXXXXXXX XXXXXXXXXXXXXXXX
1000 : XXXXXXXXXXXXXXXX XXXXXXXXXXXXXXXX XXXXXXXXXXXXXXXX XXXXXXXXXXXXXXXX
1040 : XXXXXXXXXXXXXXXX XXXXXXXXXXXXXXXX XXXXXXXXXXXXXXXX XXXXXXXXXXXXXXXX
1080 : XXXXXXXXXXXXXXXX XXXXXXXXXXXXXXXX XXXXXXXXXXXXXXXX XXXXXXXXXXXXXXXX
10C0 : XXXXXXXXXXXXXXXX XXXXXXXXXXXXXXXX XXXXXXXXXXXXXXXX XXXXXXXXXXXXXXXX
1100 : XXXXXXXXXXXXXXXX XXXXXXXXXXXXXXXX XXXXXXXXXXXXXXXX XXXXXXXXXXXXXXXX
1140 : XXXXXXXXXXXXXXXX XXXXXXXXXXXXXXXX XXXXXXXXXXXXXXXX XXXXXXXXXXXXXXXX
1180 : XXXXXXXXXXXXXXXX XXXXXXXXXXXXXXXX XXXXXXXXXXXXXXXX XXXXXXXXXXXXXXXX
11C0 : XXXXXXXXXXXXXXXX XXXXXXXXXXXXXXXX XXXXXXXXXXXXXXXX XXXXXXXXXXXXXXXX
1200 : XXXXXXXXXXXXXXXX XXXXXXXXXXXXXXXX XXXXXXXXXXXXXXXX XXXXXXXXXXXXXXXX
1240 : XXXXXXXXXXXXXXXX XXXXXXXXXXXXXXXX XXXXXXXXXXXXXXXX XXXXXXXXXXXXXXXX
1280 : XXXXXXXXXXXXXXXX XXXXXXXXXXXXXXXX XXXXXXXXXXXXXXXX XXXXXXXXXXXXXXXX
12C0 : XXXXXXXXXXXXXXXX XXXXXXXXXXXXXXXX XXXXXXXXXXXXXXXX XXXXXXXXXXXXXXXX
1300 : XXXXXXXXXXXXXXXX XXXXXXXXXXXXXXXX XXXXXXXXXXXXXXXX XXXXXXXXXXXXXXXX
1340 : XXXXXXXXXXXXXXXX XXXXXXXXXXXXXXXX XXXXXXXXXXXXXXXX XXXXXXXXXXXXXXXX
1380 : XXXXXXXXXXXXXXXX XXXXXXXXXXXXXXXX XXXXXXXXXXXXXXXX XXXXXXXXXXXXXXXX
13C0 : XXXXXXXXXXXXXXXX XXXXXXXXXXXXXXXX XXXXXXXXXXXXXXXX XXXXXXXXXXXXXXXX
1400 : XXXXXXXXXXXXXXXX XXXXXXXXXXXXXXXX XXXXXXXXXXXXXXXX XXXXXXXXXXXXXXXX
1440 : XXXXXXXXXXXXXXXX XXXXXXXXXXXXXXXX XXXXXXXXXXXXXXXX XXXXXXXXXXXXXXXX
1480 : XXXXXXXXXXXXXXXX XXXXXXXXXXXXXXXX XXXXXXXXXXXXXXXX XXXXXXXXXXXXXXXX
14C0 : XXXXXXXXXXXXXXXX XXXXXXXXXXXXXXXX XXXXXXXXXXXXXXXX XXXXXXXXXXXXXXXX
1500 : XXXXXXXXXXXXXXXX XXXXXXXXXXXXXXXX XXXXXXXXXXXXXXXX XXXXXXXXXXXXXXXX
1540 : XXXXXXXXXXXXXXXX XXXXXXXXXXXXXXXX XXXXXXXXXXXXXXXX XXXXXXXXXXXXXXXX
1580 : XXXXXXXXXXXXXXXX XXXXXXXXXXXXXXXX XXXXXXXXXXXXXXXX XXXXXXXXXXXXXXXX
15C0 : XXXXXXXXXXXXXXXX XXXXXXXXXXXXXXXX XXXXXXXXXXXXXXXX XXXXXXXXXXXXXXXX
1600 : XXXXXXXXXXXXXXXX XXXXXXXXXXXXXXXX XXXXXXXXXXXXXXXX XXXXXXXXXXXXXXXX
1640 : XXXXXXXXXXXXXXXX XXXXXXXXXXXXXXXX XXXXXXXXXXXXXXXX XXXXXXXXXXXXXXXX
1680 : XXXXXXXXXXXXXXXX XXXXXXXXXXXXXXXX XXXXXXXXXXXXXXXX XXXXXXXXXXXXXXXX
16C0 : XXXXXXXXXXXXXXXX XXXXXXXXXXXXXXXX XXXXXXXXXXXXXXXX XXXXXXXXXXXXXXXX
1700 : XXXXXXXXXXXXXXXX XXXXXXXXXXXXXXXX XXXXXXXXXXXXXXXX XXXXXXXXXXXXXXXX
1740 : XXXXXXXXXXXXXXXX XXXXXXXXXXXXXXXX XXXXXXXXXXXXXXXX XXXXXXXXXXXXXXXX
1780 : XXXXXXXXXXXXXXXX XXXXXXXXXXXXXXXX XXXXXXXXXXXXXXXX XXXXXXXXXXXXXXXX
17C0 : XXXXXXXXXXXXXXXX XXXXXXXXXXXXXXXX XXXXXXXXXXXXXXXX XXXXXXXXXXXXXXXX
1800 : XXXXXXXXXXXXXXXX XXXXXXXXXXXXXXXX XXXXXXXXXXXXXXXX XXXXXXXXXXXXXXXX
1840 : XXXXXXXXXXXXXXXX XXXXXXXXXXXXXX-- ---------------- ----------------

All other memory blocks unused.

Program Memory Words Used:  3114

