gpasm-2.0.0_beta2 (Nov  6 2017)main.asm           2018-5-29  12:06:58          PAGE  1


LOC  OBJECT CODE     LINE SOURCE TEXT
  VALUE

                      00001 ;--------------------------------------------------------
                      00002 ; File Created by SN-SDCC : SinoMCU ANSI-C Compiler
                      00003 ; Version 1.1.2 (May  8 2018) (MINGW32)
                      00004 ; This file was generated Tue May 29 12:06:57 2018
                      00005 ;--------------------------------------------------------
                      00006 ; MC32 port for the RISC core
                      00007 ;--------------------------------------------------------
                      00008 ;       .file   "main.c"
                      00009         list    p=7511
                      00010         radix dec
                      00011         include "7511.inc"
                      00001                 LIST
                      00002 ;mc32p7511.inc    Standard Header File, Version 1.00 by Sinomcu
                      00496                 LIST
                      00012 ;--------------------------------------------------------
                      00013 ; external declarations
                      00014 ;--------------------------------------------------------
                      00015         extern  __divuint
                      00016         extern  __mulint
                      00017         extern  _INDF0bits
                      00018         extern  _INDF1bits
                      00019         extern  _INDF2bits
                      00020         extern  _HIBYTEbits
                      00021         extern  _FSR0bits
                      00022         extern  _FSR1bits
                      00023         extern  _PCLbits
                      00024         extern  _PFLAGbits
                      00025         extern  _MCRbits
                      00026         extern  _INDF3bits
                      00027         extern  _INTEbits
                      00028         extern  _INTFbits
                      00029         extern  _IOP0bits
                      00030         extern  _OEP0bits
                      00031         extern  _PUP0bits
                      00032         extern  _PDP0bits
                      00033         extern  _IOP1bits
                      00034         extern  _OEP1bits
                      00035         extern  _PUP1bits
                      00036         extern  _PDP1bits
                      00037         extern  _PWM0DEbits
                      00038         extern  _PWM1DEbits
                      00039         extern  _T0CRbits
                      00040         extern  _T0CNTbits
                      00041         extern  _T0LOADbits
                      00042         extern  _T0DATAbits
                      00043         extern  _T1CRbits
                      00044         extern  _T1CNTbits
                      00045         extern  _T1LOADbits
                      00046         extern  _T1DATAbits
                      00047         extern  _AUCRbits
                      00048         extern  _KBCRbits
                      00049         extern  _OSCMbits
                      00050         extern  _LVDCRbits
                      00051         extern  _ADCR0bits
                      00052         extern  _ADCR1bits
                      00053         extern  _AN0SELbits
                      00054         extern  _AN1SELbits
                      00055         extern  _ADRHbits
                      00056         extern  _ADRLbits
                      00057         extern  _ADCR2bits
                      00058         extern  _INDF0
                      00059         extern  _INDF1
                      00060         extern  _INDF2
                      00061         extern  _HIBYTE
                      00062         extern  _FSR0
                      00063         extern  _FSR1
                      00064         extern  _PCL
                      00065         extern  _PFLAG
                      00066         extern  _MCR
                      00067         extern  _INDF3
                      00068         extern  _INTE
                      00069         extern  _INTF
                      00070         extern  _IOP0
                      00071         extern  _OEP0
                      00072         extern  _PUP0
                      00073         extern  _PDP0
                      00074         extern  _IOP1
                      00075         extern  _OEP1
                      00076         extern  _PUP1
                      00077         extern  _PDP1
                      00078         extern  _PWM0DE
                      00079         extern  _PWM1DE
                      00080         extern  _T0CR
                      00081         extern  _T0CNT
                      00082         extern  _T0LOAD
                      00083         extern  _T0DATA
                      00084         extern  _T1CR
                      00085         extern  _T1CNT
                      00086         extern  _T1LOAD
                      00087         extern  _T1DATA
                      00088         extern  _AUCR
                      00089         extern  _KBCR
                      00090         extern  _OSCM
                      00091         extern  _LVDCR
                      00092         extern  _ADCR0
                      00093         extern  _ADCR1
                      00094         extern  _AN0SEL
                      00095         extern  _AN1SEL
                      00096         extern  _ADRH
                      00097         extern  _ADRL
                      00098         extern  _ADCR2
                      00099         extern  __gptrget1
                      00100 ;--------------------------------------------------------
                      00101 ; global declarations
                      00102 ;--------------------------------------------------------
                      00103         global  _delay_us
                      00104         global  _TwobyteDIVone
                      00105         global  _adc_loop_bat
                      00106         global  _adc_loop_speed
                      00107         global  _setb_io
                      00108         global  _clrb_io
                      00109         global  _set_normal_seg
                      00110         global  _disp_num_1
                      00111         global  _disp_num_2
                      00112         global  _disp_num_5
                      00113         global  _disp_num_4
                      00114         global  _disp_num_3
                      00115         global  _disp_speed_trip_bat
                      00116         global  _bat_how_many
                      00117         global  _LCD_DispALL
                      00118         global  _learn_while_type
                      00119         global  _choice_bat
                      00120         global  _mux_ioport
                      00121         global  _mux_ab
                      00122         global  _Drive_lcd
                      00123         global  _SysInit
                      00124         global  _AverageADCData
                      00125         global  _speed_handle
                      00126         global  _odo_handle
                      00127         global  _sys_bat
                      00128         global  _main
                      00129         global  _int_isr
                      00130         global  _ABuf
                      00131         global  _PFLAGBuf
                      00132         global  _VR_count
                      00133         global  _scan_cnt
                      00134         global  _Lcd_seg
                      00135         global  _LCD_COPY
                      00136         global  _seg_bit
                      00137         global  _Stalls_Bat
                      00138         global  _time1_cnt
                      00139         global  _time1_cnt1
                      00140         global  _BAT_AD
                      00141         global  _speed_AD
                      00142         global  _BAT_AD_copy
                      00143         global  _voltage
                      00144         global  _sub_km
                      00145         global  _Milage_temp
                      00146         global  _voltage_copy
                      00147         global  _SpdInt
                      00148         global  _SpeedTest
                      00149         global  _ShowSpeed
                      00150         global  _choice_vol
                      00151         global  _voltage_TY_flag
                      00152         global  _VR_flag1
                      00153         global  _VR_flag2
                      00154         global  _VL_flag1
                      00155         global  _VL_flag2
                      00156         global  _VD_flag1
                      00157         global  _VD_flag2
                      00158         global  _R2
                      00159         global  _R5
                      00160         global  _R6
                      00161         global  _R7
                      00162         global  _R3R4
                      00163         global  _R1R0
                      00164         global  _DivResult
                      00165         global  _PAC
                      00166         global  _FLAG1
                      00167         global  _LED7Code10
                      00168         global  _LED7Code11
                      00169         global  _LED7Code20
                      00170         global  _LED7Code21
                      00171         global  _LED7Code30
                      00172         global  _LED7Code31
                      00173         global  _LED7Code40
                      00174         global  _LED7Code41
                      00175         global  _LED7Code50
                      00176         global  _LED7Code51
                      00177 
                      00178         global STK06
                      00179         global STK05
                      00180         global STK04
                      00181         global STK03
                      00182         global STK02
                      00183         global STK01
                      00184         global STK00
                      00185 
                      00186 sharebank udata_ovr 0x0000
0000                  00187 STK06   res 1
0000                  00188 STK05   res 1
0001                  00189 STK04   res 1
0001                  00190 STK03   res 1
0002                  00191 STK02   res 1
0002                  00192 STK01   res 1
0003                  00193 STK00   res 1
                      00194 
                      00195 ;--------------------------------------------------------
                      00196 ; global definitions
                      00197 ;--------------------------------------------------------
                      00198 UD_main_0       udata
0000                  00199 _ABuf   res     1
                      00200 
                      00201 UD_main_1       udata
0000                  00202 _PFLAGBuf       res     1
                      00203 
                      00204 UD_main_2       udata
0000                  00205 _VR_count       res     1
                      00206 
                      00207 UD_main_3       udata
0000                  00208 _scan_cnt       res     1
                      00209 
                      00210 UD_main_4       udata
0000                  00211 _Lcd_seg        res     9
                      00212 
                      00213 UD_main_5       udata
0000                  00214 _LCD_COPY       res     1
                      00215 
                      00216 UD_main_6       udata
0000                  00217 _seg_bit        res     5
                      00218 
                      00219 UD_main_7       udata
0000                  00220 _Stalls_Bat     res     8
                      00221 
                      00222 UD_main_8       udata
0000                  00223 _time1_cnt      res     1
                      00224 
                      00225 UD_main_9       udata
0000                  00226 _time1_cnt1     res     1
                      00227 
                      00228 UD_main_10      udata
0000                  00229 _BAT_AD res     2
                      00230 
                      00231 UD_main_11      udata
0000                  00232 _speed_AD       res     2
                      00233 
                      00234 UD_main_12      udata
0000                  00235 _BAT_AD_copy    res     2
                      00236 
                      00237 UD_main_13      udata
0000                  00238 _voltage        res     2
                      00239 
                      00240 UD_main_14      udata
0000                  00241 _sub_km res     2
                      00242 
                      00243 UD_main_15      udata
0000                  00244 _Milage_temp    res     2
                      00245 
                      00246 UD_main_16      udata
0000                  00247 _voltage_copy   res     2
                      00248 
                      00249 UD_main_17      udata
0000                  00250 _SpdInt res     2
                      00251 
                      00252 UD_main_18      udata
0000                  00253 _SpeedTest      res     2
                      00254 
                      00255 UD_main_19      udata
0000                  00256 _ShowSpeed      res     2
                      00257 
                      00258 UD_main_20      udata
0000                  00259 _choice_vol     res     1
                      00260 
                      00261 UD_main_21      udata
0000                  00262 _voltage_TY_flag        res     1
                      00263 
                      00264 UD_main_22      udata
0000                  00265 _VR_flag1       res     1
                      00266 
                      00267 UD_main_23      udata
0000                  00268 _VR_flag2       res     1
                      00269 
                      00270 UD_main_24      udata
0000                  00271 _VL_flag1       res     1
                      00272 
                      00273 UD_main_25      udata
0000                  00274 _VL_flag2       res     1
                      00275 
                      00276 UD_main_26      udata
0000                  00277 _VD_flag1       res     1
                      00278 
                      00279 UD_main_27      udata
0000                  00280 _VD_flag2       res     1
                      00281 
                      00282 UD_main_28      udata
0000                  00283 _R2     res     1
                      00284 
                      00285 UD_main_29      udata
0000                  00286 _R5     res     1
                      00287 
                      00288 UD_main_30      udata
0000                  00289 _R6     res     1
                      00290 
                      00291 UD_main_31      udata
0000                  00292 _R7     res     1
                      00293 
                      00294 UD_main_32      udata
0000                  00295 _R3R4   res     2
                      00296 
                      00297 UD_main_33      udata
0000                  00298 _R1R0   res     2
                      00299 
                      00300 UD_main_34      udata
0000                  00301 _DivResult      res     2
                      00302 
                      00303 UD_main_35      udata
0000                  00304 _PAC    res     1
                      00305 
                      00306 UD_main_36      udata
0000                  00307 _FLAG1  res     1
                      00308 
                      00309 ;--------------------------------------------------------
                      00310 ; absolute symbol definitions
                      00311 ;--------------------------------------------------------
                      00312 ;--------------------------------------------------------
                      00313 ; compiler-defined variables
                      00314 ;--------------------------------------------------------
                      00315 UDL_main_0      udata
0000                  00316 r0x1041 res     1
0000                  00317 r0x1040 res     1
0001                  00318 r0x1043 res     1
0001                  00319 r0x1042 res     1
0002                  00320 r0x1046 res     1
0002                  00321 r0x1047 res     1
0003                  00322 r0x1044 res     1
0003                  00323 r0x1045 res     1
0004                  00324 r0x1048 res     1
0004                  00325 r0x1049 res     1
0005                  00326 r0x104A res     1
0005                  00327 r0x104B res     1
0006                  00328 r0x104C res     1
0006                  00329 r0x104D res     1
0007                  00330 r0x104E res     1
0007                  00331 r0x104F res     1
0008                  00332 r0x1050 res     1
0008                  00333 _speed_handle_Speed_1_136       res     2
0009                  00334 _main_disp_all_cnt_1_156        res     1
000A                  00335 _main_disp_all_flag_1_156       res     1
000A                  00336 _main_disp_flag_1_156   res     1
000B                  00337 _main_bat_km_qh_cnt_1_156       res     1
                      00338 ;--------------------------------------------------------
                      00339 ; initialized data
                      00340 ;--------------------------------------------------------
                      00341 
                      00342 ID_main_0       code    0x079C
079C                  00343 _LED7Code10
079C   001B           00344         dw 0x1b
079D   0000           00345         dw 0x00
079E   0017           00346         dw 0x17
079F   0015           00347         dw 0x15
07A0   000C           00348         dw 0x0c
07A1   001D           00349         dw 0x1d
07A2   001F           00350         dw 0x1f
07A3   0010           00351         dw 0x10
07A4   001F           00352         dw 0x1f
07A5   001D           00353         dw 0x1d
                      00354 
                      00355 
                      00356 ID_main_1       code    0x07A6
07A6                  00357 _LED7Code11
07A6   000A           00358         dw 0x0a
07A7   000A           00359         dw 0x0a
07A8   0008           00360         dw 0x08
07A9   000A           00361         dw 0x0a
07AA   000A           00362         dw 0x0a
07AB   0002           00363         dw 0x02
07AC   0002           00364         dw 0x02
07AD   000A           00365         dw 0x0a
07AE   000A           00366         dw 0x0a
07AF   000A           00367         dw 0x0a
                      00368 
                      00369 
                      00370 ID_main_2       code    0x07B0
07B0                  00371 _LED7Code20
07B0   0005           00372         dw 0x05
07B1   0000           00373         dw 0x00
07B2   0001           00374         dw 0x01
07B3   0000           00375         dw 0x00
07B4   0004           00376         dw 0x04
07B5   0004           00377         dw 0x04
07B6   0005           00378         dw 0x05
07B7   0000           00379         dw 0x00
07B8   0005           00380         dw 0x05
07B9   0004           00381         dw 0x04
                      00382 
                      00383 
                      00384 ID_main_3       code    0x07BA
07BA                  00385 _LED7Code21
07BA   001B           00386         dw 0x1b
07BB   000A           00387         dw 0x0a
07BC   001D           00388         dw 0x1d
07BD   001F           00389         dw 0x1f
07BE   000E           00390         dw 0x0e
07BF   0017           00391         dw 0x17
07C0   0017           00392         dw 0x17
07C1   001A           00393         dw 0x1a
07C2   001F           00394         dw 0x1f
07C3   001F           00395         dw 0x1f
                      00396 
                      00397 
                      00398 ID_main_4       code    0x07C4
07C4                  00399 _LED7Code30
07C4   001B           00400         dw 0x1b
07C5   000A           00401         dw 0x0a
07C6   0017           00402         dw 0x17
07C7   001F           00403         dw 0x1f
07C8   000E           00404         dw 0x0e
07C9   001D           00405         dw 0x1d
07CA   001D           00406         dw 0x1d
07CB   000B           00407         dw 0x0b
07CC   001F           00408         dw 0x1f
07CD   001F           00409         dw 0x1f
                      00410 
                      00411 
                      00412 ID_main_5       code    0x07CE
07CE                  00413 _LED7Code31
07CE   0005           00414         dw 0x05
07CF   0000           00415         dw 0x00
07D0   0004           00416         dw 0x04
07D1   0000           00417         dw 0x00
07D2   0001           00418         dw 0x01
07D3   0001           00419         dw 0x01
07D4   0005           00420         dw 0x05
07D5   0000           00421         dw 0x00
07D6   0005           00422         dw 0x05
07D7   0001           00423         dw 0x01
                      00424 
                      00425 
                      00426 ID_main_6       code    0x07D8
07D8                  00427 _LED7Code40
07D8   0012           00428         dw 0x12
07D9   0012           00429         dw 0x12
07DA   0002           00430         dw 0x02
07DB   0012           00431         dw 0x12
07DC   0012           00432         dw 0x12
07DD   0010           00433         dw 0x10
07DE   0010           00434         dw 0x10
07DF   0012           00435         dw 0x12
07E0   0012           00436         dw 0x12
07E1   0012           00437         dw 0x12
                      00438 
                      00439 
                      00440 ID_main_7       code    0x07E2
07E2                  00441 _LED7Code41
07E2   001B           00442         dw 0x1b
07E3   0000           00443         dw 0x00
07E4   001D           00444         dw 0x1d
07E5   0015           00445         dw 0x15
07E6   0006           00446         dw 0x06
07E7   0017           00447         dw 0x17
07E8   001F           00448         dw 0x1f
07E9   0001           00449         dw 0x01
07EA   001F           00450         dw 0x1f
07EB   0017           00451         dw 0x17
                      00452 
                      00453 
                      00454 ID_main_8       code    0x07EC
07EC                  00455 _LED7Code50
07EC   001B           00456         dw 0x1b
07ED   000A           00457         dw 0x0a
07EE   0017           00458         dw 0x17
07EF   001F           00459         dw 0x1f
07F0   000E           00460         dw 0x0e
07F1   001D           00461         dw 0x1d
07F2   001D           00462         dw 0x1d
07F3   000B           00463         dw 0x0b
07F4   001F           00464         dw 0x1f
07F5   001F           00465         dw 0x1f
                      00466 
                      00467 
                      00468 ID_main_9       code    0x07F6
07F6                  00469 _LED7Code51
07F6   0014           00470         dw 0x14
07F7   0000           00471         dw 0x00
07F8   0010           00472         dw 0x10
07F9   0000           00473         dw 0x00
07FA   0004           00474         dw 0x04
07FB   0004           00475         dw 0x04
07FC   0014           00476         dw 0x14
07FD   0000           00477         dw 0x00
07FE   0014           00478         dw 0x14
07FF   0004           00479         dw 0x04
                      00480 
                      00481 
                      00482 ;@Allocation info for local variables in function 'delay_us'
                      00483 ;@delay_us delay_us                  Allocated to registers ;size:2
                      00484 ;@delay_us INDF0bits                 Allocated to registers ;size:1
                      00485 ;@delay_us INDF1bits                 Allocated to registers ;size:1
                      00486 ;@delay_us INDF2bits                 Allocated to registers ;size:1
                      00487 ;@delay_us HIBYTEbits                Allocated to registers ;size:1
                      00488 ;@delay_us FSR0bits                  Allocated to registers ;size:1
                      00489 ;@delay_us FSR1bits                  Allocated to registers ;size:1
                      00490 ;@delay_us PCLbits                   Allocated to registers ;size:1
                      00491 ;@delay_us PFLAGbits                 Allocated to registers ;size:1
                      00492 ;@delay_us MCRbits                   Allocated to registers ;size:1
                      00493 ;@delay_us INDF3bits                 Allocated to registers ;size:1
                      00494 ;@delay_us INTEbits                  Allocated to registers ;size:1
                      00495 ;@delay_us INTFbits                  Allocated to registers ;size:1
                      00496 ;@delay_us IOP0bits                  Allocated to registers ;size:1
                      00497 ;@delay_us OEP0bits                  Allocated to registers ;size:1
                      00498 ;@delay_us PUP0bits                  Allocated to registers ;size:1
                      00499 ;@delay_us PDP0bits                  Allocated to registers ;size:1
                      00500 ;@delay_us IOP1bits                  Allocated to registers ;size:1
                      00501 ;@delay_us OEP1bits                  Allocated to registers ;size:1
                      00502 ;@delay_us PUP1bits                  Allocated to registers ;size:1
                      00503 ;@delay_us PDP1bits                  Allocated to registers ;size:1
                      00504 ;@delay_us PWM0DEbits                Allocated to registers ;size:1
                      00505 ;@delay_us PWM1DEbits                Allocated to registers ;size:1
                      00506 ;@delay_us T0CRbits                  Allocated to registers ;size:1
                      00507 ;@delay_us T0CNTbits                 Allocated to registers ;size:1
                      00508 ;@delay_us T0LOADbits                Allocated to registers ;size:1
                      00509 ;@delay_us T0DATAbits                Allocated to registers ;size:1
                      00510 ;@delay_us T1CRbits                  Allocated to registers ;size:1
                      00511 ;@delay_us T1CNTbits                 Allocated to registers ;size:1
                      00512 ;@delay_us T1LOADbits                Allocated to registers ;size:1
                      00513 ;@delay_us T1DATAbits                Allocated to registers ;size:1
                      00514 ;@delay_us AUCRbits                  Allocated to registers ;size:1
                      00515 ;@delay_us KBCRbits                  Allocated to registers ;size:1
                      00516 ;@delay_us OSCMbits                  Allocated to registers ;size:1
                      00517 ;@delay_us LVDCRbits                 Allocated to registers ;size:1
                      00518 ;@delay_us ADCR0bits                 Allocated to registers ;size:1
                      00519 ;@delay_us ADCR1bits                 Allocated to registers ;size:1
                      00520 ;@delay_us AN0SELbits                Allocated to registers ;size:1
                      00521 ;@delay_us AN1SELbits                Allocated to registers ;size:1
                      00522 ;@delay_us ADRHbits                  Allocated to registers ;size:1
                      00523 ;@delay_us ADRLbits                  Allocated to registers ;size:1
                      00524 ;@delay_us ADCR2bits                 Allocated to registers ;size:1
                      00525 ;@delay_us ABuf                      Allocated to registers ;size:1
                      00526 ;@delay_us PFLAGBuf                  Allocated to registers ;size:1
                      00527 ;@delay_us VR_count                  Allocated to registers ;size:1
                      00528 ;@delay_us scan_cnt                  Allocated to registers ;size:1
                      00529 ;@delay_us Lcd_seg                   Allocated to registers ;size:9
                      00530 ;@delay_us LCD_COPY                  Allocated to registers ;size:1
                      00531 ;@delay_us seg_bit                   Allocated to registers ;size:5
                      00532 ;@delay_us Stalls_Bat                Allocated to registers ;size:8
                      00533 ;@delay_us time1_cnt                 Allocated to registers ;size:1
                      00534 ;@delay_us time1_cnt1                Allocated to registers ;size:1
                      00535 ;@delay_us BAT_AD                    Allocated to registers ;size:2
                      00536 ;@delay_us speed_AD                  Allocated to registers ;size:2
                      00537 ;@delay_us BAT_AD_copy               Allocated to registers ;size:2
                      00538 ;@delay_us voltage                   Allocated to registers ;size:2
                      00539 ;@delay_us sub_km                    Allocated to registers ;size:2
                      00540 ;@delay_us Milage_temp               Allocated to registers ;size:2
                      00541 ;@delay_us voltage_copy              Allocated to registers ;size:2
                      00542 ;@delay_us SpdInt                    Allocated to registers ;size:2
                      00543 ;@delay_us SpeedTest                 Allocated to registers ;size:2
                      00544 ;@delay_us ShowSpeed                 Allocated to registers ;size:2
                      00545 ;@delay_us choice_vol                Allocated to registers ;size:1
                      00546 ;@delay_us voltage_TY_flag           Allocated to registers ;size:1
                      00547 ;@delay_us VR_flag1                  Allocated to registers ;size:1
                      00548 ;@delay_us VR_flag2                  Allocated to registers ;size:1
                      00549 ;@delay_us VL_flag1                  Allocated to registers ;size:1
                      00550 ;@delay_us VL_flag2                  Allocated to registers ;size:1
                      00551 ;@delay_us VD_flag1                  Allocated to registers ;size:1
                      00552 ;@delay_us VD_flag2                  Allocated to registers ;size:1
                      00553 ;@delay_us R2                        Allocated to registers ;size:1
                      00554 ;@delay_us R5                        Allocated to registers ;size:1
                      00555 ;@delay_us R6                        Allocated to registers ;size:1
                      00556 ;@delay_us R7                        Allocated to registers ;size:1
                      00557 ;@delay_us R3R4                      Allocated to registers ;size:2
                      00558 ;@delay_us R1R0                      Allocated to registers ;size:2
                      00559 ;@delay_us DivResult                 Allocated to registers ;size:2
                      00560 ;@delay_us PAC                       Allocated to registers ;size:1
                      00561 ;@delay_us FLAG1                     Allocated to registers ;size:1
                      00562 ;@delay_us time_delay                Allocated to registers ;size:2
                      00563 ;@delay_us INDF0                     Allocated to registers ;size:1
                      00564 ;@delay_us INDF1                     Allocated to registers ;size:1
                      00565 ;@delay_us INDF2                     Allocated to registers ;size:1
                      00566 ;@delay_us HIBYTE                    Allocated to registers ;size:1
                      00567 ;@delay_us FSR0                      Allocated to registers ;size:1
                      00568 ;@delay_us FSR1                      Allocated to registers ;size:1
                      00569 ;@delay_us PCL                       Allocated to registers ;size:1
                      00570 ;@delay_us PFLAG                     Allocated to registers ;size:1
                      00571 ;@delay_us MCR                       Allocated to registers ;size:1
                      00572 ;@delay_us INDF3                     Allocated to registers ;size:1
                      00573 ;@delay_us INTE                      Allocated to registers ;size:1
                      00574 ;@delay_us INTF                      Allocated to registers ;size:1
                      00575 ;@delay_us IOP0                      Allocated to registers ;size:1
                      00576 ;@delay_us OEP0                      Allocated to registers ;size:1
                      00577 ;@delay_us PUP0                      Allocated to registers ;size:1
                      00578 ;@delay_us PDP0                      Allocated to registers ;size:1
                      00579 ;@delay_us IOP1                      Allocated to registers ;size:1
                      00580 ;@delay_us OEP1                      Allocated to registers ;size:1
                      00581 ;@delay_us PUP1                      Allocated to registers ;size:1
                      00582 ;@delay_us PDP1                      Allocated to registers ;size:1
                      00583 ;@delay_us PWM0DE                    Allocated to registers ;size:1
                      00584 ;@delay_us PWM1DE                    Allocated to registers ;size:1
                      00585 ;@delay_us T0CR                      Allocated to registers ;size:1
                      00586 ;@delay_us T0CNT                     Allocated to registers ;size:1
                      00587 ;@delay_us T0LOAD                    Allocated to registers ;size:1
                      00588 ;@delay_us T0DATA                    Allocated to registers ;size:1
                      00589 ;@delay_us T1CR                      Allocated to registers ;size:1
                      00590 ;@delay_us T1CNT                     Allocated to registers ;size:1
                      00591 ;@delay_us T1LOAD                    Allocated to registers ;size:1
                      00592 ;@delay_us T1DATA                    Allocated to registers ;size:1
                      00593 ;@delay_us AUCR                      Allocated to registers ;size:1
                      00594 ;@delay_us KBCR                      Allocated to registers ;size:1
                      00595 ;@delay_us OSCM                      Allocated to registers ;size:1
                      00596 ;@delay_us LVDCR                     Allocated to registers ;size:1
                      00597 ;@delay_us ADCR0                     Allocated to registers ;size:1
                      00598 ;@delay_us ADCR1                     Allocated to registers ;size:1
                      00599 ;@delay_us AN0SEL                    Allocated to registers ;size:1
                      00600 ;@delay_us AN1SEL                    Allocated to registers ;size:1
                      00601 ;@delay_us ADRH                      Allocated to registers ;size:1
                      00602 ;@delay_us ADRL                      Allocated to registers ;size:1
                      00603 ;@delay_us ADCR2                     Allocated to registers ;size:1
                      00604 ;@end Allocation info for local variables in function 'delay_us';
                      00605 ;@Allocation info for local variables in function 'TwobyteDIVone'
                      00606 ;@end Allocation info for local variables in function 'TwobyteDIVone';
                      00607 ;@Allocation info for local variables in function 'adc_loop_bat'
                      00608 ;@end Allocation info for local variables in function 'adc_loop_bat';
                      00609 ;@Allocation info for local variables in function 'adc_loop_speed'
                      00610 ;@end Allocation info for local variables in function 'adc_loop_speed';
                      00611 ;@Allocation info for local variables in function 'setb_io'
                      00612 ;@setb_io seg_nums                  Allocated to registers r0x1040 ;size:1
                      00613 ;@end Allocation info for local variables in function 'setb_io';
                      00614 ;@Allocation info for local variables in function 'clrb_io'
                      00615 ;@clrb_io seg_nums                  Allocated to registers r0x1040 ;size:1
                      00616 ;@end Allocation info for local variables in function 'clrb_io';
                      00617 ;@Allocation info for local variables in function 'set_normal_seg'
                      00618 ;@set_normal_seg which_com                 Allocated to registers r0x1042 ;size:1
                      00619 ;@set_normal_seg sta                       Allocated to registers r0x1041 ;size:1
                      00620 ;@set_normal_seg i                         Allocated to registers r0x1042 ;size:1
                      00621 ;@set_normal_seg t                         Allocated to registers r0x1043 ;size:1
                      00622 ;@set_normal_seg mem_mask                  Allocated to registers r0x1044 ;size:1
                      00623 ;@end Allocation info for local variables in function 'set_normal_seg';
                      00624 ;@Allocation info for local variables in function 'disp_num_1'
                      00625 ;@disp_num_1 num                       Allocated to registers r0x1040 ;size:1
                      00626 ;@end Allocation info for local variables in function 'disp_num_1';
                      00627 ;@Allocation info for local variables in function 'disp_num_2'
                      00628 ;@disp_num_2 num                       Allocated to registers r0x1040 ;size:1
                      00629 ;@end Allocation info for local variables in function 'disp_num_2';
                      00630 ;@Allocation info for local variables in function 'disp_num_5'
                      00631 ;@disp_num_5 num                       Allocated to registers r0x1040 ;size:1
                      00632 ;@end Allocation info for local variables in function 'disp_num_5';
                      00633 ;@Allocation info for local variables in function 'disp_num_4'
                      00634 ;@disp_num_4 num                       Allocated to registers r0x1040 ;size:1
                      00635 ;@end Allocation info for local variables in function 'disp_num_4';
                      00636 ;@Allocation info for local variables in function 'disp_num_3'
                      00637 ;@disp_num_3 num                       Allocated to registers r0x1040 ;size:1
                      00638 ;@end Allocation info for local variables in function 'disp_num_3';
                      00639 ;@Allocation info for local variables in function 'disp_speed_trip_bat'
                      00640 ;@disp_speed_trip_bat bl                        Allocated to registers r0x1045 ;size:1
                      00641 ;@disp_speed_trip_bat num                       Allocated to registers r0x1045 r0x1046 ;size:2
                      00642 ;@end Allocation info for local variables in function 'disp_speed_trip_bat';
                      00643 ;@Allocation info for local variables in function 'bat_how_many'
                      00644 ;@bat_how_many Vol                       Allocated to registers r0x1041 r0x1040 ;size:2
                      00645 ;@end Allocation info for local variables in function 'bat_how_many';
                      00646 ;@Allocation info for local variables in function 'LCD_DispALL'
                      00647 ;@LCD_DispALL uc_data                   Allocated to registers r0x1040 ;size:1
                      00648 ;@LCD_DispALL uc_i                      Allocated to registers r0x1041 ;size:1
                      00649 ;@end Allocation info for local variables in function 'LCD_DispALL';
                      00650 ;@Allocation info for local variables in function 'learn_while_type'
                      00651 ;@end Allocation info for local variables in function 'learn_while_type';
                      00652 ;@Allocation info for local variables in function 'choice_bat'
                      00653 ;@end Allocation info for local variables in function 'choice_bat';
                      00654 ;@Allocation info for local variables in function 'mux_ioport'
                      00655 ;@end Allocation info for local variables in function 'mux_ioport';
                      00656 ;@Allocation info for local variables in function 'mux_ab'
                      00657 ;@end Allocation info for local variables in function 'mux_ab';
                      00658 ;@Allocation info for local variables in function 'Drive_lcd'
                      00659 ;@end Allocation info for local variables in function 'Drive_lcd';
                      00660 ;@Allocation info for local variables in function 'SysInit'
                      00661 ;@end Allocation info for local variables in function 'SysInit';
                      00662 ;@Allocation info for local variables in function 'AverageADCData'
                      00663 ;@AverageADCData adcopy                    Allocated to registers r0x1041 r0x1040 ;size:2
                      00664 ;@AverageADCData R7                        Allocated to registers r0x1044 ;size:1
                      00665 ;@AverageADCData ADC_TotalData             Allocated to registers r0x1042 r0x1043 ;size:2
                      00666 ;@end Allocation info for local variables in function 'AverageADCData';
                      00667 ;@Allocation info for local variables in function 'speed_handle'
                      00668 ;@speed_handle temp_s                    Allocated to registers r0x1047 r0x1048 ;size:2
                      00669 ;@speed_handle Speed                     Allocated to registers ;size:2
                      00670 ;@speed_handle data1                     Allocated to registers r0x1046 ;size:1
                      00671 ;@end Allocation info for local variables in function 'speed_handle';
                      00672 ;@Allocation info for local variables in function 'odo_handle'
                      00673 ;@end Allocation info for local variables in function 'odo_handle';
                      00674 ;@Allocation info for local variables in function 'sys_bat'
                      00675 ;@end Allocation info for local variables in function 'sys_bat';
                      00676 ;@Allocation info for local variables in function 'main'
                      00677 ;@main disp_flag                 Allocated to registers ;size:1
                      00678 ;@main bat_km_qh_cnt             Allocated to registers ;size:1
                      00679 ;@main disp_all_cnt              Allocated to registers ;size:1
                      00680 ;@main disp_all_flag             Allocated to registers ;size:1
                      00681 ;@end Allocation info for local variables in function 'main';
                      00682 ;@Allocation info for local variables in function 'int_isr'
                      00683 ;@end Allocation info for local variables in function 'int_isr';
                      00684 
                      00685 ;--------------------------------------------------------
                      00686 ; overlayable items in internal ram 
                      00687 ;--------------------------------------------------------
                      00688 ;       udata_ovr
                      00689 ;--------------------------------------------------------
                      00690 ; reset vector 
                      00691 ;--------------------------------------------------------
                      00692 STARTUP code 0x0000
0000   A000           00693         goto    _main
                      00694 ;--------------------------------------------------------
                      00695 ; interrupt and initialization code
                      00696 ;--------------------------------------------------------
                      00697 c_interrupt     code    0x8
0008                  00698 __sdcc_interrupt
                      00699 ;***
                      00700 ;  pBlock Stats: dbName = I
                      00701 ;***
                      00702 ;entry:  _int_isr       ;Function start
                      00703 ; 0 exit points
                      00704 ;; Starting pCode block
0008                  00705 _int_isr        ;Function start
                      00706 ; 0 exit points
                      00707 ;       .line   889; "main.c"   __endasm;    
0008   5600           00708         movra _ABuf
0009   4600           00709         swapr _ABuf
000A   4587           00710         swapar PFLAG
000B   5600           00711         movra _PFLAGBuf
                      00712         
                      00713 ;       .line   890; "main.c"   if(T1IF)
000C   E200           00714         JBSET   _INTFbits,1
000D   A000           00715         GOTO    _00525_DS_
                      00716 ;       .line   892; "main.c"   T1IF = 0;
000E   D200           00717         BCLR    _INTFbits,1
                      00718 ;       .line   893; "main.c"   B_2ms_flag=1;
000F   CE00           00719         BSET    _FLAG1,7
                      00720 ;       .line   894; "main.c"   time1_cnt1++;
0010   6600           00721         INCR    _time1_cnt1
                      00722 ;;swapping arguments (AOP_TYPEs 1/3)
                      00723 ;;unsigned compare: left >= lit(0x33=51), size=1
                      00724 ;       .line   895; "main.c"   if( time1_cnt1 > 50 )
0011   3C33           00725         MOVAI   0x33
0012   4800           00726         RSUBAR  _time1_cnt1
0013   E187           00727         JBSET   PFLAG,0
0014   A000           00728         GOTO    _00521_DS_
                      00729 ;;genSkipc:3195: created from rifx:00DE608C
                      00730 ;       .line   897; "main.c"   time1_cnt1 = 0;
0015   7600           00731         CLRR    _time1_cnt1
                      00732 ;       .line   898; "main.c"   B_100ms_flag = 1;       
0016   C800           00733         BSET    _PAC,4
0017                  00734 _00521_DS_
                      00735 ;       .line   900; "main.c"   time1_cnt++;
0017   6600           00736         INCR    _time1_cnt
                      00737 ;;swapping arguments (AOP_TYPEs 1/3)
                      00738 ;;unsigned compare: left >= lit(0xFB=251), size=1
                      00739 ;       .line   901; "main.c"   if( time1_cnt > 250 )
0018   3CFB           00740         MOVAI   0xfb
0019   4800           00741         RSUBAR  _time1_cnt
001A   E187           00742         JBSET   PFLAG,0
001B   A000           00743         GOTO    _00525_DS_
                      00744 ;;genSkipc:3195: created from rifx:00DE608C
                      00745 ;       .line   903; "main.c"   time1_cnt = 0;
001C   7600           00746         CLRR    _time1_cnt
                      00747 ;       .line   904; "main.c"   B_500ms_flag = 1;       
001D   CA00           00748         BSET    _PAC,5
001E                  00749 _00525_DS_
                      00750 ;       .line   914; "main.c"   __endasm;
001E   4400           00751         swapar _PFLAGBuf
001F   5787           00752         movra PFLAG
0020   4400           00753         swapar _ABuf
                      00754         
0021                  00755 END_OF_INTERRUPT
0021   000D           00756         RETIE   
                      00757 
                      00758 ;--------------------------------------------------------
                      00759 ; code
                      00760 ;--------------------------------------------------------
                      00761 code_main       code
                      00762 ;***
                      00763 ;  pBlock Stats: dbName = M
                      00764 ;***
                      00765 ;entry:  _main  ;Function start
                      00766 ; 2 exit points
                      00767 ;has an exit
                      00768 ;functions called:
                      00769 ;   _SysInit
                      00770 ;   _LCD_DispALL
                      00771 ;   _AverageADCData
                      00772 ;   __mulint
                      00773 ;   __divuint
                      00774 ;   __divuint
                      00775 ;   _speed_handle
                      00776 ;   _disp_speed_trip_bat
                      00777 ;   _sys_bat
                      00778 ;   _bat_how_many
                      00779 ;   _odo_handle
                      00780 ;   _Drive_lcd
                      00781 ;   _SysInit
                      00782 ;   _LCD_DispALL
                      00783 ;   _AverageADCData
                      00784 ;   __mulint
                      00785 ;   __divuint
                      00786 ;   __divuint
                      00787 ;   _speed_handle
                      00788 ;   _disp_speed_trip_bat
                      00789 ;   _sys_bat
                      00790 ;   _bat_how_many
                      00791 ;   _odo_handle
                      00792 ;   _Drive_lcd
                      00793 ;8 compiler assigned registers:
                      00794 ;   r0x104C
                      00795 ;   STK00
                      00796 ;   STK02
                      00797 ;   STK01
                      00798 ;   r0x104D
                      00799 ;   r0x104E
                      00800 ;   r0x104F
                      00801 ;   r0x1050
                      00802 ;; Starting pCode block
0000                  00803 _main   ;Function start
                      00804 ; 2 exit points
                      00805 ;       .line   830; "main.c"   GIE = 0;
0000   DE00           00806         BCLR    _MCRbits,7
                      00807 ;       .line   831; "main.c"   SysInit();
0001   8000           00808         CALL    _SysInit
                      00809 ;       .line   832; "main.c"   choice_vol = 48;uc_disp_all_flag = 1;
0002   3C30           00810         MOVAI   0x30
0003   5600           00811         MOVRA   _choice_vol
0004   C600           00812         BSET    _PAC,3
                      00813 ;       .line   833; "main.c"   T1IE = 1;       
0005   C200           00814         BSET    _INTEbits,1
                      00815 ;       .line   834; "main.c"   GIE = 1;
0006   CE00           00816         BSET    _MCRbits,7
                      00817 ;;gen.c:6379: size=0/1, offset=0, AOP_TYPE(res)=8
                      00818 ;       .line   835; "main.c"   seg_bit[0] = 0x01;seg_bit[1] = 0x02;seg_bit[2] = 0x04;seg_bit[3] = 0x08;seg_bit[4] = 0x10;
0007   3C01           00819         MOVAI   0x01
0008   5600           00820         MOVRA   (_seg_bit + 0)
                      00821 ;;gen.c:6379: size=0/1, offset=0, AOP_TYPE(res)=8
0009   3C02           00822         MOVAI   0x02
000A   5600           00823         MOVRA   (_seg_bit + 1)
                      00824 ;;gen.c:6379: size=0/1, offset=0, AOP_TYPE(res)=8
000B   3C04           00825         MOVAI   0x04
000C   5600           00826         MOVRA   (_seg_bit + 2)
                      00827 ;;gen.c:6379: size=0/1, offset=0, AOP_TYPE(res)=8
000D   3C08           00828         MOVAI   0x08
000E   5600           00829         MOVRA   (_seg_bit + 3)
                      00830 ;;gen.c:6379: size=0/1, offset=0, AOP_TYPE(res)=8
000F   3C10           00831         MOVAI   0x10
0010   5600           00832         MOVRA   (_seg_bit + 4)
                      00833 ;       .line   836; "main.c"   LCD_DispALL(0xff);              
0011   3CFF           00834         MOVAI   0xff
0012   8000           00835         CALL    _LCD_DispALL
                      00836 ;       .line   838; "main.c"   while(1)
0013   5800           00837         MOVAR   _main_disp_all_cnt_1_156
0014   5600           00838         MOVRA   r0x104C
0015                  00839 _00515_DS_
                      00840 ;       .line   840; "main.c"   ClrWdt();
0015   000E           00841         clrwdt
                      00842 ;       .line   841; "main.c"   if(B_100ms_flag)
0016   E800           00843         JBSET   _PAC,4
0017   A000           00844         GOTO    _00501_DS_
                      00845 ;       .line   843; "main.c"   B_100ms_flag = 0;
0018   D800           00846         BCLR    _PAC,4
                      00847 ;       .line   844; "main.c"   BAT_AD_copy = AverageADCData( BAT_AD ); //
0019   5800           00848         MOVAR   _BAT_AD
001A   5600           00849         MOVRA   STK00
001B   5800           00850         MOVAR   (_BAT_AD + 1)
001C   8000           00851         CALL    _AverageADCData
001D   5600           00852         MOVRA   (_BAT_AD_copy + 1)
001E   5800           00853         MOVAR   STK00
001F   5600           00854         MOVRA   _BAT_AD_copy
                      00855 ;       .line   845; "main.c"   voltage_copy = BAT_AD_copy * 50;
0020   5800           00856         MOVAR   _BAT_AD_copy
0021   5600           00857         MOVRA   STK02
0022   5800           00858         MOVAR   (_BAT_AD_copy + 1)
0023   5600           00859         MOVRA   STK01
0024   3C32           00860         MOVAI   0x32
0025   5600           00861         MOVRA   STK00
0026   3C00           00862         MOVAI   0x00
0027   8000           00863         CALL    __mulint
0028   5600           00864         MOVRA   (_voltage_copy + 1)
0029   5800           00865         MOVAR   STK00
002A   5600           00866         MOVRA   _voltage_copy
                      00867 ;       .line   846; "main.c"   voltage_copy = voltage_copy / 41; //  100K  3.3K 
002B   3C29           00868         MOVAI   0x29
002C   5600           00869         MOVRA   STK02
002D   3C00           00870         MOVAI   0x00
002E   5600           00871         MOVRA   STK01
002F   5800           00872         MOVAR   _voltage_copy
0030   5600           00873         MOVRA   STK00
0031   5800           00874         MOVAR   (_voltage_copy + 1)
0032   8000           00875         CALL    __divuint
0033   5600           00876         MOVRA   (_voltage_copy + 1)
0034   5800           00877         MOVAR   STK00
0035   5600           00878         MOVRA   _voltage_copy
                      00879 ;       .line   847; "main.c"   voltage =(voltage*2+voltage_copy*8)/10;  //
0036   D187           00880         BCLR    PFLAG,0
0037   5000           00881         RLAR    _voltage
0038   5600           00882         MOVRA   r0x104D
0039   5000           00883         RLAR    (_voltage + 1)
003A   5600           00884         MOVRA   r0x104E
003B   D187           00885         BCLR    PFLAG,0
003C   5000           00886         RLAR    _voltage_copy
003D   5600           00887         MOVRA   r0x104F
003E   5000           00888         RLAR    (_voltage_copy + 1)
003F   5600           00889         MOVRA   r0x1050
0040   D187           00890         BCLR    PFLAG,0
0041   5200           00891         RLR     r0x104F
0042   5200           00892         RLR     r0x1050
0043   D187           00893         BCLR    PFLAG,0
0044   5200           00894         RLR     r0x104F
0045   5200           00895         RLR     r0x1050
0046   5800           00896         MOVAR   r0x104F
0047   7E00           00897         ADDRA   r0x104D
0048   5800           00898         MOVAR   r0x1050
0049   F187           00899         JBCLR   PFLAG,0
004A   6000           00900         JZAR    r0x1050
004B   7E00           00901         ADDRA   r0x104E
004C   3C0A           00902         MOVAI   0x0a
004D   5600           00903         MOVRA   STK02
004E   3C00           00904         MOVAI   0x00
004F   5600           00905         MOVRA   STK01
0050   5800           00906         MOVAR   r0x104D
0051   5600           00907         MOVRA   STK00
0052   5800           00908         MOVAR   r0x104E
0053   8000           00909         CALL    __divuint
0054   5600           00910         MOVRA   (_voltage + 1)
0055   5800           00911         MOVAR   STK00
0056   5600           00912         MOVRA   _voltage
                      00913 ;       .line   848; "main.c"   speed_handle();
0057   8000           00914         CALL    _speed_handle
                      00915 ;       .line   849; "main.c"   if( disp_all_flag ) disp_speed_trip_bat( disp_flag );  //5S
0058   3C00           00916         MOVAI   0x00
0059   5C00           00917         ORAR    _main_disp_all_flag_1_156
005A   F587           00918         JBCLR   PFLAG,2
005B   A000           00919         GOTO    _00501_DS_
005C   5800           00920         MOVAR   _main_disp_flag_1_156
005D   8000           00921         CALL    _disp_speed_trip_bat
005E                  00922 _00501_DS_
                      00923 ;       .line   851; "main.c"   if(B_500ms_flag)
005E   EA00           00924         JBSET   _PAC,5
005F   A000           00925         GOTO    _00511_DS_
                      00926 ;       .line   853; "main.c"   B_500ms_flag = 0; 
0060   DA00           00927         BCLR    _PAC,5
                      00928 ;       .line   854; "main.c"   if( disp_all_flag == 0 )
0061   3C00           00929         MOVAI   0x00
0062   5C00           00930         ORAR    _main_disp_all_flag_1_156
0063   E587           00931         JBSET   PFLAG,2
0064   A000           00932         GOTO    _00505_DS_
                      00933 ;       .line   856; "main.c"   disp_all_cnt++;
0065   6600           00934         INCR    r0x104C
                      00935 ;;swapping arguments (AOP_TYPEs 1/2)
                      00936 ;;unsigned compare: left >= lit(0x3=3), size=1
                      00937 ;       .line   857; "main.c"   if( disp_all_cnt > 2 )
0066   3C03           00938         MOVAI   0x03
0067   4800           00939         RSUBAR  r0x104C
0068   E187           00940         JBSET   PFLAG,0
0069   A000           00941         GOTO    _00505_DS_
                      00942 ;;genSkipc:3195: created from rifx:00DE608C
                      00943 ;       .line   859; "main.c"   disp_all_flag = 1;
006A   3C01           00944         MOVAI   0x01
006B   5600           00945         MOVRA   _main_disp_all_flag_1_156
                      00946 ;       .line   860; "main.c"   sys_bat();
006C   8000           00947         CALL    _sys_bat
                      00948 ;       .line   861; "main.c"   uc_disp_all_flag = 0; 
006D   D600           00949         BCLR    _PAC,3
006E                  00950 _00505_DS_
                      00951 ;       .line   864; "main.c"   if( disp_all_flag ) bat_how_many(voltage);
006E   3C00           00952         MOVAI   0x00
006F   5C00           00953         ORAR    _main_disp_all_flag_1_156
0070   F587           00954         JBCLR   PFLAG,2
0071   A000           00955         GOTO    _00507_DS_
0072   5800           00956         MOVAR   _voltage
0073   5600           00957         MOVRA   STK00
0074   5800           00958         MOVAR   (_voltage + 1)
0075   8000           00959         CALL    _bat_how_many
0076                  00960 _00507_DS_
                      00961 ;       .line   865; "main.c"   odo_handle();
0076   8000           00962         CALL    _odo_handle
                      00963 ;       .line   866; "main.c"   bat_km_qh_cnt++;
0077   6600           00964         INCR    _main_bat_km_qh_cnt_1_156
                      00965 ;;swapping arguments (AOP_TYPEs 1/8)
                      00966 ;;unsigned compare: left >= lit(0xB=11), size=1
                      00967 ;       .line   867; "main.c"   if( bat_km_qh_cnt > 10 )
0078   3C0B           00968         MOVAI   0x0b
0079   4800           00969         RSUBAR  _main_bat_km_qh_cnt_1_156
007A   E187           00970         JBSET   PFLAG,0
007B   A000           00971         GOTO    _00511_DS_
                      00972 ;;genSkipc:3195: created from rifx:00DE608C
                      00973 ;       .line   869; "main.c"   bat_km_qh_cnt = 0;
007C   7600           00974         CLRR    _main_bat_km_qh_cnt_1_156
                      00975 ;       .line   870; "main.c"   disp_flag ^= 1;         
007D   3C01           00976         MOVAI   0x01
007E   4200           00977         XORRA   _main_disp_flag_1_156
007F                  00978 _00511_DS_
                      00979 ;       .line   874; "main.c"   if(B_2ms_flag)
007F   EE00           00980         JBSET   _FLAG1,7
0080   A000           00981         GOTO    _00515_DS_
                      00982 ;       .line   876; "main.c"   B_2ms_flag=0;
0081   DE00           00983         BCLR    _FLAG1,7
                      00984 ;       .line   877; "main.c"   Drive_lcd();    
0082   8000           00985         CALL    _Drive_lcd
0083   A000           00986         GOTO    _00515_DS_
0084   000C           00987         RETURN  
                      00988 ; exit point of _main
                      00989 
                      00990 ;***
                      00991 ;  pBlock Stats: dbName = C
                      00992 ;***
                      00993 ;entry:  _sys_bat       ;Function start
                      00994 ; 2 exit points
                      00995 ;has an exit
                      00996 ;functions called:
                      00997 ;   __mulint
                      00998 ;   __divuint
                      00999 ;   _learn_while_type
                      01000 ;   __mulint
                      01001 ;   __divuint
                      01002 ;   _learn_while_type
                      01003 ;5 compiler assigned registers:
                      01004 ;   STK02
                      01005 ;   STK01
                      01006 ;   STK00
                      01007 ;   r0x1040
                      01008 ;   r0x1041
                      01009 ;; Starting pCode block
0085                  01010 _sys_bat        ;Function start
                      01011 ; 2 exit points
                      01012 ;       .line   793; "main.c"   voltage = ( BAT_AD * 50 ) / 41; //
0085   5800           01013         MOVAR   _BAT_AD
0086   5600           01014         MOVRA   STK02
0087   5800           01015         MOVAR   (_BAT_AD + 1)
0088   5600           01016         MOVRA   STK01
0089   3C32           01017         MOVAI   0x32
008A   5600           01018         MOVRA   STK00
008B   3C00           01019         MOVAI   0x00
008C   8000           01020         CALL    __mulint
008D   5600           01021         MOVRA   r0x1040
008E   5800           01022         MOVAR   STK00
008F   5600           01023         MOVRA   r0x1041
0090   3C29           01024         MOVAI   0x29
0091   5600           01025         MOVRA   STK02
0092   3C00           01026         MOVAI   0x00
0093   5600           01027         MOVRA   STK01
0094   5800           01028         MOVAR   r0x1041
0095   5600           01029         MOVRA   STK00
0096   5800           01030         MOVAR   r0x1040
0097   8000           01031         CALL    __divuint
0098   5600           01032         MOVRA   (_voltage + 1)
0099   5800           01033         MOVAR   STK00
009A   5600           01034         MOVRA   _voltage
                      01035 ;       .line   795; "main.c"   if( voltage_TY_flag == 1 )  //,
009B   5800           01036         MOVAR   _voltage_TY_flag
009C   3901           01037         XORAI   0x01
009D   E587           01038         JBSET   PFLAG,2
009E   A000           01039         GOTO    _00480_DS_
                      01040 ;;unsigned compare: left < lit(0x22B=555), size=2
                      01041 ;       .line   797; "main.c"   if( voltage >= 555 )
009F   3C02           01042         MOVAI   0x02
00A0   4800           01043         RSUBAR  (_voltage + 1)
00A1   E587           01044         JBSET   PFLAG,2
00A2   A000           01045         GOTO    _00492_DS_
00A3   3C2B           01046         MOVAI   0x2b
00A4   4800           01047         RSUBAR  _voltage
00A5                  01048 _00492_DS_
00A5   E187           01049         JBSET   PFLAG,0
00A6   A000           01050         GOTO    _00472_DS_
                      01051 ;;genSkipc:3195: created from rifx:00DE608C
                      01052 ;       .line   799; "main.c"   choice_vol = 60;
00A7   3C3C           01053         MOVAI   0x3c
00A8   5600           01054         MOVRA   _choice_vol
00A9   A000           01055         GOTO    _00481_DS_
00AA                  01056 _00472_DS_
                      01057 ;       .line   803; "main.c"   choice_vol = 48;
00AA   3C30           01058         MOVAI   0x30
00AB   5600           01059         MOVRA   _choice_vol
00AC   A000           01060         GOTO    _00481_DS_
00AD                  01061 _00480_DS_
                      01062 ;       .line   806; "main.c"   else if( voltage_TY_flag == 2 )
00AD   5800           01063         MOVAR   _voltage_TY_flag
00AE   3902           01064         XORAI   0x02
00AF   E587           01065         JBSET   PFLAG,2
00B0   A000           01066         GOTO    _00481_DS_
                      01067 ;;unsigned compare: left < lit(0x26C=620), size=2
                      01068 ;       .line   808; "main.c"   if( voltage >= 620 )
00B1   3C02           01069         MOVAI   0x02
00B2   4800           01070         RSUBAR  (_voltage + 1)
00B3   E587           01071         JBSET   PFLAG,2
00B4   A000           01072         GOTO    _00493_DS_
00B5   3C6C           01073         MOVAI   0x6c
00B6   4800           01074         RSUBAR  _voltage
00B7                  01075 _00493_DS_
00B7   E187           01076         JBSET   PFLAG,0
00B8   A000           01077         GOTO    _00475_DS_
                      01078 ;;genSkipc:3195: created from rifx:00DE608C
                      01079 ;       .line   810; "main.c"   choice_vol = 72;
00B9   3C48           01080         MOVAI   0x48
00BA   5600           01081         MOVRA   _choice_vol
00BB   A000           01082         GOTO    _00481_DS_
00BC                  01083 _00475_DS_
                      01084 ;       .line   814; "main.c"   choice_vol = 48;
00BC   3C30           01085         MOVAI   0x30
00BD   5600           01086         MOVRA   _choice_vol
00BE                  01087 _00481_DS_
                      01088 ;       .line   817; "main.c"   learn_while_type();
00BE   8000           01089         CALL    _learn_while_type
00BF   000C           01090         RETURN  
                      01091 ; exit point of _sys_bat
                      01092 
                      01093 ;***
                      01094 ;  pBlock Stats: dbName = C
                      01095 ;***
                      01096 ;entry:  _odo_handle    ;Function start
                      01097 ; 2 exit points
                      01098 ;has an exit
                      01099 ;2 compiler assigned registers:
                      01100 ;   r0x1040
                      01101 ;   r0x1041
                      01102 ;; Starting pCode block
00C0                  01103 _odo_handle     ;Function start
                      01104 ; 2 exit points
                      01105 ;       .line   780; "main.c"   if( ShowSpeed > 0 )
00C0   5800           01106         MOVAR   _ShowSpeed
00C1   5C00           01107         ORAR    (_ShowSpeed + 1)
00C2   F587           01108         JBCLR   PFLAG,2
00C3   A000           01109         GOTO    _00460_DS_
                      01110 ;;shiftRight_Left2ResultLit:5216: shCount=1, size=2, sign=0, same=0, offr=0
                      01111 ;       .line   782; "main.c"   Milage_temp = Milage_temp+ShowSpeed/2;
00C4   D187           01112         BCLR    PFLAG,0
00C5   4C00           01113         RRAR    (_ShowSpeed + 1)
00C6   5600           01114         MOVRA   r0x1040
00C7   4C00           01115         RRAR    _ShowSpeed
00C8   5600           01116         MOVRA   r0x1041
00C9   5800           01117         MOVAR   r0x1041
00CA   7E00           01118         ADDRA   _Milage_temp
00CB   5800           01119         MOVAR   r0x1040
00CC   F187           01120         JBCLR   PFLAG,0
00CD   6000           01121         JZAR    r0x1040
00CE   7E00           01122         ADDRA   (_Milage_temp + 1)
                      01123 ;;unsigned compare: left < lit(0x168=360), size=2
                      01124 ;       .line   783; "main.c"   if( Milage_temp >= 360 )// (V1+V2+V3+....V4)*(1/3600)>=0.1 360
00CF   3C01           01125         MOVAI   0x01
00D0   4800           01126         RSUBAR  (_Milage_temp + 1)
00D1   E587           01127         JBSET   PFLAG,2
00D2   A000           01128         GOTO    _00466_DS_
00D3   3C68           01129         MOVAI   0x68
00D4   4800           01130         RSUBAR  _Milage_temp
00D5                  01131 _00466_DS_
00D5   E187           01132         JBSET   PFLAG,0
00D6   A000           01133         GOTO    _00460_DS_
                      01134 ;;genSkipc:3195: created from rifx:00DE608C
                      01135 ;       .line   785; "main.c"   sub_km++;
00D7   6600           01136         INCR    _sub_km
00D8   F587           01137         JBCLR   PFLAG,2
00D9   6600           01138         INCR    (_sub_km + 1)
                      01139 ;       .line   786; "main.c"   Milage_temp = Milage_temp - 360;                            
00DA   3C98           01140         MOVAI   0x98
00DB   7E00           01141         ADDRA   _Milage_temp
00DC   3CFE           01142         MOVAI   0xfe
00DD   F187           01143         JBCLR   PFLAG,0
00DE   3CFF           01144         MOVAI   0xff
00DF   7E00           01145         ADDRA   (_Milage_temp + 1)
00E0                  01146 _00460_DS_
00E0   000C           01147         RETURN  
                      01148 ; exit point of _odo_handle
                      01149 
                      01150 ;***
                      01151 ;  pBlock Stats: dbName = C
                      01152 ;***
                      01153 ;entry:  _speed_handle  ;Function start
                      01154 ; 2 exit points
                      01155 ;has an exit
                      01156 ;functions called:
                      01157 ;   __mulint
                      01158 ;   _AverageADCData
                      01159 ;   __mulint
                      01160 ;   __divuint
                      01161 ;   __mulint
                      01162 ;   __divuint
                      01163 ;   __mulint
                      01164 ;   __divuint
                      01165 ;   __mulint
                      01166 ;   __mulint
                      01167 ;   _AverageADCData
                      01168 ;   __mulint
                      01169 ;   __divuint
                      01170 ;   __mulint
                      01171 ;   __divuint
                      01172 ;   __mulint
                      01173 ;   __divuint
                      01174 ;   __mulint
                      01175 ;9 compiler assigned registers:
                      01176 ;   r0x1046
                      01177 ;   r0x1047
                      01178 ;   STK02
                      01179 ;   STK01
                      01180 ;   STK00
                      01181 ;   r0x1048
                      01182 ;   r0x1049
                      01183 ;   r0x104A
                      01184 ;   r0x104B
                      01185 ;; Starting pCode block
00E1                  01186 _speed_handle   ;Function start
                      01187 ; 2 exit points
                      01188 ;       .line   734; "main.c"   data1 = Speed - ShowSpeed;
00E1   5800           01189         MOVAR   _speed_handle_Speed_1_136
00E2   5600           01190         MOVRA   r0x1046
00E3   5800           01191         MOVAR   _ShowSpeed
00E4   5600           01192         MOVRA   r0x1047
00E5   5800           01193         MOVAR   r0x1047
00E6   4A00           01194         RSUBRA  r0x1046
                      01195 ;       .line   735; "main.c"   temp_s = ShowSpeed*10+8;
00E7   5800           01196         MOVAR   _ShowSpeed
00E8   5600           01197         MOVRA   STK02
00E9   5800           01198         MOVAR   (_ShowSpeed + 1)
00EA   5600           01199         MOVRA   STK01
00EB   3C0A           01200         MOVAI   0x0a
00EC   5600           01201         MOVRA   STK00
00ED   3C00           01202         MOVAI   0x00
00EE   8000           01203         CALL    __mulint
00EF   5600           01204         MOVRA   r0x1048
00F0   5800           01205         MOVAR   STK00
00F1   5600           01206         MOVRA   r0x1047
00F2   3C08           01207         MOVAI   0x08
00F3   7E00           01208         ADDRA   r0x1047
00F4   F187           01209         JBCLR   PFLAG,0
00F5   6600           01210         INCR    r0x1048
                      01211 ;       .line   736; "main.c"   SpeedTest = AverageADCData( speed_AD ); //
00F6   5800           01212         MOVAR   _speed_AD
00F7   5600           01213         MOVRA   STK00
00F8   5800           01214         MOVAR   (_speed_AD + 1)
00F9   8000           01215         CALL    _AverageADCData
00FA   5600           01216         MOVRA   (_SpeedTest + 1)
00FB   5800           01217         MOVAR   STK00
00FC   5600           01218         MOVRA   _SpeedTest
                      01219 ;;unsigned compare: left < lit(0x28=40), size=2
                      01220 ;       .line   737; "main.c"   if( SpeedTest < 40 )  //0.7V
00FD   3C00           01221         MOVAI   0x00
00FE   4800           01222         RSUBAR  (_SpeedTest + 1)
00FF   E587           01223         JBSET   PFLAG,2
0100   A000           01224         GOTO    _00445_DS_
0101   3C28           01225         MOVAI   0x28
0102   4800           01226         RSUBAR  _SpeedTest
0103                  01227 _00445_DS_
0103   F187           01228         JBCLR   PFLAG,0
0104   A000           01229         GOTO    _00421_DS_
                      01230 ;;genSkipc:3195: created from rifx:00DE608C
                      01231 ;       .line   739; "main.c"   SpeedTest = 0;
0105   7600           01232         CLRR    _SpeedTest
0106   7600           01233         CLRR    (_SpeedTest + 1)
                      01234 ;       .line   740; "main.c"   ShowSpeed = 0;
0107   7600           01235         CLRR    _ShowSpeed
0108   7600           01236         CLRR    (_ShowSpeed + 1)
0109   A000           01237         GOTO    _00422_DS_
010A                  01238 _00421_DS_
                      01239 ;       .line   744; "main.c"   if( choice_vol == 48 )
010A   5800           01240         MOVAR   _choice_vol
010B   3930           01241         XORAI   0x30
010C   E587           01242         JBSET   PFLAG,2
010D   A000           01243         GOTO    _00407_DS_
                      01244 ;       .line   745; "main.c"   SpdInt = ( unsigned char )( ((SpeedTest-40) * 5)  / 18 );  //45
010E   3CD8           01245         MOVAI   0xd8
010F   7C00           01246         ADDAR   _SpeedTest
0110   5600           01247         MOVRA   r0x1049
0111   3CFF           01248         MOVAI   0xff
0112   5600           01249         MOVRA   r0x104A
0113   5800           01250         MOVAR   (_SpeedTest + 1)
0114   F187           01251         JBCLR   PFLAG,0
0115   6000           01252         JZAR    (_SpeedTest + 1)
0116   7E00           01253         ADDRA   r0x104A
0117   5800           01254         MOVAR   r0x1049
0118   5600           01255         MOVRA   STK02
0119   5800           01256         MOVAR   r0x104A
011A   5600           01257         MOVRA   STK01
011B   3C05           01258         MOVAI   0x05
011C   5600           01259         MOVRA   STK00
011D   3C00           01260         MOVAI   0x00
011E   8000           01261         CALL    __mulint
011F   5600           01262         MOVRA   r0x104A
0120   5800           01263         MOVAR   STK00
0121   5600           01264         MOVRA   r0x1049
0122   3C12           01265         MOVAI   0x12
0123   5600           01266         MOVRA   STK02
0124   3C00           01267         MOVAI   0x00
0125   5600           01268         MOVRA   STK01
0126   5800           01269         MOVAR   r0x1049
0127   5600           01270         MOVRA   STK00
0128   5800           01271         MOVAR   r0x104A
0129   8000           01272         CALL    __divuint
012A   5600           01273         MOVRA   r0x104A
012B   5800           01274         MOVAR   STK00
012C   5600           01275         MOVRA   _SpdInt
012D   5600           01276         MOVRA   r0x104B
012E   5600           01277         MOVRA   r0x1049
                      01278 ;;118   MOVAR   r0x1049
                      01279 ;;119   MOVAR   r0x104B
012F   7600           01280         CLRR    (_SpdInt + 1)
0130   A000           01281         GOTO    _00408_DS_
0131                  01282 _00407_DS_
                      01283 ;       .line   746; "main.c"   else if( choice_vol == 60 )
0131   5800           01284         MOVAR   _choice_vol
0132   393C           01285         XORAI   0x3c
0133   E587           01286         JBSET   PFLAG,2
0134   A000           01287         GOTO    _00404_DS_
                      01288 ;       .line   747; "main.c"   SpdInt = ( unsigned char )( ((SpeedTest-40) * 25)  / 110 );  //48
0135   3CD8           01289         MOVAI   0xd8
0136   7C00           01290         ADDAR   _SpeedTest
0137   5600           01291         MOVRA   r0x1049
0138   3CFF           01292         MOVAI   0xff
0139   5600           01293         MOVRA   r0x104A
013A   5800           01294         MOVAR   (_SpeedTest + 1)
013B   F187           01295         JBCLR   PFLAG,0
013C   6000           01296         JZAR    (_SpeedTest + 1)
013D   7E00           01297         ADDRA   r0x104A
013E   5800           01298         MOVAR   r0x1049
013F   5600           01299         MOVRA   STK02
0140   5800           01300         MOVAR   r0x104A
0141   5600           01301         MOVRA   STK01
0142   3C19           01302         MOVAI   0x19
0143   5600           01303         MOVRA   STK00
0144   3C00           01304         MOVAI   0x00
0145   8000           01305         CALL    __mulint
0146   5600           01306         MOVRA   r0x104A
0147   5800           01307         MOVAR   STK00
0148   5600           01308         MOVRA   r0x1049
0149   3C6E           01309         MOVAI   0x6e
014A   5600           01310         MOVRA   STK02
014B   3C00           01311         MOVAI   0x00
014C   5600           01312         MOVRA   STK01
014D   5800           01313         MOVAR   r0x1049
014E   5600           01314         MOVRA   STK00
014F   5800           01315         MOVAR   r0x104A
0150   8000           01316         CALL    __divuint
0151   5600           01317         MOVRA   r0x104A
0152   5800           01318         MOVAR   STK00
0153   5600           01319         MOVRA   _SpdInt
0154   5600           01320         MOVRA   r0x104B
0155   5600           01321         MOVRA   r0x1049
                      01322 ;;114   MOVAR   r0x1049
                      01323 ;;115   MOVAR   r0x104B
0156   7600           01324         CLRR    (_SpdInt + 1)
0157   A000           01325         GOTO    _00408_DS_
0158                  01326 _00404_DS_
                      01327 ;       .line   748; "main.c"   else if( choice_vol == 72 )
0158   5800           01328         MOVAR   _choice_vol
0159   3948           01329         XORAI   0x48
015A   E587           01330         JBSET   PFLAG,2
015B   A000           01331         GOTO    _00408_DS_
                      01332 ;       .line   749; "main.c"   SpdInt = ( unsigned char )( ((SpeedTest-40) * 25)  / 126 ); //51
015C   3CD8           01333         MOVAI   0xd8
015D   7C00           01334         ADDAR   _SpeedTest
015E   5600           01335         MOVRA   r0x1049
015F   3CFF           01336         MOVAI   0xff
0160   5600           01337         MOVRA   r0x104A
0161   5800           01338         MOVAR   (_SpeedTest + 1)
0162   F187           01339         JBCLR   PFLAG,0
0163   6000           01340         JZAR    (_SpeedTest + 1)
0164   7E00           01341         ADDRA   r0x104A
0165   5800           01342         MOVAR   r0x1049
0166   5600           01343         MOVRA   STK02
0167   5800           01344         MOVAR   r0x104A
0168   5600           01345         MOVRA   STK01
0169   3C19           01346         MOVAI   0x19
016A   5600           01347         MOVRA   STK00
016B   3C00           01348         MOVAI   0x00
016C   8000           01349         CALL    __mulint
016D   5600           01350         MOVRA   r0x104A
016E   5800           01351         MOVAR   STK00
016F   5600           01352         MOVRA   r0x1049
0170   3C7E           01353         MOVAI   0x7e
0171   5600           01354         MOVRA   STK02
0172   3C00           01355         MOVAI   0x00
0173   5600           01356         MOVRA   STK01
0174   5800           01357         MOVAR   r0x1049
0175   5600           01358         MOVRA   STK00
0176   5800           01359         MOVAR   r0x104A
0177   8000           01360         CALL    __divuint
0178   5600           01361         MOVRA   r0x104A
0179   5800           01362         MOVAR   STK00
017A   5600           01363         MOVRA   _SpdInt
017B   5600           01364         MOVRA   r0x104B
017C   5600           01365         MOVRA   r0x1049
                      01366 ;;109   MOVAR   r0x1049
                      01367 ;;110   MOVAR   r0x104B
017D   7600           01368         CLRR    (_SpdInt + 1)
017E                  01369 _00408_DS_
                      01370 ;       .line   750; "main.c"   Speed = SpdInt;
017E   5800           01371         MOVAR   _SpdInt
017F   5600           01372         MOVRA   _speed_handle_Speed_1_136
0180   5800           01373         MOVAR   (_SpdInt + 1)
0181   5600           01374         MOVRA   (_speed_handle_Speed_1_136 + 1)
                      01375 ;       .line   751; "main.c"   SpdInt = SpdInt*10;
0182   5800           01376         MOVAR   _SpdInt
0183   5600           01377         MOVRA   STK02
0184   5800           01378         MOVAR   (_SpdInt + 1)
0185   5600           01379         MOVRA   STK01
0186   3C0A           01380         MOVAI   0x0a
0187   5600           01381         MOVRA   STK00
0188   3C00           01382         MOVAI   0x00
0189   8000           01383         CALL    __mulint
018A   5600           01384         MOVRA   (_SpdInt + 1)
018B   5800           01385         MOVAR   STK00
018C   5600           01386         MOVRA   _SpdInt
                      01387 ;       .line   753; "main.c"   if(ShowSpeed > Speed)
018D   5800           01388         MOVAR   (_ShowSpeed + 1)
018E   4800           01389         RSUBAR  (_speed_handle_Speed_1_136 + 1)
018F   E587           01390         JBSET   PFLAG,2
0190   A000           01391         GOTO    _00446_DS_
0191   5800           01392         MOVAR   _ShowSpeed
0192   4800           01393         RSUBAR  _speed_handle_Speed_1_136
0193                  01394 _00446_DS_
0193   F187           01395         JBCLR   PFLAG,0
0194   A000           01396         GOTO    _00410_DS_
                      01397 ;;genSkipc:3195: created from rifx:00DE608C
                      01398 ;       .line   755; "main.c"   data1 ^= 0xFF;
0195   3CFF           01399         MOVAI   0xff
0196   4200           01400         XORRA   r0x1046
                      01401 ;       .line   756; "main.c"   data1++;
0197   6600           01402         INCR    r0x1046
                      01403 ;;swapping arguments (AOP_TYPEs 1/2)
                      01404 ;;unsigned compare: left >= lit(0x3=3), size=1
0198                  01405 _00410_DS_
                      01406 ;       .line   758; "main.c"   if(data1 > 2 || Speed <= 2)
0198   3C03           01407         MOVAI   0x03
0199   4800           01408         RSUBAR  r0x1046
019A   F187           01409         JBCLR   PFLAG,0
019B   A000           01410         GOTO    _00416_DS_
                      01411 ;;genSkipc:3195: created from rifx:00DE608C
                      01412 ;;swapping arguments (AOP_TYPEs 1/8)
                      01413 ;;unsigned compare: left >= lit(0x3=3), size=2
019C   3C00           01414         MOVAI   0x00
019D   4800           01415         RSUBAR  (_speed_handle_Speed_1_136 + 1)
019E   E587           01416         JBSET   PFLAG,2
019F   A000           01417         GOTO    _00448_DS_
01A0   3C03           01418         MOVAI   0x03
01A1   4800           01419         RSUBAR  _speed_handle_Speed_1_136
01A2                  01420 _00448_DS_
01A2   F187           01421         JBCLR   PFLAG,0
01A3   A000           01422         GOTO    _00417_DS_
                      01423 ;;genSkipc:3195: created from rifx:00DE608C
01A4                  01424 _00416_DS_
                      01425 ;       .line   760; "main.c"   ShowSpeed = Speed;
01A4   5800           01426         MOVAR   _speed_handle_Speed_1_136
01A5   5600           01427         MOVRA   _ShowSpeed
01A6   5800           01428         MOVAR   (_speed_handle_Speed_1_136 + 1)
01A7   5600           01429         MOVRA   (_ShowSpeed + 1)
01A8   A000           01430         GOTO    _00422_DS_
01A9                  01431 _00417_DS_
                      01432 ;       .line   762; "main.c"   else  if( SpdInt >= temp_s )
01A9   5800           01433         MOVAR   r0x1048
01AA   4800           01434         RSUBAR  (_SpdInt + 1)
01AB   E587           01435         JBSET   PFLAG,2
01AC   A000           01436         GOTO    _00449_DS_
01AD   5800           01437         MOVAR   r0x1047
01AE   4800           01438         RSUBAR  _SpdInt
01AF                  01439 _00449_DS_
01AF   E187           01440         JBSET   PFLAG,0
01B0   A000           01441         GOTO    _00414_DS_
                      01442 ;;genSkipc:3195: created from rifx:00DE608C
                      01443 ;       .line   764; "main.c"   ShowSpeed++;    
01B1   6600           01444         INCR    _ShowSpeed
01B2   F587           01445         JBCLR   PFLAG,2
01B3   6600           01446         INCR    (_ShowSpeed + 1)
01B4   A000           01447         GOTO    _00422_DS_
01B5                  01448 _00414_DS_
                      01449 ;       .line   768; "main.c"   temp_s =  temp_s - 23;
01B5   3CE9           01450         MOVAI   0xe9
01B6   7E00           01451         ADDRA   r0x1047
01B7   E187           01452         JBSET   PFLAG,0
01B8   6E00           01453         DECR    r0x1048
                      01454 ;       .line   769; "main.c"   if( SpdInt <= temp_s )
01B9   5800           01455         MOVAR   (_SpdInt + 1)
01BA   4800           01456         RSUBAR  r0x1048
01BB   E587           01457         JBSET   PFLAG,2
01BC   A000           01458         GOTO    _00450_DS_
01BD   5800           01459         MOVAR   _SpdInt
01BE   4800           01460         RSUBAR  r0x1047
01BF                  01461 _00450_DS_
01BF   E187           01462         JBSET   PFLAG,0
01C0   A000           01463         GOTO    _00422_DS_
                      01464 ;;genSkipc:3195: created from rifx:00DE608C
                      01465 ;       .line   770; "main.c"   ShowSpeed--;       
01C1   3CFF           01466         MOVAI   0xff
01C2   7E00           01467         ADDRA   _ShowSpeed
01C3   E187           01468         JBSET   PFLAG,0
01C4   6E00           01469         DECR    (_ShowSpeed + 1)
                      01470 ;;swapping arguments (AOP_TYPEs 1/3)
                      01471 ;;unsigned compare: left >= lit(0x64=100), size=2
01C5                  01472 _00422_DS_
                      01473 ;       .line   773; "main.c"   if( ShowSpeed > 99 ) ShowSpeed = 99;  //99
01C5   3C00           01474         MOVAI   0x00
01C6   4800           01475         RSUBAR  (_ShowSpeed + 1)
01C7   E587           01476         JBSET   PFLAG,2
01C8   A000           01477         GOTO    _00451_DS_
01C9   3C64           01478         MOVAI   0x64
01CA   4800           01479         RSUBAR  _ShowSpeed
01CB                  01480 _00451_DS_
01CB   E187           01481         JBSET   PFLAG,0
01CC   A000           01482         GOTO    _00425_DS_
                      01483 ;;genSkipc:3195: created from rifx:00DE608C
01CD   3C63           01484         MOVAI   0x63
01CE   5600           01485         MOVRA   _ShowSpeed
01CF   7600           01486         CLRR    (_ShowSpeed + 1)
01D0                  01487 _00425_DS_
01D0   000C           01488         RETURN  
                      01489 ; exit point of _speed_handle
                      01490 
                      01491 ;***
                      01492 ;  pBlock Stats: dbName = C
                      01493 ;***
                      01494 ;entry:  _AverageADCData        ;Function start
                      01495 ; 2 exit points
                      01496 ;has an exit
                      01497 ;functions called:
                      01498 ;   __divuint
                      01499 ;   __divuint
                      01500 ;9 compiler assigned registers:
                      01501 ;   r0x1040
                      01502 ;   STK00
                      01503 ;   r0x1041
                      01504 ;   r0x1042
                      01505 ;   r0x1043
                      01506 ;   r0x1044
                      01507 ;   r0x1045
                      01508 ;   STK02
                      01509 ;   STK01
                      01510 ;; Starting pCode block
01D1                  01511 _AverageADCData ;Function start
                      01512 ; 2 exit points
                      01513 ;       .line   718; "main.c"   unsigned int AverageADCData( unsigned int adcopy )
01D1   5600           01514         MOVRA   r0x1040
01D2   5800           01515         MOVAR   STK00
01D3   5600           01516         MOVRA   r0x1041
                      01517 ;       .line   722; "main.c"   ADC_TotalData = 0;
01D4   7600           01518         CLRR    r0x1042
01D5   7600           01519         CLRR    r0x1043
                      01520 ;       .line   723; "main.c"   for(R7=0;R7<24;R7++)
01D6   3C18           01521         MOVAI   0x18
01D7   5600           01522         MOVRA   r0x1044
01D8                  01523 _00396_DS_
                      01524 ;       .line   725; "main.c"   ADC_TotalData += adcopy;                
01D8   5800           01525         MOVAR   r0x1041
01D9   7E00           01526         ADDRA   r0x1042
01DA   5800           01527         MOVAR   r0x1040
01DB   F187           01528         JBCLR   PFLAG,0
01DC   6000           01529         JZAR    r0x1040
01DD   7E00           01530         ADDRA   r0x1043
01DE   5800           01531         MOVAR   r0x1044
01DF   5600           01532         MOVRA   r0x1045
01E0   6C00           01533         DECAR   r0x1045
01E1   5600           01534         MOVRA   r0x1044
                      01535 ;       .line   723; "main.c"   for(R7=0;R7<24;R7++)
01E2   3C00           01536         MOVAI   0x00
01E3   5C00           01537         ORAR    r0x1044
01E4   E587           01538         JBSET   PFLAG,2
01E5   A000           01539         GOTO    _00396_DS_
                      01540 ;       .line   727; "main.c"   ADC_TotalData = (ADC_TotalData / 24);
01E6   3C18           01541         MOVAI   0x18
01E7   5600           01542         MOVRA   STK02
01E8   3C00           01543         MOVAI   0x00
01E9   5600           01544         MOVRA   STK01
01EA   5800           01545         MOVAR   r0x1042
01EB   5600           01546         MOVRA   STK00
01EC   5800           01547         MOVAR   r0x1043
01ED   8000           01548         CALL    __divuint
01EE   5600           01549         MOVRA   r0x1043
01EF   5800           01550         MOVAR   STK00
01F0   5600           01551         MOVRA   r0x1042
                      01552 ;       .line   728; "main.c"   return ADC_TotalData;                              //
01F1   5800           01553         MOVAR   r0x1042
01F2   5600           01554         MOVRA   STK00
01F3   5800           01555         MOVAR   r0x1043
01F4   000C           01556         RETURN  
                      01557 ; exit point of _AverageADCData
                      01558 
                      01559 ;***
                      01560 ;  pBlock Stats: dbName = C
                      01561 ;***
                      01562 ;entry:  _SysInit       ;Function start
                      01563 ; 2 exit points
                      01564 ;has an exit
                      01565 ;; Starting pCode block
01F5                  01566 _SysInit        ;Function start
                      01567 ; 2 exit points
                      01568 ;       .line   689; "main.c"   __endasm;
01F5   7784           01569         clrr FSR0
01F6                  01570 ClrRAM0:
01F6   7780           01571         clrr INDF0
01F7   6784           01572         incr FSR0
01F8   EF84           01573         jbset FSR0,7
01F9   A000           01574         goto ClrRAM0
                      01575         
                      01576 ;       .line   690; "main.c"   MCR = 0;
01FA   7600           01577         CLRR    _MCR
                      01578 ;       .line   691; "main.c"   INTE = 0;
01FB   7600           01579         CLRR    _INTE
                      01580 ;       .line   692; "main.c"   INTF = 0;
01FC   7600           01581         CLRR    _INTF
                      01582 ;       .line   694; "main.c"   IOP0 = 0;     //p0
01FD   7600           01583         CLRR    _IOP0
                      01584 ;       .line   695; "main.c"   OEP0 = 0x00;  //0  1
01FE   7600           01585         CLRR    _OEP0
                      01586 ;       .line   696; "main.c"   PUP0 = 0x6f;  //p0 0 1  a b
01FF   3C6F           01587         MOVAI   0x6f
0200   5600           01588         MOVRA   _PUP0
                      01589 ;       .line   697; "main.c"   PDP0 = 0x0f;  //p0 0 1
0201   3C0F           01590         MOVAI   0x0f
0202   5600           01591         MOVRA   _PDP0
                      01592 ;       .line   699; "main.c"   IOP1 = 0x00;  //mos PMOSION=1  IOP16=1
0203   7600           01593         CLRR    _IOP1
                      01594 ;       .line   700; "main.c"   OEP1 = 0x00;
0204   7600           01595         CLRR    _OEP1
                      01596 ;       .line   701; "main.c"   PUP1 = 0x20;
0205   3C20           01597         MOVAI   0x20
0206   5600           01598         MOVRA   _PUP1
                      01599 ;       .line   702; "main.c"   PDP1 = 0x27;  // 10 11 12
0207   3C27           01600         MOVAI   0x27
0208   5600           01601         MOVRA   _PDP1
                      01602 ;       .line   704; "main.c"   AUCR = 0x0C;  
0209   3C0C           01603         MOVAI   0x0c
020A   5600           01604         MOVRA   _AUCR
                      01605 ;       .line   706; "main.c"   AN1SEL = 0x0;   //P16AD   p13 
020B   7600           01606         CLRR    _AN1SEL
                      01607 ;       .line   708; "main.c"   T1LOAD = 250;   //187*8=1.5ms
020C   3CFA           01608         MOVAI   0xfa
020D   5600           01609         MOVRA   _T1LOAD
                      01610 ;       .line   709; "main.c"   T1DATA = 0;
020E   7600           01611         CLRR    _T1DATA
                      01612 ;       .line   710; "main.c"   T1CR   = 0x8F;  //16M 3bit 128
020F   3C8F           01613         MOVAI   0x8f
0210   5600           01614         MOVRA   _T1CR
0211   000C           01615         RETURN  
                      01616 ; exit point of _SysInit
                      01617 
                      01618 ;***
                      01619 ;  pBlock Stats: dbName = C
                      01620 ;***
                      01621 ;entry:  _Drive_lcd     ;Function start
                      01622 ; 2 exit points
                      01623 ;has an exit
                      01624 ;functions called:
                      01625 ;   _mux_ioport
                      01626 ;   _mux_ab
                      01627 ;   _set_normal_seg
                      01628 ;   _set_normal_seg
                      01629 ;   _set_normal_seg
                      01630 ;   _adc_loop_speed
                      01631 ;   _set_normal_seg
                      01632 ;   _set_normal_seg
                      01633 ;   _set_normal_seg
                      01634 ;   _adc_loop_bat
                      01635 ;   _set_normal_seg
                      01636 ;   _set_normal_seg
                      01637 ;   _set_normal_seg
                      01638 ;   _set_normal_seg
                      01639 ;   _mux_ioport
                      01640 ;   _mux_ab
                      01641 ;   _set_normal_seg
                      01642 ;   _set_normal_seg
                      01643 ;   _set_normal_seg
                      01644 ;   _adc_loop_speed
                      01645 ;   _set_normal_seg
                      01646 ;   _set_normal_seg
                      01647 ;   _set_normal_seg
                      01648 ;   _adc_loop_bat
                      01649 ;   _set_normal_seg
                      01650 ;   _set_normal_seg
                      01651 ;   _set_normal_seg
                      01652 ;   _set_normal_seg
                      01653 ;1 compiler assigned register :
                      01654 ;   STK00
                      01655 ;; Starting pCode block
0212                  01656 _Drive_lcd      ;Function start
                      01657 ; 2 exit points
                      01658 ;       .line   597; "main.c"   NMOS0ON=0;
0212   D000           01659         BCLR    _AUCRbits,0
                      01660 ;       .line   598; "main.c"   if( scan_cnt == 0 )
0213   3C00           01661         MOVAI   0x00
0214   5C00           01662         ORAR    _scan_cnt
0215   E587           01663         JBSET   PFLAG,2
0216   A000           01664         GOTO    _00383_DS_
                      01665 ;       .line   600; "main.c"   COM4_IN_FL;         // com   
0217   D600           01666         BCLR    _OEP0bits,3
                      01667 ;       .line   601; "main.c"   if( uc_disp_all_flag == 0 )
0218   F600           01668         JBCLR   _PAC,3
0219   A000           01669         GOTO    _00354_DS_
                      01670 ;       .line   603; "main.c"   mux_ioport();
021A   8000           01671         CALL    _mux_ioport
021B   A000           01672         GOTO    _00355_DS_
021C                  01673 _00354_DS_
                      01674 ;       .line   607; "main.c"   mux_ab();               
021C   8000           01675         CALL    _mux_ab
021D                  01676 _00355_DS_
                      01677 ;       .line   609; "main.c"   set_normal_seg(0,0);
021D   3C00           01678         MOVAI   0x00
021E   5600           01679         MOVRA   STK00
021F   3C00           01680         MOVAI   0x00
0220   8000           01681         CALL    _set_normal_seg
                      01682 ;       .line   610; "main.c"   COM0_OUT_H;     
0221   CA00           01683         BSET    _OEP1bits,5
0222   CA00           01684         BSET    _IOP1bits,5
                      01685 ;       .line   611; "main.c"   scan_cnt = 1;           
0223   3C01           01686         MOVAI   0x01
0224   5600           01687         MOVRA   _scan_cnt
0225   A000           01688         GOTO    _00385_DS_
0226                  01689 _00383_DS_
                      01690 ;       .line   613; "main.c"   else if( scan_cnt == 1 )
0226   5800           01691         MOVAR   _scan_cnt
0227   3901           01692         XORAI   0x01
0228   E587           01693         JBSET   PFLAG,2
0229   A000           01694         GOTO    _00380_DS_
                      01695 ;       .line   615; "main.c"   COM0_IN_FL;                     
022A   DA00           01696         BCLR    _OEP1bits,5
                      01697 ;       .line   616; "main.c"   set_normal_seg(0,1);
022B   3C01           01698         MOVAI   0x01
022C   5600           01699         MOVRA   STK00
022D   3C00           01700         MOVAI   0x00
022E   8000           01701         CALL    _set_normal_seg
                      01702 ;       .line   617; "main.c"   COM1_OUT_H;
022F   C000           01703         BSET    _OEP0bits,0
0230   C000           01704         BSET    _IOP0bits,0
                      01705 ;       .line   618; "main.c"   scan_cnt = 2;
0231   3C02           01706         MOVAI   0x02
0232   5600           01707         MOVRA   _scan_cnt
0233   A000           01708         GOTO    _00385_DS_
0234                  01709 _00380_DS_
                      01710 ;       .line   620; "main.c"   else if( scan_cnt == 2 ) 
0234   5800           01711         MOVAR   _scan_cnt
0235   3902           01712         XORAI   0x02
0236   E587           01713         JBSET   PFLAG,2
0237   A000           01714         GOTO    _00377_DS_
                      01715 ;       .line   622; "main.c"   COM1_IN_FL;                             
0238   D000           01716         BCLR    _OEP0bits,0
                      01717 ;       .line   623; "main.c"   set_normal_seg(0,2);
0239   3C02           01718         MOVAI   0x02
023A   5600           01719         MOVRA   STK00
023B   3C00           01720         MOVAI   0x00
023C   8000           01721         CALL    _set_normal_seg
                      01722 ;       .line   624; "main.c"   COM2_OUT_H;
023D   C200           01723         BSET    _OEP0bits,1
023E   C200           01724         BSET    _IOP0bits,1
                      01725 ;       .line   625; "main.c"   scan_cnt = 3;
023F   3C03           01726         MOVAI   0x03
0240   5600           01727         MOVRA   _scan_cnt
0241   A000           01728         GOTO    _00385_DS_
0242                  01729 _00377_DS_
                      01730 ;       .line   627; "main.c"   else if( scan_cnt == 3 )
0242   5800           01731         MOVAR   _scan_cnt
0243   3903           01732         XORAI   0x03
0244   E587           01733         JBSET   PFLAG,2
0245   A000           01734         GOTO    _00374_DS_
                      01735 ;       .line   629; "main.c"   COM2_IN_FL;
0246   D200           01736         BCLR    _OEP0bits,1
                      01737 ;       .line   630; "main.c"   adc_loop_speed();                       
0247   8000           01738         CALL    _adc_loop_speed
                      01739 ;       .line   631; "main.c"   set_normal_seg(0,3);
0248   3C03           01740         MOVAI   0x03
0249   5600           01741         MOVRA   STK00
024A   3C00           01742         MOVAI   0x00
024B   8000           01743         CALL    _set_normal_seg
                      01744 ;       .line   632; "main.c"   COM3_OUT_H;
024C   C400           01745         BSET    _OEP0bits,2
024D   C400           01746         BSET    _IOP0bits,2
                      01747 ;       .line   633; "main.c"   scan_cnt = 4;
024E   3C04           01748         MOVAI   0x04
024F   5600           01749         MOVRA   _scan_cnt
0250   A000           01750         GOTO    _00385_DS_
0251                  01751 _00374_DS_
                      01752 ;       .line   635; "main.c"   else if( scan_cnt == 4 )
0251   5800           01753         MOVAR   _scan_cnt
0252   3904           01754         XORAI   0x04
0253   E587           01755         JBSET   PFLAG,2
0254   A000           01756         GOTO    _00371_DS_
                      01757 ;       .line   637; "main.c"   COM3_IN_FL;                     
0255   D400           01758         BCLR    _OEP0bits,2
                      01759 ;       .line   638; "main.c"   set_normal_seg(0,4);
0256   3C04           01760         MOVAI   0x04
0257   5600           01761         MOVRA   STK00
0258   3C00           01762         MOVAI   0x00
0259   8000           01763         CALL    _set_normal_seg
                      01764 ;       .line   639; "main.c"   COM4_OUT_H;
025A   C600           01765         BSET    _OEP0bits,3
025B   C600           01766         BSET    _IOP0bits,3
                      01767 ;       .line   640; "main.c"   scan_cnt = 5;
025C   3C05           01768         MOVAI   0x05
025D   5600           01769         MOVRA   _scan_cnt
025E   A000           01770         GOTO    _00385_DS_
025F                  01771 _00371_DS_
                      01772 ;       .line   642; "main.c"   else if( scan_cnt == 5 )
025F   5800           01773         MOVAR   _scan_cnt
0260   3905           01774         XORAI   0x05
0261   E587           01775         JBSET   PFLAG,2
0262   A000           01776         GOTO    _00368_DS_
                      01777 ;       .line   644; "main.c"   COM4_IN_FL;             
0263   D600           01778         BCLR    _OEP0bits,3
                      01779 ;       .line   645; "main.c"   set_normal_seg(1,0);
0264   3C00           01780         MOVAI   0x00
0265   5600           01781         MOVRA   STK00
0266   3C01           01782         MOVAI   0x01
0267   8000           01783         CALL    _set_normal_seg
                      01784 ;       .line   646; "main.c"   COM0_OUT_L;
0268   CA00           01785         BSET    _OEP1bits,5
0269   DA00           01786         BCLR    _IOP1bits,5
                      01787 ;       .line   647; "main.c"   scan_cnt = 6;
026A   3C06           01788         MOVAI   0x06
026B   5600           01789         MOVRA   _scan_cnt
026C   A000           01790         GOTO    _00385_DS_
026D                  01791 _00368_DS_
                      01792 ;       .line   649; "main.c"   else if( scan_cnt == 6 )
026D   5800           01793         MOVAR   _scan_cnt
026E   3906           01794         XORAI   0x06
026F   E587           01795         JBSET   PFLAG,2
0270   A000           01796         GOTO    _00365_DS_
                      01797 ;       .line   651; "main.c"   COM0_IN_FL; 
0271   DA00           01798         BCLR    _OEP1bits,5
                      01799 ;       .line   652; "main.c"   adc_loop_bat( );        
0272   8000           01800         CALL    _adc_loop_bat
                      01801 ;       .line   653; "main.c"   set_normal_seg(1,1);
0273   3C01           01802         MOVAI   0x01
0274   5600           01803         MOVRA   STK00
0275   3C01           01804         MOVAI   0x01
0276   8000           01805         CALL    _set_normal_seg
                      01806 ;       .line   654; "main.c"   COM1_OUT_L;
0277   C000           01807         BSET    _OEP0bits,0
0278   D000           01808         BCLR    _IOP0bits,0
                      01809 ;       .line   655; "main.c"   scan_cnt = 7;
0279   3C07           01810         MOVAI   0x07
027A   5600           01811         MOVRA   _scan_cnt
027B   A000           01812         GOTO    _00385_DS_
027C                  01813 _00365_DS_
                      01814 ;       .line   657; "main.c"   else if( scan_cnt == 7 )
027C   5800           01815         MOVAR   _scan_cnt
027D   3907           01816         XORAI   0x07
027E   E587           01817         JBSET   PFLAG,2
027F   A000           01818         GOTO    _00362_DS_
                      01819 ;       .line   659; "main.c"   COM1_IN_FL;                             
0280   D000           01820         BCLR    _OEP0bits,0
                      01821 ;       .line   660; "main.c"   set_normal_seg(1,2);
0281   3C02           01822         MOVAI   0x02
0282   5600           01823         MOVRA   STK00
0283   3C01           01824         MOVAI   0x01
0284   8000           01825         CALL    _set_normal_seg
                      01826 ;       .line   661; "main.c"   COM2_OUT_L;
0285   C200           01827         BSET    _OEP0bits,1
0286   D200           01828         BCLR    _IOP0bits,1
                      01829 ;       .line   662; "main.c"   scan_cnt = 8;
0287   3C08           01830         MOVAI   0x08
0288   5600           01831         MOVRA   _scan_cnt
0289   A000           01832         GOTO    _00385_DS_
028A                  01833 _00362_DS_
                      01834 ;       .line   664; "main.c"   else if( scan_cnt == 8 )
028A   5800           01835         MOVAR   _scan_cnt
028B   3908           01836         XORAI   0x08
028C   E587           01837         JBSET   PFLAG,2
028D   A000           01838         GOTO    _00359_DS_
                      01839 ;       .line   666; "main.c"   COM2_IN_FL;                             
028E   D200           01840         BCLR    _OEP0bits,1
                      01841 ;       .line   667; "main.c"   set_normal_seg(1,3);
028F   3C03           01842         MOVAI   0x03
0290   5600           01843         MOVRA   STK00
0291   3C01           01844         MOVAI   0x01
0292   8000           01845         CALL    _set_normal_seg
                      01846 ;       .line   668; "main.c"   COM3_OUT_L;
0293   C400           01847         BSET    _OEP0bits,2
0294   D400           01848         BCLR    _IOP0bits,2
                      01849 ;       .line   669; "main.c"   scan_cnt = 9;
0295   3C09           01850         MOVAI   0x09
0296   5600           01851         MOVRA   _scan_cnt
0297   A000           01852         GOTO    _00385_DS_
0298                  01853 _00359_DS_
                      01854 ;       .line   671; "main.c"   else if( scan_cnt == 9 )
0298   5800           01855         MOVAR   _scan_cnt
0299   3909           01856         XORAI   0x09
029A   E587           01857         JBSET   PFLAG,2
029B   A000           01858         GOTO    _00385_DS_
                      01859 ;       .line   673; "main.c"   COM3_IN_FL;                                                             
029C   D400           01860         BCLR    _OEP0bits,2
                      01861 ;       .line   674; "main.c"   set_normal_seg(1,4);
029D   3C04           01862         MOVAI   0x04
029E   5600           01863         MOVRA   STK00
029F   3C01           01864         MOVAI   0x01
02A0   8000           01865         CALL    _set_normal_seg
                      01866 ;       .line   675; "main.c"   COM4_OUT_L;
02A1   C600           01867         BSET    _OEP0bits,3
02A2   D600           01868         BCLR    _IOP0bits,3
                      01869 ;       .line   676; "main.c"   scan_cnt = 0;
02A3   7600           01870         CLRR    _scan_cnt
02A4                  01871 _00385_DS_
02A4   000C           01872         RETURN  
                      01873 ; exit point of _Drive_lcd
                      01874 
                      01875 ;***
                      01876 ;  pBlock Stats: dbName = C
                      01877 ;***
                      01878 ;entry:  _mux_ab        ;Function start
                      01879 ; 2 exit points
                      01880 ;has an exit
                      01881 ;functions called:
                      01882 ;   _delay_us
                      01883 ;   _choice_bat
                      01884 ;   _delay_us
                      01885 ;   _choice_bat
                      01886 ;1 compiler assigned register :
                      01887 ;   STK00
                      01888 ;; Starting pCode block
02A5                  01889 _mux_ab ;Function start
                      01890 ; 2 exit points
                      01891 ;       .line   581; "main.c"   A_IN_FL;  
02A5   DA00           01892         BCLR    _OEP0bits,5
                      01893 ;       .line   582; "main.c"   B_IN_FL;         
02A6   DC00           01894         BCLR    _OEP0bits,6
                      01895 ;       .line   583; "main.c"   delay_us(200);  // 
02A7   3CC8           01896         MOVAI   0xc8
02A8   5600           01897         MOVRA   STK00
02A9   3C00           01898         MOVAI   0x00
02AA   8000           01899         CALL    _delay_us
                      01900 ;       .line   584; "main.c"   choice_bat( ); //
02AB   8000           01901         CALL    _choice_bat
02AC   000C           01902         RETURN  
                      01903 ; exit point of _mux_ab
                      01904 
                      01905 ;***
                      01906 ;  pBlock Stats: dbName = C
                      01907 ;***
                      01908 ;entry:  _mux_ioport    ;Function start
                      01909 ; 2 exit points
                      01910 ;has an exit
                      01911 ;functions called:
                      01912 ;   _delay_us
                      01913 ;   _delay_us
                      01914 ;3 compiler assigned registers:
                      01915 ;   STK00
                      01916 ;   r0x1042
                      01917 ;   r0x1043
                      01918 ;; Starting pCode block
02AD                  01919 _mux_ioport     ;Function start
                      01920 ; 2 exit points
                      01921 ;       .line   516; "main.c"   PDP1 = 0x27;
02AD   3C27           01922         MOVAI   0x27
02AE   5600           01923         MOVRA   _PDP1
                      01924 ;       .line   517; "main.c"   VD_IN_FL; 
02AF   D400           01925         BCLR    _OEP1bits,2
                      01926 ;       .line   518; "main.c"   VL_IN_FL;
02B0   D000           01927         BCLR    _OEP1bits,0
                      01928 ;       .line   519; "main.c"   VR_IN_FL;
02B1   D200           01929         BCLR    _OEP1bits,1
                      01930 ;       .line   522; "main.c"   delay_us(200);  // 
02B2   3CC8           01931         MOVAI   0xc8
02B3   5600           01932         MOVRA   STK00
02B4   3C00           01933         MOVAI   0x00
02B5   8000           01934         CALL    _delay_us
                      01935 ;       .line   524; "main.c"   if( VD == 1 )  // VD  1
02B6   7600           01936         CLRR    r0x1042
02B7   F400           01937         JBCLR   _IOP1bits,2
02B8   6600           01938         INCR    r0x1042
                      01939 ;;108   MOVAR   r0x1042
                      01940 ;;107   MOVAR   r0x1043
02B9   5800           01941         MOVAR   r0x1042
02BA   5600           01942         MOVRA   r0x1043
02BB   3901           01943         XORAI   0x01
02BC   E587           01944         JBSET   PFLAG,2
02BD   A000           01945         GOTO    _00321_DS_
                      01946 ;       .line   526; "main.c"   VD_flag1++;VD_flag2 = 0;
02BE   6600           01947         INCR    _VD_flag1
02BF   7600           01948         CLRR    _VD_flag2
                      01949 ;;swapping arguments (AOP_TYPEs 1/3)
                      01950 ;;unsigned compare: left >= lit(0x4=4), size=1
                      01951 ;       .line   527; "main.c"   if( VD_flag1 > 3 ) 
02C0   3C04           01952         MOVAI   0x04
02C1   4800           01953         RSUBAR  _VD_flag1
02C2   E187           01954         JBSET   PFLAG,0
02C3   A000           01955         GOTO    _00322_DS_
                      01956 ;;genSkipc:3195: created from rifx:00DE608C
                      01957 ;       .line   528; "main.c"   { disp_VD = 1;VD_flag1 = 0;}
02C4   C200           01958         BSET    _PAC,1
02C5   7600           01959         CLRR    _VD_flag1
02C6   A000           01960         GOTO    _00322_DS_
02C7                  01961 _00321_DS_
                      01962 ;       .line   532; "main.c"   VD_flag2++;VD_flag1 = 0;
02C7   6600           01963         INCR    _VD_flag2
02C8   7600           01964         CLRR    _VD_flag1
                      01965 ;;swapping arguments (AOP_TYPEs 1/3)
                      01966 ;;unsigned compare: left >= lit(0x4=4), size=1
                      01967 ;       .line   533; "main.c"   if( VD_flag2 > 3 ) 
02C9   3C04           01968         MOVAI   0x04
02CA   4800           01969         RSUBAR  _VD_flag2
02CB   E187           01970         JBSET   PFLAG,0
02CC   A000           01971         GOTO    _00322_DS_
                      01972 ;;genSkipc:3195: created from rifx:00DE608C
                      01973 ;       .line   534; "main.c"   { disp_VD = 0;VD_flag2 = 0;}
02CD   D200           01974         BCLR    _PAC,1
02CE   7600           01975         CLRR    _VD_flag2
02CF                  01976 _00322_DS_
                      01977 ;       .line   536; "main.c"   if( disp_VD )
02CF   E200           01978         JBSET   _PAC,1
02D0   A000           01979         GOTO    _00324_DS_
                      01980 ;       .line   538; "main.c"   Lcd_seg[1] |= 0b00010000;       
02D1   5800           01981         MOVAR   (_Lcd_seg + 1)
02D2   5600           01982         MOVRA   r0x1042
02D3   C800           01983         BSET    r0x1042,4
                      01984 ;;gen.c:6379: size=0/1, offset=0, AOP_TYPE(res)=8
02D4   5800           01985         MOVAR   r0x1042
02D5   5600           01986         MOVRA   (_Lcd_seg + 1)
02D6   A000           01987         GOTO    _00325_DS_
02D7                  01988 _00324_DS_
                      01989 ;       .line   542; "main.c"   Lcd_seg[1] &= 0b00001111;
02D7   5800           01990         MOVAR   (_Lcd_seg + 1)
02D8   5600           01991         MOVRA   r0x1042
02D9   3C0F           01992         MOVAI   0x0f
02DA   7A00           01993         ANDRA   r0x1042
                      01994 ;;gen.c:6379: size=0/1, offset=0, AOP_TYPE(res)=8
02DB   5800           01995         MOVAR   r0x1042
02DC   5600           01996         MOVRA   (_Lcd_seg + 1)
02DD                  01997 _00325_DS_
                      01998 ;       .line   544; "main.c"   if( VR || VL )  //500ms
02DD   F200           01999         JBCLR   _IOP1bits,1
02DE   A000           02000         GOTO    _00340_DS_
02DF   E000           02001         JBSET   _IOP1bits,0
02E0   A000           02002         GOTO    _00341_DS_
02E1                  02003 _00340_DS_
                      02004 ;       .line   546; "main.c"   if( VR )
02E1   E200           02005         JBSET   _IOP1bits,1
02E2   A000           02006         GOTO    _00329_DS_
                      02007 ;       .line   548; "main.c"   if( VR_twink_self_flag == 0 ) disp_VR = 1;
02E3   FE00           02008         JBCLR   _PAC,7
02E4   A000           02009         GOTO    _00329_DS_
02E5   C400           02010         BSET    _PAC,2
02E6                  02011 _00329_DS_
                      02012 ;       .line   550; "main.c"   if( VL )
02E6   E000           02013         JBSET   _IOP1bits,0
02E7   A000           02014         GOTO    _00333_DS_
                      02015 ;       .line   552; "main.c"   if( VL_twink_self_flag == 0 ) disp_VL = 1;
02E8   FC00           02016         JBCLR   _PAC,6
02E9   A000           02017         GOTO    _00333_DS_
02EA   C000           02018         BSET    _PAC,0
02EB                  02019 _00333_DS_
                      02020 ;       .line   554; "main.c"   VR_count++;
02EB   6600           02021         INCR    _VR_count
                      02022 ;;swapping arguments (AOP_TYPEs 1/3)
                      02023 ;;unsigned compare: left >= lit(0x19=25), size=1
                      02024 ;       .line   555; "main.c"   if( VR_count > 24 )  //
02EC   3C19           02025         MOVAI   0x19
02ED   4800           02026         RSUBAR  _VR_count
02EE   E187           02027         JBSET   PFLAG,0
02EF   A000           02028         GOTO    _00344_DS_
                      02029 ;;genSkipc:3195: created from rifx:00DE608C
                      02030 ;       .line   557; "main.c"   VR_count = 0;
02F0   7600           02031         CLRR    _VR_count
                      02032 ;       .line   558; "main.c"   if( VR ) 
02F1   E200           02033         JBSET   _IOP1bits,1
02F2   A000           02034         GOTO    _00335_DS_
                      02035 ;       .line   560; "main.c"   VR_twink_self_flag ^= 1;
02F3   7600           02036         CLRR    r0x1042
02F4   FE00           02037         JBCLR   _PAC,7
02F5   6600           02038         INCR    r0x1042
02F6   5800           02039         MOVAR   r0x1042
02F7   5600           02040         MOVRA   r0x1043
02F8   3C01           02041         MOVAI   0x01
02F9   4000           02042         XORAR   r0x1043
02FA   5600           02043         MOVRA   r0x1043
02FB   5600           02044         MOVRA   r0x1042
                      02045 ;;113   MOVAR   r0x1042
02FC   4C00           02046         RRAR    r0x1043
02FD   E187           02047         JBSET   PFLAG,0
02FE   DE00           02048         BCLR    _PAC,7
02FF   F187           02049         JBCLR   PFLAG,0
0300   CE00           02050         BSET    _PAC,7
                      02051 ;       .line   561; "main.c"   disp_VR = 0;
0301   D400           02052         BCLR    _PAC,2
0302                  02053 _00335_DS_
                      02054 ;       .line   563; "main.c"   if( VL ) 
0302   E000           02055         JBSET   _IOP1bits,0
0303   A000           02056         GOTO    _00344_DS_
                      02057 ;       .line   565; "main.c"   VL_twink_self_flag ^= 1;
0304   7600           02058         CLRR    r0x1042
0305   FC00           02059         JBCLR   _PAC,6
0306   6600           02060         INCR    r0x1042
0307   5800           02061         MOVAR   r0x1042
0308   5600           02062         MOVRA   r0x1043
0309   3C01           02063         MOVAI   0x01
030A   4000           02064         XORAR   r0x1043
030B   5600           02065         MOVRA   r0x1043
030C   5600           02066         MOVRA   r0x1042
                      02067 ;;106   MOVAR   r0x1042
030D   4C00           02068         RRAR    r0x1043
030E   E187           02069         JBSET   PFLAG,0
030F   DC00           02070         BCLR    _PAC,6
0310   F187           02071         JBCLR   PFLAG,0
0311   CC00           02072         BSET    _PAC,6
                      02073 ;       .line   566; "main.c"   disp_VL = 0;
0312   D000           02074         BCLR    _PAC,0
0313   A000           02075         GOTO    _00344_DS_
0314                  02076 _00341_DS_
                      02077 ;       .line   572; "main.c"   VR_count = 0;VR_twink_self_flag = 0;VL_twink_self_flag = 0;
0314   7600           02078         CLRR    _VR_count
0315   DE00           02079         BCLR    _PAC,7
0316   DC00           02080         BCLR    _PAC,6
                      02081 ;       .line   573; "main.c"   disp_VR = 0;disp_VL = 0;
0317   D400           02082         BCLR    _PAC,2
0318   D000           02083         BCLR    _PAC,0
0319                  02084 _00344_DS_
0319   000C           02085         RETURN  
                      02086 ; exit point of _mux_ioport
                      02087 
                      02088 ;***
                      02089 ;  pBlock Stats: dbName = C
                      02090 ;***
                      02091 ;entry:  _choice_bat    ;Function start
                      02092 ; 2 exit points
                      02093 ;has an exit
                      02094 ;2 compiler assigned registers:
                      02095 ;   r0x1040
                      02096 ;   r0x1041
                      02097 ;; Starting pCode block
031A                  02098 _choice_bat     ;Function start
                      02099 ; 2 exit points
                      02100 ;       .line   497; "main.c"   if( (A_IN == 1) && (B_IN==1) )
031A   7600           02101         CLRR    r0x1040
031B   FA00           02102         JBCLR   _IOP0bits,5
031C   6600           02103         INCR    r0x1040
                      02104 ;;117   MOVAR   r0x1040
                      02105 ;;116   MOVAR   r0x1041
031D   5800           02106         MOVAR   r0x1040
031E   5600           02107         MOVRA   r0x1041
031F   3901           02108         XORAI   0x01
0320   E587           02109         JBSET   PFLAG,2
0321   A000           02110         GOTO    _00308_DS_
0322   7600           02111         CLRR    r0x1040
0323   FC00           02112         JBCLR   _IOP0bits,6
0324   6600           02113         INCR    r0x1040
                      02114 ;;112   MOVAR   r0x1040
                      02115 ;;111   MOVAR   r0x1041
0325   5800           02116         MOVAR   r0x1040
0326   5600           02117         MOVRA   r0x1041
0327   3901           02118         XORAI   0x01
0328   E587           02119         JBSET   PFLAG,2
0329   A000           02120         GOTO    _00308_DS_
                      02121 ;       .line   499; "main.c"   voltage_TY_flag = 1;  // 4860
032A   3C01           02122         MOVAI   0x01
032B   5600           02123         MOVRA   _voltage_TY_flag
032C   A000           02124         GOTO    _00311_DS_
032D                  02125 _00308_DS_
                      02126 ;       .line   501; "main.c"   else if( (A_IN==0) && (B_IN==1) )  //A 48 72
032D   FA00           02127         JBCLR   _IOP0bits,5
032E   A000           02128         GOTO    _00304_DS_
032F   7600           02129         CLRR    r0x1040
0330   FC00           02130         JBCLR   _IOP0bits,6
0331   6600           02131         INCR    r0x1040
                      02132 ;;105   MOVAR   r0x1040
                      02133 ;;104   MOVAR   r0x1041
0332   5800           02134         MOVAR   r0x1040
0333   5600           02135         MOVRA   r0x1041
0334   3901           02136         XORAI   0x01
0335   E587           02137         JBSET   PFLAG,2
0336   A000           02138         GOTO    _00304_DS_
                      02139 ;       .line   503; "main.c"   voltage_TY_flag = 2;
0337   3C02           02140         MOVAI   0x02
0338   5600           02141         MOVRA   _voltage_TY_flag
0339   A000           02142         GOTO    _00311_DS_
033A                  02143 _00304_DS_
                      02144 ;       .line   507; "main.c"   choice_vol = 60;voltage_TY_flag = 0;
033A   3C3C           02145         MOVAI   0x3c
033B   5600           02146         MOVRA   _choice_vol
033C   7600           02147         CLRR    _voltage_TY_flag
033D                  02148 _00311_DS_
033D   000C           02149         RETURN  
                      02150 ; exit point of _choice_bat
                      02151 
                      02152 ;***
                      02153 ;  pBlock Stats: dbName = C
                      02154 ;***
                      02155 ;entry:  _learn_while_type      ;Function start
                      02156 ; 2 exit points
                      02157 ;has an exit
                      02158 ;; Starting pCode block
033E                  02159 _learn_while_type       ;Function start
                      02160 ; 2 exit points
                      02161 ;       .line   470; "main.c"   if( choice_vol == 48 )
033E   5800           02162         MOVAR   _choice_vol
033F   3930           02163         XORAI   0x30
0340   E587           02164         JBSET   PFLAG,2
0341   A000           02165         GOTO    _00296_DS_
                      02166 ;;gen.c:6379: size=1/2, offset=0, AOP_TYPE(res)=8
                      02167 ;       .line   472; "main.c"   Stalls_Bat[0] = Stalls0_48V;
0342   3CA4           02168         MOVAI   0xa4
0343   5600           02169         MOVRA   (_Stalls_Bat + 0)
                      02170 ;;gen.c:6379: size=0/2, offset=1, AOP_TYPE(res)=8
0344   3C01           02171         MOVAI   0x01
0345   5600           02172         MOVRA   (_Stalls_Bat + 1)
                      02173 ;;gen.c:6379: size=1/2, offset=0, AOP_TYPE(res)=8
                      02174 ;       .line   473; "main.c"   Stalls_Bat[1] = Stalls1_48V;
0346   3CB8           02175         MOVAI   0xb8
0347   5600           02176         MOVRA   (_Stalls_Bat + 2)
                      02177 ;;gen.c:6379: size=0/2, offset=1, AOP_TYPE(res)=8
0348   3C01           02178         MOVAI   0x01
0349   5600           02179         MOVRA   (_Stalls_Bat + 3)
                      02180 ;;gen.c:6379: size=1/2, offset=0, AOP_TYPE(res)=8
                      02181 ;       .line   474; "main.c"   Stalls_Bat[2] = Stalls2_48V;            
034A   3CCC           02182         MOVAI   0xcc
034B   5600           02183         MOVRA   (_Stalls_Bat + 4)
                      02184 ;;gen.c:6379: size=0/2, offset=1, AOP_TYPE(res)=8
034C   3C01           02185         MOVAI   0x01
034D   5600           02186         MOVRA   (_Stalls_Bat + 5)
                      02187 ;;gen.c:6379: size=1/2, offset=0, AOP_TYPE(res)=8
                      02188 ;       .line   475; "main.c"   Stalls_Bat[3] = Stalls3_48V;
034E   3CE0           02189         MOVAI   0xe0
034F   5600           02190         MOVRA   (_Stalls_Bat + 6)
                      02191 ;;gen.c:6379: size=0/2, offset=1, AOP_TYPE(res)=8
0350   3C01           02192         MOVAI   0x01
0351   5600           02193         MOVRA   (_Stalls_Bat + 7)
0352   A000           02194         GOTO    _00298_DS_
0353                  02195 _00296_DS_
                      02196 ;       .line   477; "main.c"   else if( choice_vol == 60  )
0353   5800           02197         MOVAR   _choice_vol
0354   393C           02198         XORAI   0x3c
0355   E587           02199         JBSET   PFLAG,2
0356   A000           02200         GOTO    _00293_DS_
                      02201 ;;gen.c:6379: size=1/2, offset=0, AOP_TYPE(res)=8
                      02202 ;       .line   479; "main.c"   Stalls_Bat[0] = Stalls0_60V;
0357   3C08           02203         MOVAI   0x08
0358   5600           02204         MOVRA   (_Stalls_Bat + 0)
                      02205 ;;gen.c:6379: size=0/2, offset=1, AOP_TYPE(res)=8
0359   3C02           02206         MOVAI   0x02
035A   5600           02207         MOVRA   (_Stalls_Bat + 1)
                      02208 ;;gen.c:6379: size=1/2, offset=0, AOP_TYPE(res)=8
                      02209 ;       .line   480; "main.c"   Stalls_Bat[1] = Stalls1_60V;
035B   3C1C           02210         MOVAI   0x1c
035C   5600           02211         MOVRA   (_Stalls_Bat + 2)
                      02212 ;;gen.c:6379: size=0/2, offset=1, AOP_TYPE(res)=8
035D   3C02           02213         MOVAI   0x02
035E   5600           02214         MOVRA   (_Stalls_Bat + 3)
                      02215 ;;gen.c:6379: size=1/2, offset=0, AOP_TYPE(res)=8
                      02216 ;       .line   481; "main.c"   Stalls_Bat[2] = Stalls2_60V;            
035F   3C3A           02217         MOVAI   0x3a
0360   5600           02218         MOVRA   (_Stalls_Bat + 4)
                      02219 ;;gen.c:6379: size=0/2, offset=1, AOP_TYPE(res)=8
0361   3C02           02220         MOVAI   0x02
0362   5600           02221         MOVRA   (_Stalls_Bat + 5)
                      02222 ;;gen.c:6379: size=1/2, offset=0, AOP_TYPE(res)=8
                      02223 ;       .line   482; "main.c"   Stalls_Bat[3] = Stalls3_60V;
0363   3C58           02224         MOVAI   0x58
0364   5600           02225         MOVRA   (_Stalls_Bat + 6)
                      02226 ;;gen.c:6379: size=0/2, offset=1, AOP_TYPE(res)=8
0365   3C02           02227         MOVAI   0x02
0366   5600           02228         MOVRA   (_Stalls_Bat + 7)
0367   A000           02229         GOTO    _00298_DS_
0368                  02230 _00293_DS_
                      02231 ;       .line   484; "main.c"   else if( choice_vol == 72  )
0368   5800           02232         MOVAR   _choice_vol
0369   3948           02233         XORAI   0x48
036A   E587           02234         JBSET   PFLAG,2
036B   A000           02235         GOTO    _00298_DS_
                      02236 ;;gen.c:6379: size=1/2, offset=0, AOP_TYPE(res)=8
                      02237 ;       .line   486; "main.c"   Stalls_Bat[0] = Stalls0_72V;
036C   3C76           02238         MOVAI   0x76
036D   5600           02239         MOVRA   (_Stalls_Bat + 0)
                      02240 ;;gen.c:6379: size=0/2, offset=1, AOP_TYPE(res)=8
036E   3C02           02241         MOVAI   0x02
036F   5600           02242         MOVRA   (_Stalls_Bat + 1)
                      02243 ;;gen.c:6379: size=1/2, offset=0, AOP_TYPE(res)=8
                      02244 ;       .line   487; "main.c"   Stalls_Bat[1] = Stalls1_72V;
0370   3C9E           02245         MOVAI   0x9e
0371   5600           02246         MOVRA   (_Stalls_Bat + 2)
                      02247 ;;gen.c:6379: size=0/2, offset=1, AOP_TYPE(res)=8
0372   3C02           02248         MOVAI   0x02
0373   5600           02249         MOVRA   (_Stalls_Bat + 3)
                      02250 ;;gen.c:6379: size=1/2, offset=0, AOP_TYPE(res)=8
                      02251 ;       .line   488; "main.c"   Stalls_Bat[2] = Stalls2_72V;            
0374   3CB2           02252         MOVAI   0xb2
0375   5600           02253         MOVRA   (_Stalls_Bat + 4)
                      02254 ;;gen.c:6379: size=0/2, offset=1, AOP_TYPE(res)=8
0376   3C02           02255         MOVAI   0x02
0377   5600           02256         MOVRA   (_Stalls_Bat + 5)
                      02257 ;;gen.c:6379: size=1/2, offset=0, AOP_TYPE(res)=8
                      02258 ;       .line   489; "main.c"   Stalls_Bat[3] = Stalls3_72V;
0378   3CD0           02259         MOVAI   0xd0
0379   5600           02260         MOVRA   (_Stalls_Bat + 6)
                      02261 ;;gen.c:6379: size=0/2, offset=1, AOP_TYPE(res)=8
037A   3C02           02262         MOVAI   0x02
037B   5600           02263         MOVRA   (_Stalls_Bat + 7)
037C                  02264 _00298_DS_
037C   000C           02265         RETURN  
                      02266 ; exit point of _learn_while_type
                      02267 
                      02268 ;***
                      02269 ;  pBlock Stats: dbName = C
                      02270 ;***
                      02271 ;entry:  _LCD_DispALL   ;Function start
                      02272 ; 2 exit points
                      02273 ;has an exit
                      02274 ;4 compiler assigned registers:
                      02275 ;   r0x1040
                      02276 ;   r0x1041
                      02277 ;   r0x1042
                      02278 ;   r0x1043
                      02279 ;; Starting pCode block
037D                  02280 _LCD_DispALL    ;Function start
                      02281 ; 2 exit points
                      02282 ;       .line   456; "main.c"   void LCD_DispALL(unsigned char uc_data)
037D   5600           02283         MOVRA   r0x1040
                      02284 ;       .line   460; "main.c"   for( uc_i = 0; uc_i < 9; uc_i++ )
037E   7600           02285         CLRR    r0x1041
                      02286 ;;unsigned compare: left < lit(0x9=9), size=1
037F                  02287 _00281_DS_
037F   3C09           02288         MOVAI   0x09
0380   4800           02289         RSUBAR  r0x1041
0381   F187           02290         JBCLR   PFLAG,0
0382   A000           02291         GOTO    _00285_DS_
                      02292 ;;genSkipc:3195: created from rifx:00DE608C
                      02293 ;       .line   462; "main.c"   Lcd_seg[uc_i] = uc_data;
0383   5800           02294         MOVAR   r0x1041
0384   3F00           02295         ADDAI   (_Lcd_seg + 0)
0385   5600           02296         MOVRA   r0x1042
0386   3C00           02297         MOVAI   high (_Lcd_seg + 0)
0387   F187           02298         JBCLR   PFLAG,0
0388   3F01           02299         ADDAI   0x01
0389   5600           02300         MOVRA   r0x1043
038A   5800           02301         MOVAR   r0x1042
038B   5784           02302         MOVRA   FSR0
038C   5800           02303         MOVAR   r0x1043
038D   5785           02304         MOVRA   FSR1
038E   5800           02305         MOVAR   r0x1040
038F   5782           02306         MOVRA   INDF2
                      02307 ;       .line   460; "main.c"   for( uc_i = 0; uc_i < 9; uc_i++ )
0390   6600           02308         INCR    r0x1041
0391   A000           02309         GOTO    _00281_DS_
0392                  02310 _00285_DS_
0392   000C           02311         RETURN  
                      02312 ; exit point of _LCD_DispALL
                      02313 
                      02314 ;***
                      02315 ;  pBlock Stats: dbName = C
                      02316 ;***
                      02317 ;entry:  _bat_how_many  ;Function start
                      02318 ; 2 exit points
                      02319 ;has an exit
                      02320 ;6 compiler assigned registers:
                      02321 ;   r0x1040
                      02322 ;   STK00
                      02323 ;   r0x1041
                      02324 ;   r0x1042
                      02325 ;   r0x1043
                      02326 ;   r0x1044
                      02327 ;; Starting pCode block
0393                  02328 _bat_how_many   ;Function start
                      02329 ; 2 exit points
                      02330 ;       .line   427; "main.c"   void bat_how_many(unsigned int Vol)
0393   5600           02331         MOVRA   r0x1040
0394   5800           02332         MOVAR   STK00
0395   5600           02333         MOVRA   r0x1041
                      02334 ;       .line   429; "main.c"   Lcd_seg[8] &= 0b00010001;
0396   5800           02335         MOVAR   (_Lcd_seg + 8)
0397   5600           02336         MOVRA   r0x1042
0398   3C11           02337         MOVAI   0x11
0399   7A00           02338         ANDRA   r0x1042
                      02339 ;;gen.c:6379: size=0/1, offset=0, AOP_TYPE(res)=8
039A   5800           02340         MOVAR   r0x1042
039B   5600           02341         MOVRA   (_Lcd_seg + 8)
                      02342 ;       .line   430; "main.c"   if(Vol >= Stalls_Bat[3] ) 
039C   5800           02343         MOVAR   (_Stalls_Bat + 6)
039D   5600           02344         MOVRA   r0x1042
039E   5800           02345         MOVAR   (_Stalls_Bat + 7)
039F   5600           02346         MOVRA   r0x1043
03A0   5800           02347         MOVAR   r0x1043
03A1   4800           02348         RSUBAR  r0x1040
03A2   E587           02349         JBSET   PFLAG,2
03A3   A000           02350         GOTO    _00270_DS_
03A4   5800           02351         MOVAR   r0x1042
03A5   4800           02352         RSUBAR  r0x1041
03A6                  02353 _00270_DS_
03A6   7600           02354         CLRR    r0x1044
03A7   E187           02355         JBSET   PFLAG,0
03A8   C000           02356         BSET    r0x1044,0
03A9   3C00           02357         MOVAI   0x00
03AA   5C00           02358         ORAR    r0x1044
03AB   E587           02359         JBSET   PFLAG,2
03AC   A000           02360         GOTO    _00250_DS_
                      02361 ;;gen.c:6379: size=0/1, offset=0, AOP_TYPE(res)=8
                      02362 ;       .line   432; "main.c"   Lcd_seg[8] = 0b00011111;
03AD   3C1F           02363         MOVAI   0x1f
03AE   5600           02364         MOVRA   (_Lcd_seg + 8)
03AF   A000           02365         GOTO    _00252_DS_
03B0                  02366 _00250_DS_
                      02367 ;       .line   434; "main.c"   else if((Vol<Stalls_Bat[3])&&(Vol>=Stalls_Bat[2]))
03B0   3C00           02368         MOVAI   0x00
03B1   5C00           02369         ORAR    r0x1044
03B2   F587           02370         JBCLR   PFLAG,2
03B3   A000           02371         GOTO    _00246_DS_
03B4   5800           02372         MOVAR   (_Stalls_Bat + 4)
03B5   5600           02373         MOVRA   r0x1042
03B6   5800           02374         MOVAR   (_Stalls_Bat + 5)
03B7   5600           02375         MOVRA   r0x1043
03B8   5800           02376         MOVAR   r0x1043
03B9   4800           02377         RSUBAR  r0x1040
03BA   E587           02378         JBSET   PFLAG,2
03BB   A000           02379         GOTO    _00271_DS_
03BC   5800           02380         MOVAR   r0x1042
03BD   4800           02381         RSUBAR  r0x1041
03BE                  02382 _00271_DS_
03BE   E187           02383         JBSET   PFLAG,0
03BF   A000           02384         GOTO    _00246_DS_
                      02385 ;;genSkipc:3195: created from rifx:00DE608C
                      02386 ;;gen.c:6379: size=0/1, offset=0, AOP_TYPE(res)=8
                      02387 ;       .line   436; "main.c"   Lcd_seg[8] = 0b00011101;
03C0   3C1D           02388         MOVAI   0x1d
03C1   5600           02389         MOVRA   (_Lcd_seg + 8)
03C2   A000           02390         GOTO    _00252_DS_
03C3                  02391 _00246_DS_
                      02392 ;       .line   438; "main.c"   else if((Vol<Stalls_Bat[2])&&(Vol>=Stalls_Bat[1]))
03C3   5800           02393         MOVAR   (_Stalls_Bat + 4)
03C4   5600           02394         MOVRA   r0x1042
03C5   5800           02395         MOVAR   (_Stalls_Bat + 5)
03C6   5600           02396         MOVRA   r0x1043
03C7   5800           02397         MOVAR   r0x1043
03C8   4800           02398         RSUBAR  r0x1040
03C9   E587           02399         JBSET   PFLAG,2
03CA   A000           02400         GOTO    _00272_DS_
03CB   5800           02401         MOVAR   r0x1042
03CC   4800           02402         RSUBAR  r0x1041
03CD                  02403 _00272_DS_
03CD   F187           02404         JBCLR   PFLAG,0
03CE   A000           02405         GOTO    _00242_DS_
                      02406 ;;genSkipc:3195: created from rifx:00DE608C
03CF   5800           02407         MOVAR   (_Stalls_Bat + 2)
03D0   5600           02408         MOVRA   r0x1042
03D1   5800           02409         MOVAR   (_Stalls_Bat + 3)
03D2   5600           02410         MOVRA   r0x1043
03D3   5800           02411         MOVAR   r0x1043
03D4   4800           02412         RSUBAR  r0x1040
03D5   E587           02413         JBSET   PFLAG,2
03D6   A000           02414         GOTO    _00273_DS_
03D7   5800           02415         MOVAR   r0x1042
03D8   4800           02416         RSUBAR  r0x1041
03D9                  02417 _00273_DS_
03D9   E187           02418         JBSET   PFLAG,0
03DA   A000           02419         GOTO    _00242_DS_
                      02420 ;;genSkipc:3195: created from rifx:00DE608C
                      02421 ;;gen.c:6379: size=0/1, offset=0, AOP_TYPE(res)=8
                      02422 ;       .line   440; "main.c"   Lcd_seg[8] = 0b00011001;
03DB   3C19           02423         MOVAI   0x19
03DC   5600           02424         MOVRA   (_Lcd_seg + 8)
03DD   A000           02425         GOTO    _00252_DS_
03DE                  02426 _00242_DS_
                      02427 ;       .line   442; "main.c"   else if((Vol<Stalls_Bat[1])&&(Vol>=Stalls_Bat[0]))
03DE   5800           02428         MOVAR   (_Stalls_Bat + 2)
03DF   5600           02429         MOVRA   r0x1042
03E0   5800           02430         MOVAR   (_Stalls_Bat + 3)
03E1   5600           02431         MOVRA   r0x1043
03E2   5800           02432         MOVAR   r0x1043
03E3   4800           02433         RSUBAR  r0x1040
03E4   E587           02434         JBSET   PFLAG,2
03E5   A000           02435         GOTO    _00274_DS_
03E6   5800           02436         MOVAR   r0x1042
03E7   4800           02437         RSUBAR  r0x1041
03E8                  02438 _00274_DS_
03E8   F187           02439         JBCLR   PFLAG,0
03E9   A000           02440         GOTO    _00238_DS_
                      02441 ;;genSkipc:3195: created from rifx:00DE608C
03EA   5800           02442         MOVAR   (_Stalls_Bat + 0)
03EB   5600           02443         MOVRA   r0x1042
03EC   5800           02444         MOVAR   (_Stalls_Bat + 1)
03ED   5600           02445         MOVRA   r0x1043
03EE   5800           02446         MOVAR   r0x1043
03EF   4800           02447         RSUBAR  r0x1040
03F0   E587           02448         JBSET   PFLAG,2
03F1   A000           02449         GOTO    _00275_DS_
03F2   5800           02450         MOVAR   r0x1042
03F3   4800           02451         RSUBAR  r0x1041
03F4                  02452 _00275_DS_
03F4   E187           02453         JBSET   PFLAG,0
03F5   A000           02454         GOTO    _00238_DS_
                      02455 ;;genSkipc:3195: created from rifx:00DE608C
                      02456 ;;gen.c:6379: size=0/1, offset=0, AOP_TYPE(res)=8
                      02457 ;       .line   445; "main.c"   Lcd_seg[8] = 0b00010001;
03F6   3C11           02458         MOVAI   0x11
03F7   5600           02459         MOVRA   (_Lcd_seg + 8)
03F8   A000           02460         GOTO    _00252_DS_
03F9                  02461 _00238_DS_
                      02462 ;       .line   447; "main.c"   else if(Vol<Stalls_Bat[0])
03F9   5800           02463         MOVAR   (_Stalls_Bat + 0)
03FA   5600           02464         MOVRA   r0x1042
03FB   5800           02465         MOVAR   (_Stalls_Bat + 1)
03FC   5600           02466         MOVRA   r0x1043
03FD   5800           02467         MOVAR   r0x1043
03FE   4800           02468         RSUBAR  r0x1040
03FF   E587           02469         JBSET   PFLAG,2
0400   A000           02470         GOTO    _00276_DS_
0401   5800           02471         MOVAR   r0x1042
0402   4800           02472         RSUBAR  r0x1041
0403                  02473 _00276_DS_
0403   F187           02474         JBCLR   PFLAG,0
0404   A000           02475         GOTO    _00252_DS_
                      02476 ;;genSkipc:3195: created from rifx:00DE608C
                      02477 ;       .line   449; "main.c"   Lcd_seg[8] ^= 0b00010000;
0405   5800           02478         MOVAR   (_Lcd_seg + 8)
0406   5600           02479         MOVRA   r0x1041
0407   3C10           02480         MOVAI   0x10
0408   4200           02481         XORRA   r0x1041
                      02482 ;;gen.c:6379: size=0/1, offset=0, AOP_TYPE(res)=8
0409   5800           02483         MOVAR   r0x1041
040A   5600           02484         MOVRA   (_Lcd_seg + 8)
                      02485 ;       .line   450; "main.c"   Lcd_seg[8] |= 0b00000001;
040B   5800           02486         MOVAR   (_Lcd_seg + 8)
040C   5600           02487         MOVRA   r0x1041
040D   C000           02488         BSET    r0x1041,0
                      02489 ;;gen.c:6379: size=0/1, offset=0, AOP_TYPE(res)=8
040E   5800           02490         MOVAR   r0x1041
040F   5600           02491         MOVRA   (_Lcd_seg + 8)
0410                  02492 _00252_DS_
0410   000C           02493         RETURN  
                      02494 ; exit point of _bat_how_many
                      02495 
                      02496 ;***
                      02497 ;  pBlock Stats: dbName = C
                      02498 ;***
                      02499 ;entry:  _disp_speed_trip_bat   ;Function start
                      02500 ; 2 exit points
                      02501 ;has an exit
                      02502 ;functions called:
                      02503 ;   _TwobyteDIVone
                      02504 ;   _disp_num_3
                      02505 ;   _TwobyteDIVone
                      02506 ;   _disp_num_4
                      02507 ;   _TwobyteDIVone
                      02508 ;   _disp_num_5
                      02509 ;   _TwobyteDIVone
                      02510 ;   _disp_num_1
                      02511 ;   _disp_num_2
                      02512 ;   _TwobyteDIVone
                      02513 ;   _disp_num_3
                      02514 ;   _TwobyteDIVone
                      02515 ;   _disp_num_4
                      02516 ;   _TwobyteDIVone
                      02517 ;   _disp_num_5
                      02518 ;   _TwobyteDIVone
                      02519 ;   _disp_num_1
                      02520 ;   _disp_num_2
                      02521 ;3 compiler assigned registers:
                      02522 ;   r0x1045
                      02523 ;   r0x1046
                      02524 ;   r0x1047
                      02525 ;; Starting pCode block
0411                  02526 _disp_speed_trip_bat    ;Function start
                      02527 ; 2 exit points
                      02528 ;       .line   387; "main.c"   void disp_speed_trip_bat(unsigned char bl)
0411   5600           02529         MOVRA   r0x1045
                      02530 ;       .line   390; "main.c"   if( bl ) //
0412   3C00           02531         MOVAI   0x00
0413   5C00           02532         ORAR    r0x1045
0414   F587           02533         JBCLR   PFLAG,2
0415   A000           02534         GOTO    _00229_DS_
                      02535 ;       .line   392; "main.c"   Lcd_seg[4] &= 0b00010111;  
0416   5800           02536         MOVAR   (_Lcd_seg + 4)
0417   5600           02537         MOVRA   r0x1045
0418   3C17           02538         MOVAI   0x17
0419   7A00           02539         ANDRA   r0x1045
                      02540 ;;gen.c:6379: size=0/1, offset=0, AOP_TYPE(res)=8
041A   5800           02541         MOVAR   r0x1045
041B   5600           02542         MOVRA   (_Lcd_seg + 4)
                      02543 ;       .line   393; "main.c"   Lcd_seg[7] |= 0b00001000; 
041C   5800           02544         MOVAR   (_Lcd_seg + 7)
041D   5600           02545         MOVRA   r0x1045
041E   C600           02546         BSET    r0x1045,3
                      02547 ;;gen.c:6379: size=0/1, offset=0, AOP_TYPE(res)=8
041F   5800           02548         MOVAR   r0x1045
0420   5600           02549         MOVRA   (_Lcd_seg + 7)
                      02550 ;       .line   394; "main.c"   num = sub_km; 
0421   5800           02551         MOVAR   _sub_km
0422   5600           02552         MOVRA   r0x1045
0423   5800           02553         MOVAR   (_sub_km + 1)
0424   5600           02554         MOVRA   r0x1046
0425   A000           02555         GOTO    _00230_DS_
0426                  02556 _00229_DS_
                      02557 ;       .line   398; "main.c"   Lcd_seg[7] &= 0b00010111;  
0426   5800           02558         MOVAR   (_Lcd_seg + 7)
0427   5600           02559         MOVRA   r0x1047
0428   3C17           02560         MOVAI   0x17
0429   7A00           02561         ANDRA   r0x1047
                      02562 ;;gen.c:6379: size=0/1, offset=0, AOP_TYPE(res)=8
042A   5800           02563         MOVAR   r0x1047
042B   5600           02564         MOVRA   (_Lcd_seg + 7)
                      02565 ;       .line   399; "main.c"   Lcd_seg[4] |= 0b00001000;
042C   5800           02566         MOVAR   (_Lcd_seg + 4)
042D   5600           02567         MOVRA   r0x1047
042E   C600           02568         BSET    r0x1047,3
                      02569 ;;gen.c:6379: size=0/1, offset=0, AOP_TYPE(res)=8
042F   5800           02570         MOVAR   r0x1047
0430   5600           02571         MOVRA   (_Lcd_seg + 4)
                      02572 ;       .line   400; "main.c"   num = voltage;
0431   5800           02573         MOVAR   _voltage
0432   5600           02574         MOVRA   r0x1045
0433   5800           02575         MOVAR   (_voltage + 1)
0434   5600           02576         MOVRA   r0x1046
0435                  02577 _00230_DS_
                      02578 ;       .line   402; "main.c"   R3R4 = num;
0435   5800           02579         MOVAR   r0x1045
0436   5600           02580         MOVRA   _R3R4
0437   5800           02581         MOVAR   r0x1046
0438   5600           02582         MOVRA   (_R3R4 + 1)
                      02583 ;       .line   403; "main.c"   R5 = 100;
0439   3C64           02584         MOVAI   0x64
043A   5600           02585         MOVRA   _R5
                      02586 ;       .line   404; "main.c"   TwobyteDIVone();
043B   8000           02587         CALL    _TwobyteDIVone
                      02588 ;       .line   405; "main.c"   disp_num_3( R1R0 );
043C   5800           02589         MOVAR   _R1R0
043D   5600           02590         MOVRA   r0x1047
043E   5800           02591         MOVAR   r0x1047
043F   8000           02592         CALL    _disp_num_3
                      02593 ;       .line   406; "main.c"   R3R4 = R2;
0440   5800           02594         MOVAR   _R2
0441   5600           02595         MOVRA   _R3R4
0442   7600           02596         CLRR    (_R3R4 + 1)
                      02597 ;       .line   407; "main.c"   R5 = 10;
0443   3C0A           02598         MOVAI   0x0a
0444   5600           02599         MOVRA   _R5
                      02600 ;       .line   408; "main.c"   TwobyteDIVone();
0445   8000           02601         CALL    _TwobyteDIVone
                      02602 ;       .line   409; "main.c"   disp_num_4( R1R0 );
0446   5800           02603         MOVAR   _R1R0
0447   5600           02604         MOVRA   r0x1047
0448   5800           02605         MOVAR   r0x1047
0449   8000           02606         CALL    _disp_num_4
                      02607 ;       .line   411; "main.c"   R2 = 0 ;
044A   7600           02608         CLRR    _R2
                      02609 ;       .line   412; "main.c"   R3R4 = num;
044B   5800           02610         MOVAR   r0x1045
044C   5600           02611         MOVRA   _R3R4
044D   5800           02612         MOVAR   r0x1046
044E   5600           02613         MOVRA   (_R3R4 + 1)
                      02614 ;       .line   413; "main.c"   R5 = 10;
044F   3C0A           02615         MOVAI   0x0a
0450   5600           02616         MOVRA   _R5
                      02617 ;       .line   414; "main.c"   TwobyteDIVone();
0451   8000           02618         CALL    _TwobyteDIVone
                      02619 ;       .line   415; "main.c"   disp_num_5( R2 );
0452   5800           02620         MOVAR   _R2
0453   8000           02621         CALL    _disp_num_5
                      02622 ;       .line   417; "main.c"   R2 = 0;
0454   7600           02623         CLRR    _R2
                      02624 ;       .line   418; "main.c"   R3R4 = ShowSpeed;  //ShowSpeed
0455   5800           02625         MOVAR   _ShowSpeed
0456   5600           02626         MOVRA   _R3R4
0457   5800           02627         MOVAR   (_ShowSpeed + 1)
0458   5600           02628         MOVRA   (_R3R4 + 1)
                      02629 ;       .line   419; "main.c"   R5 = 10;
0459   3C0A           02630         MOVAI   0x0a
045A   5600           02631         MOVRA   _R5
                      02632 ;       .line   420; "main.c"   TwobyteDIVone();
045B   8000           02633         CALL    _TwobyteDIVone
                      02634 ;       .line   421; "main.c"   disp_num_1( R1R0 );
045C   5800           02635         MOVAR   _R1R0
045D   5600           02636         MOVRA   r0x1045
045E   5800           02637         MOVAR   r0x1045
045F   8000           02638         CALL    _disp_num_1
                      02639 ;       .line   422; "main.c"   disp_num_2( R2 );
0460   5800           02640         MOVAR   _R2
0461   8000           02641         CALL    _disp_num_2
0462   000C           02642         RETURN  
                      02643 ; exit point of _disp_speed_trip_bat
                      02644 
                      02645 ;***
                      02646 ;  pBlock Stats: dbName = C
                      02647 ;***
                      02648 ;entry:  _disp_num_3    ;Function start
                      02649 ; 2 exit points
                      02650 ;has an exit
                      02651 ;functions called:
                      02652 ;   __gptrget1
                      02653 ;   __gptrget1
                      02654 ;   __gptrget1
                      02655 ;   __gptrget1
                      02656 ;6 compiler assigned registers:
                      02657 ;   r0x1040
                      02658 ;   r0x1041
                      02659 ;   r0x1042
                      02660 ;   STK01
                      02661 ;   STK00
                      02662 ;   r0x1043
                      02663 ;; Starting pCode block
0463                  02664 _disp_num_3     ;Function start
                      02665 ; 2 exit points
                      02666 ;       .line   374; "main.c"   void disp_num_3( unsigned char num )
0463   5600           02667         MOVRA   r0x1040
                      02668 ;       .line   376; "main.c"   Lcd_seg[6]= LED7Code50[num];
0464   5800           02669         MOVAR   r0x1040
0465   3F00           02670         ADDAI   (_LED7Code50 + 0)
0466   5600           02671         MOVRA   r0x1041
0467   3C00           02672         MOVAI   high (_LED7Code50 + 0)
0468   F187           02673         JBCLR   PFLAG,0
0469   3F01           02674         ADDAI   0x01
046A   5600           02675         MOVRA   r0x1042
046B   5800           02676         MOVAR   r0x1041
046C   5600           02677         MOVRA   STK01
046D   5800           02678         MOVAR   r0x1042
046E   5600           02679         MOVRA   STK00
046F   3C80           02680         MOVAI   0x80
0470   8000           02681         CALL    __gptrget1
0471   5600           02682         MOVRA   (_Lcd_seg + 6)
0472   5600           02683         MOVRA   r0x1043
                      02684 ;;gen.c:6379: size=0/1, offset=0, AOP_TYPE(res)=8
                      02685 ;;103   MOVAR   r0x1043
                      02686 ;       .line   378; "main.c"   Lcd_seg[7] &= 0b00001000;
0473   5800           02687         MOVAR   (_Lcd_seg + 7)
0474   5600           02688         MOVRA   r0x1041
0475   3C08           02689         MOVAI   0x08
0476   7A00           02690         ANDRA   r0x1041
                      02691 ;;gen.c:6379: size=0/1, offset=0, AOP_TYPE(res)=8
0477   5800           02692         MOVAR   r0x1041
0478   5600           02693         MOVRA   (_Lcd_seg + 7)
                      02694 ;       .line   379; "main.c"   Lcd_seg[7]|= LED7Code51[num]; 
0479   5800           02695         MOVAR   (_Lcd_seg + 7)
047A   5600           02696         MOVRA   r0x1041
047B   5800           02697         MOVAR   r0x1040
047C   3F00           02698         ADDAI   (_LED7Code51 + 0)
047D   5600           02699         MOVRA   r0x1040
047E   3C00           02700         MOVAI   high (_LED7Code51 + 0)
047F   F187           02701         JBCLR   PFLAG,0
0480   3F01           02702         ADDAI   0x01
0481   5600           02703         MOVRA   r0x1042
0482   5800           02704         MOVAR   r0x1040
0483   5600           02705         MOVRA   STK01
0484   5800           02706         MOVAR   r0x1042
0485   5600           02707         MOVRA   STK00
0486   3C80           02708         MOVAI   0x80
0487   8000           02709         CALL    __gptrget1
0488   5600           02710         MOVRA   r0x1043
0489   5800           02711         MOVAR   r0x1043
048A   5E00           02712         ORRA    r0x1041
                      02713 ;;gen.c:6379: size=0/1, offset=0, AOP_TYPE(res)=8
048B   5800           02714         MOVAR   r0x1041
048C   5600           02715         MOVRA   (_Lcd_seg + 7)
                      02716 ;       .line   380; "main.c"   if( disp_VR ) Lcd_seg[7] |= 0b00000001;
048D   E400           02717         JBSET   _PAC,2
048E   A000           02718         GOTO    _00220_DS_
048F   5800           02719         MOVAR   (_Lcd_seg + 7)
0490   5600           02720         MOVRA   r0x1040
0491   C000           02721         BSET    r0x1040,0
                      02722 ;;gen.c:6379: size=0/1, offset=0, AOP_TYPE(res)=8
0492   5800           02723         MOVAR   r0x1040
0493   5600           02724         MOVRA   (_Lcd_seg + 7)
0494                  02725 _00220_DS_
                      02726 ;       .line   381; "main.c"   if( disp_VL ) Lcd_seg[7] |= 0b00000010;
0494   E000           02727         JBSET   _PAC,0
0495   A000           02728         GOTO    _00223_DS_
0496   5800           02729         MOVAR   (_Lcd_seg + 7)
0497   5600           02730         MOVRA   r0x1040
0498   C200           02731         BSET    r0x1040,1
                      02732 ;;gen.c:6379: size=0/1, offset=0, AOP_TYPE(res)=8
0499   5800           02733         MOVAR   r0x1040
049A   5600           02734         MOVRA   (_Lcd_seg + 7)
049B                  02735 _00223_DS_
049B   000C           02736         RETURN  
                      02737 ; exit point of _disp_num_3
                      02738 
                      02739 ;***
                      02740 ;  pBlock Stats: dbName = C
                      02741 ;***
                      02742 ;entry:  _disp_num_4    ;Function start
                      02743 ; 2 exit points
                      02744 ;has an exit
                      02745 ;functions called:
                      02746 ;   __gptrget1
                      02747 ;   __gptrget1
                      02748 ;   __gptrget1
                      02749 ;   __gptrget1
                      02750 ;7 compiler assigned registers:
                      02751 ;   r0x1040
                      02752 ;   r0x1041
                      02753 ;   r0x1042
                      02754 ;   r0x1043
                      02755 ;   STK01
                      02756 ;   STK00
                      02757 ;   r0x1044
                      02758 ;; Starting pCode block
049C                  02759 _disp_num_4     ;Function start
                      02760 ; 2 exit points
                      02761 ;       .line   366; "main.c"   void disp_num_4( unsigned char num )
049C   5600           02762         MOVRA   r0x1040
                      02763 ;       .line   368; "main.c"   Lcd_seg[4] &= 0b00001101;
049D   5800           02764         MOVAR   (_Lcd_seg + 4)
049E   5600           02765         MOVRA   r0x1041
049F   3C0D           02766         MOVAI   0x0d
04A0   7A00           02767         ANDRA   r0x1041
                      02768 ;;gen.c:6379: size=0/1, offset=0, AOP_TYPE(res)=8
04A1   5800           02769         MOVAR   r0x1041
04A2   5600           02770         MOVRA   (_Lcd_seg + 4)
                      02771 ;       .line   369; "main.c"   Lcd_seg[4]|= LED7Code40[num];
04A3   5800           02772         MOVAR   (_Lcd_seg + 4)
04A4   5600           02773         MOVRA   r0x1041
04A5   5800           02774         MOVAR   r0x1040
04A6   3F00           02775         ADDAI   (_LED7Code40 + 0)
04A7   5600           02776         MOVRA   r0x1042
04A8   3C00           02777         MOVAI   high (_LED7Code40 + 0)
04A9   F187           02778         JBCLR   PFLAG,0
04AA   3F01           02779         ADDAI   0x01
04AB   5600           02780         MOVRA   r0x1043
04AC   5800           02781         MOVAR   r0x1042
04AD   5600           02782         MOVRA   STK01
04AE   5800           02783         MOVAR   r0x1043
04AF   5600           02784         MOVRA   STK00
04B0   3C80           02785         MOVAI   0x80
04B1   8000           02786         CALL    __gptrget1
04B2   5600           02787         MOVRA   r0x1044
04B3   5800           02788         MOVAR   r0x1044
04B4   5E00           02789         ORRA    r0x1041
                      02790 ;;gen.c:6379: size=0/1, offset=0, AOP_TYPE(res)=8
04B5   5800           02791         MOVAR   r0x1041
04B6   5600           02792         MOVRA   (_Lcd_seg + 4)
                      02793 ;       .line   370; "main.c"   Lcd_seg[5]= LED7Code41[num];  
04B7   5800           02794         MOVAR   r0x1040
04B8   3F00           02795         ADDAI   (_LED7Code41 + 0)
04B9   5600           02796         MOVRA   r0x1040
04BA   3C00           02797         MOVAI   high (_LED7Code41 + 0)
04BB   F187           02798         JBCLR   PFLAG,0
04BC   3F01           02799         ADDAI   0x01
04BD   5600           02800         MOVRA   r0x1041
04BE   5800           02801         MOVAR   r0x1040
04BF   5600           02802         MOVRA   STK01
04C0   5800           02803         MOVAR   r0x1041
04C1   5600           02804         MOVRA   STK00
04C2   3C80           02805         MOVAI   0x80
04C3   8000           02806         CALL    __gptrget1
04C4   5600           02807         MOVRA   r0x1042
                      02808 ;;gen.c:6379: size=0/1, offset=0, AOP_TYPE(res)=8
04C5   5800           02809         MOVAR   r0x1042
04C6   5600           02810         MOVRA   (_Lcd_seg + 5)
04C7   000C           02811         RETURN  
                      02812 ; exit point of _disp_num_4
                      02813 
                      02814 ;***
                      02815 ;  pBlock Stats: dbName = C
                      02816 ;***
                      02817 ;entry:  _disp_num_5    ;Function start
                      02818 ; 2 exit points
                      02819 ;has an exit
                      02820 ;functions called:
                      02821 ;   __gptrget1
                      02822 ;   __gptrget1
                      02823 ;   __gptrget1
                      02824 ;   __gptrget1
                      02825 ;6 compiler assigned registers:
                      02826 ;   r0x1040
                      02827 ;   r0x1041
                      02828 ;   r0x1042
                      02829 ;   STK01
                      02830 ;   STK00
                      02831 ;   r0x1043
                      02832 ;; Starting pCode block
04C8                  02833 _disp_num_5     ;Function start
                      02834 ; 2 exit points
                      02835 ;       .line   358; "main.c"   void disp_num_5( unsigned char num )
04C8   5600           02836         MOVRA   r0x1040
                      02837 ;       .line   360; "main.c"   Lcd_seg[4] &= 0b00011010;
04C9   5800           02838         MOVAR   (_Lcd_seg + 4)
04CA   5600           02839         MOVRA   r0x1041
04CB   3C1A           02840         MOVAI   0x1a
04CC   7A00           02841         ANDRA   r0x1041
                      02842 ;;gen.c:6379: size=0/1, offset=0, AOP_TYPE(res)=8
04CD   5800           02843         MOVAR   r0x1041
04CE   5600           02844         MOVRA   (_Lcd_seg + 4)
                      02845 ;       .line   361; "main.c"   Lcd_seg[3]= LED7Code30[num];
04CF   5800           02846         MOVAR   r0x1040
04D0   3F00           02847         ADDAI   (_LED7Code30 + 0)
04D1   5600           02848         MOVRA   r0x1041
04D2   3C00           02849         MOVAI   high (_LED7Code30 + 0)
04D3   F187           02850         JBCLR   PFLAG,0
04D4   3F01           02851         ADDAI   0x01
04D5   5600           02852         MOVRA   r0x1042
04D6   5800           02853         MOVAR   r0x1041
04D7   5600           02854         MOVRA   STK01
04D8   5800           02855         MOVAR   r0x1042
04D9   5600           02856         MOVRA   STK00
04DA   3C80           02857         MOVAI   0x80
04DB   8000           02858         CALL    __gptrget1
04DC   5600           02859         MOVRA   (_Lcd_seg + 3)
04DD   5600           02860         MOVRA   r0x1043
                      02861 ;;gen.c:6379: size=0/1, offset=0, AOP_TYPE(res)=8
                      02862 ;;102   MOVAR   r0x1043
                      02863 ;       .line   362; "main.c"   Lcd_seg[4]|= LED7Code31[num];      
04DE   5800           02864         MOVAR   (_Lcd_seg + 4)
04DF   5600           02865         MOVRA   r0x1041
04E0   5800           02866         MOVAR   r0x1040
04E1   3F00           02867         ADDAI   (_LED7Code31 + 0)
04E2   5600           02868         MOVRA   r0x1040
04E3   3C00           02869         MOVAI   high (_LED7Code31 + 0)
04E4   F187           02870         JBCLR   PFLAG,0
04E5   3F01           02871         ADDAI   0x01
04E6   5600           02872         MOVRA   r0x1042
04E7   5800           02873         MOVAR   r0x1040
04E8   5600           02874         MOVRA   STK01
04E9   5800           02875         MOVAR   r0x1042
04EA   5600           02876         MOVRA   STK00
04EB   3C80           02877         MOVAI   0x80
04EC   8000           02878         CALL    __gptrget1
04ED   5600           02879         MOVRA   r0x1043
04EE   5800           02880         MOVAR   r0x1043
04EF   5E00           02881         ORRA    r0x1041
                      02882 ;;gen.c:6379: size=0/1, offset=0, AOP_TYPE(res)=8
04F0   5800           02883         MOVAR   r0x1041
04F1   5600           02884         MOVRA   (_Lcd_seg + 4)
04F2   000C           02885         RETURN  
                      02886 ; exit point of _disp_num_5
                      02887 
                      02888 ;***
                      02889 ;  pBlock Stats: dbName = C
                      02890 ;***
                      02891 ;entry:  _disp_num_2    ;Function start
                      02892 ; 2 exit points
                      02893 ;has an exit
                      02894 ;functions called:
                      02895 ;   __gptrget1
                      02896 ;   __gptrget1
                      02897 ;   __gptrget1
                      02898 ;   __gptrget1
                      02899 ;7 compiler assigned registers:
                      02900 ;   r0x1040
                      02901 ;   r0x1041
                      02902 ;   r0x1042
                      02903 ;   r0x1043
                      02904 ;   STK01
                      02905 ;   STK00
                      02906 ;   r0x1044
                      02907 ;; Starting pCode block
04F3                  02908 _disp_num_2     ;Function start
                      02909 ; 2 exit points
                      02910 ;       .line   350; "main.c"   void disp_num_2( unsigned char num )
04F3   5600           02911         MOVRA   r0x1040
                      02912 ;       .line   352; "main.c"   Lcd_seg[1] &= 0b00011010;
04F4   5800           02913         MOVAR   (_Lcd_seg + 1)
04F5   5600           02914         MOVRA   r0x1041
04F6   3C1A           02915         MOVAI   0x1a
04F7   7A00           02916         ANDRA   r0x1041
                      02917 ;;gen.c:6379: size=0/1, offset=0, AOP_TYPE(res)=8
04F8   5800           02918         MOVAR   r0x1041
04F9   5600           02919         MOVRA   (_Lcd_seg + 1)
                      02920 ;       .line   353; "main.c"   Lcd_seg[1]|= LED7Code20[num];
04FA   5800           02921         MOVAR   (_Lcd_seg + 1)
04FB   5600           02922         MOVRA   r0x1041
04FC   5800           02923         MOVAR   r0x1040
04FD   3F00           02924         ADDAI   (_LED7Code20 + 0)
04FE   5600           02925         MOVRA   r0x1042
04FF   3C00           02926         MOVAI   high (_LED7Code20 + 0)
0500   F187           02927         JBCLR   PFLAG,0
0501   3F01           02928         ADDAI   0x01
0502   5600           02929         MOVRA   r0x1043
0503   5800           02930         MOVAR   r0x1042
0504   5600           02931         MOVRA   STK01
0505   5800           02932         MOVAR   r0x1043
0506   5600           02933         MOVRA   STK00
0507   3C80           02934         MOVAI   0x80
0508   8000           02935         CALL    __gptrget1
0509   5600           02936         MOVRA   r0x1044
050A   5800           02937         MOVAR   r0x1044
050B   5E00           02938         ORRA    r0x1041
                      02939 ;;gen.c:6379: size=0/1, offset=0, AOP_TYPE(res)=8
050C   5800           02940         MOVAR   r0x1041
050D   5600           02941         MOVRA   (_Lcd_seg + 1)
                      02942 ;       .line   354; "main.c"   Lcd_seg[2]= LED7Code21[num];
050E   5800           02943         MOVAR   r0x1040
050F   3F00           02944         ADDAI   (_LED7Code21 + 0)
0510   5600           02945         MOVRA   r0x1040
0511   3C00           02946         MOVAI   high (_LED7Code21 + 0)
0512   F187           02947         JBCLR   PFLAG,0
0513   3F01           02948         ADDAI   0x01
0514   5600           02949         MOVRA   r0x1041
0515   5800           02950         MOVAR   r0x1040
0516   5600           02951         MOVRA   STK01
0517   5800           02952         MOVAR   r0x1041
0518   5600           02953         MOVRA   STK00
0519   3C80           02954         MOVAI   0x80
051A   8000           02955         CALL    __gptrget1
051B   5600           02956         MOVRA   r0x1042
                      02957 ;;gen.c:6379: size=0/1, offset=0, AOP_TYPE(res)=8
051C   5800           02958         MOVAR   r0x1042
051D   5600           02959         MOVRA   (_Lcd_seg + 2)
051E   000C           02960         RETURN  
                      02961 ; exit point of _disp_num_2
                      02962 
                      02963 ;***
                      02964 ;  pBlock Stats: dbName = C
                      02965 ;***
                      02966 ;entry:  _disp_num_1    ;Function start
                      02967 ; 2 exit points
                      02968 ;has an exit
                      02969 ;functions called:
                      02970 ;   __gptrget1
                      02971 ;   __gptrget1
                      02972 ;   __gptrget1
                      02973 ;   __gptrget1
                      02974 ;6 compiler assigned registers:
                      02975 ;   r0x1040
                      02976 ;   r0x1041
                      02977 ;   r0x1042
                      02978 ;   STK01
                      02979 ;   STK00
                      02980 ;   r0x1043
                      02981 ;; Starting pCode block
051F                  02982 _disp_num_1     ;Function start
                      02983 ; 2 exit points
                      02984 ;       .line   340; "main.c"   void disp_num_1( unsigned char num )
051F   5600           02985         MOVRA   r0x1040
                      02986 ;       .line   343; "main.c"   Lcd_seg[1] &= 0b00010101;
0520   5800           02987         MOVAR   (_Lcd_seg + 1)
0521   5600           02988         MOVRA   r0x1041
0522   3C15           02989         MOVAI   0x15
0523   7A00           02990         ANDRA   r0x1041
                      02991 ;;gen.c:6379: size=0/1, offset=0, AOP_TYPE(res)=8
0524   5800           02992         MOVAR   r0x1041
0525   5600           02993         MOVRA   (_Lcd_seg + 1)
                      02994 ;       .line   344; "main.c"   Lcd_seg[0]= LED7Code10[num];
0526   5800           02995         MOVAR   r0x1040
0527   3F00           02996         ADDAI   (_LED7Code10 + 0)
0528   5600           02997         MOVRA   r0x1041
0529   3C00           02998         MOVAI   high (_LED7Code10 + 0)
052A   F187           02999         JBCLR   PFLAG,0
052B   3F01           03000         ADDAI   0x01
052C   5600           03001         MOVRA   r0x1042
052D   5800           03002         MOVAR   r0x1041
052E   5600           03003         MOVRA   STK01
052F   5800           03004         MOVAR   r0x1042
0530   5600           03005         MOVRA   STK00
0531   3C80           03006         MOVAI   0x80
0532   8000           03007         CALL    __gptrget1
0533   5600           03008         MOVRA   (_Lcd_seg + 0)
0534   5600           03009         MOVRA   r0x1043
                      03010 ;;gen.c:6379: size=0/1, offset=0, AOP_TYPE(res)=8
                      03011 ;;101   MOVAR   r0x1043
                      03012 ;       .line   345; "main.c"   Lcd_seg[1]|= LED7Code11[num];
0535   5800           03013         MOVAR   (_Lcd_seg + 1)
0536   5600           03014         MOVRA   r0x1041
0537   5800           03015         MOVAR   r0x1040
0538   3F00           03016         ADDAI   (_LED7Code11 + 0)
0539   5600           03017         MOVRA   r0x1040
053A   3C00           03018         MOVAI   high (_LED7Code11 + 0)
053B   F187           03019         JBCLR   PFLAG,0
053C   3F01           03020         ADDAI   0x01
053D   5600           03021         MOVRA   r0x1042
053E   5800           03022         MOVAR   r0x1040
053F   5600           03023         MOVRA   STK01
0540   5800           03024         MOVAR   r0x1042
0541   5600           03025         MOVRA   STK00
0542   3C80           03026         MOVAI   0x80
0543   8000           03027         CALL    __gptrget1
0544   5600           03028         MOVRA   r0x1043
0545   5800           03029         MOVAR   r0x1043
0546   5E00           03030         ORRA    r0x1041
                      03031 ;;gen.c:6379: size=0/1, offset=0, AOP_TYPE(res)=8
0547   5800           03032         MOVAR   r0x1041
0548   5600           03033         MOVRA   (_Lcd_seg + 1)
0549   000C           03034         RETURN  
                      03035 ; exit point of _disp_num_1
                      03036 
                      03037 ;***
                      03038 ;  pBlock Stats: dbName = C
                      03039 ;***
                      03040 ;entry:  _set_normal_seg        ;Function start
                      03041 ; 2 exit points
                      03042 ;has an exit
                      03043 ;functions called:
                      03044 ;   _setb_io
                      03045 ;   _clrb_io
                      03046 ;   _clrb_io
                      03047 ;   _setb_io
                      03048 ;   _setb_io
                      03049 ;   _clrb_io
                      03050 ;   _clrb_io
                      03051 ;   _setb_io
                      03052 ;7 compiler assigned registers:
                      03053 ;   r0x1041
                      03054 ;   STK00
                      03055 ;   r0x1042
                      03056 ;   r0x1043
                      03057 ;   r0x1044
                      03058 ;   r0x1045
                      03059 ;   r0x1046
                      03060 ;; Starting pCode block
054A                  03061 _set_normal_seg ;Function start
                      03062 ; 2 exit points
                      03063 ;       .line   303; "main.c"   void set_normal_seg(unsigned char sta,unsigned char which_com) 
054A   5600           03064         MOVRA   r0x1041
054B   5800           03065         MOVAR   STK00
054C   5600           03066         MOVRA   r0x1042
                      03067 ;       .line   307; "main.c"   mem_mask = seg_bit[which_com];  
054D   5800           03068         MOVAR   r0x1042
054E   3F00           03069         ADDAI   (_seg_bit + 0)
054F   5600           03070         MOVRA   r0x1042
0550   3C00           03071         MOVAI   high (_seg_bit + 0)
0551   F187           03072         JBCLR   PFLAG,0
0552   3F01           03073         ADDAI   0x01
0553   5600           03074         MOVRA   r0x1043
0554   5800           03075         MOVAR   r0x1042
0555   5784           03076         MOVRA   FSR0
0556   5800           03077         MOVAR   r0x1043
0557   5785           03078         MOVRA   FSR1
0558   5982           03079         MOVAR   INDF2
0559   5600           03080         MOVRA   r0x1044
                      03081 ;       .line   308; "main.c"   for(i=0;i<9;i++)    //0-7 7IO SEG 7IO 0176
055A   7600           03082         CLRR    r0x1042
                      03083 ;;unsigned compare: left < lit(0x9=9), size=1
055B                  03084 _00194_DS_
055B   3C09           03085         MOVAI   0x09
055C   4800           03086         RSUBAR  r0x1042
055D   F187           03087         JBCLR   PFLAG,0
055E   A000           03088         GOTO    _00198_DS_
                      03089 ;;genSkipc:3195: created from rifx:00DE608C
                      03090 ;       .line   310; "main.c"   t = mem_mask&Lcd_seg[i];     //
055F   5800           03091         MOVAR   r0x1042
0560   3F00           03092         ADDAI   (_Lcd_seg + 0)
0561   5600           03093         MOVRA   r0x1043
0562   3C00           03094         MOVAI   high (_Lcd_seg + 0)
0563   F187           03095         JBCLR   PFLAG,0
0564   3F01           03096         ADDAI   0x01
0565   5600           03097         MOVRA   r0x1045
0566   5800           03098         MOVAR   r0x1043
0567   5784           03099         MOVRA   FSR0
0568   5800           03100         MOVAR   r0x1045
0569   5785           03101         MOVRA   FSR1
056A   5982           03102         MOVAR   INDF2
056B   5600           03103         MOVRA   r0x1046
056C   5800           03104         MOVAR   r0x1046
056D   7800           03105         ANDAR   r0x1044
056E   5600           03106         MOVRA   r0x1043
                      03107 ;       .line   311; "main.c"   if(sta == 0x00)
056F   3C00           03108         MOVAI   0x00
0570   5C00           03109         ORAR    r0x1041
0571   E587           03110         JBSET   PFLAG,2
0572   A000           03111         GOTO    _00192_DS_
                      03112 ;       .line   313; "main.c"   if(t == 0x00)
0573   3C00           03113         MOVAI   0x00
0574   5C00           03114         ORAR    r0x1043
0575   E587           03115         JBSET   PFLAG,2
0576   A000           03116         GOTO    _00186_DS_
                      03117 ;       .line   315; "main.c"   setb_io(i);
0577   5800           03118         MOVAR   r0x1042
0578   8000           03119         CALL    _setb_io
0579   A000           03120         GOTO    _00196_DS_
057A                  03121 _00186_DS_
                      03122 ;       .line   319; "main.c"   clrb_io(i);
057A   5800           03123         MOVAR   r0x1042
057B   8000           03124         CALL    _clrb_io
057C   A000           03125         GOTO    _00196_DS_
057D                  03126 _00192_DS_
                      03127 ;       .line   324; "main.c"   if(t == 0x00)
057D   3C00           03128         MOVAI   0x00
057E   5C00           03129         ORAR    r0x1043
057F   E587           03130         JBSET   PFLAG,2
0580   A000           03131         GOTO    _00189_DS_
                      03132 ;       .line   326; "main.c"   clrb_io(i);
0581   5800           03133         MOVAR   r0x1042
0582   8000           03134         CALL    _clrb_io
0583   A000           03135         GOTO    _00196_DS_
0584                  03136 _00189_DS_
                      03137 ;       .line   330; "main.c"   setb_io(i);
0584   5800           03138         MOVAR   r0x1042
0585   8000           03139         CALL    _setb_io
0586                  03140 _00196_DS_
                      03141 ;       .line   308; "main.c"   for(i=0;i<9;i++)    //0-7 7IO SEG 7IO 0176
0586   6600           03142         INCR    r0x1042
0587   A000           03143         GOTO    _00194_DS_
0588                  03144 _00198_DS_
0588   000C           03145         RETURN  
                      03146 ; exit point of _set_normal_seg
                      03147 
                      03148 ;***
                      03149 ;  pBlock Stats: dbName = C
                      03150 ;***
                      03151 ;entry:  _clrb_io       ;Function start
                      03152 ; 2 exit points
                      03153 ;has an exit
                      03154 ;1 compiler assigned register :
                      03155 ;   r0x1040
                      03156 ;; Starting pCode block
0589                  03157 _clrb_io        ;Function start
                      03158 ; 2 exit points
                      03159 ;       .line   288; "main.c"   void clrb_io(unsigned char seg_nums)  
0589   5600           03160         MOVRA   r0x1040
                      03161 ;       .line   290; "main.c"   if( seg_nums==0 ) Set_Low_Seg_1
058A   3C00           03162         MOVAI   0x00
058B   5C00           03163         ORAR    r0x1040
058C   E587           03164         JBSET   PFLAG,2
058D   A000           03165         GOTO    _00163_DS_
058E   C800           03166         BSET    _OEP0bits,4
058F   D800           03167         BCLR    _IOP0bits,4
0590                  03168 _00163_DS_
                      03169 ;       .line   291; "main.c"   if( seg_nums==1 ) Set_Low_Seg_2
0590   5800           03170         MOVAR   r0x1040
0591   3901           03171         XORAI   0x01
0592   E587           03172         JBSET   PFLAG,2
0593   A000           03173         GOTO    _00165_DS_
0594   CA00           03174         BSET    _OEP0bits,5
0595   DA00           03175         BCLR    _IOP0bits,5
0596                  03176 _00165_DS_
                      03177 ;       .line   292; "main.c"   if( seg_nums==2 ) Set_Low_Seg_3
0596   5800           03178         MOVAR   r0x1040
0597   3902           03179         XORAI   0x02
0598   E587           03180         JBSET   PFLAG,2
0599   A000           03181         GOTO    _00167_DS_
059A   CC00           03182         BSET    _OEP0bits,6
059B   DC00           03183         BCLR    _IOP0bits,6
059C                  03184 _00167_DS_
                      03185 ;       .line   293; "main.c"   if( seg_nums==3 ) Set_Low_Seg_4
059C   5800           03186         MOVAR   r0x1040
059D   3903           03187         XORAI   0x03
059E   E587           03188         JBSET   PFLAG,2
059F   A000           03189         GOTO    _00169_DS_
05A0   CC00           03190         BSET    _OEP1bits,6
05A1   D200           03191         BCLR    _AUCR,1
05A2   DC00           03192         BCLR    _IOP1bits,6
05A3                  03193 _00169_DS_
                      03194 ;       .line   294; "main.c"   if( seg_nums==4 ) Set_Low_Seg_5
05A3   5800           03195         MOVAR   r0x1040
05A4   3904           03196         XORAI   0x04
05A5   E587           03197         JBSET   PFLAG,2
05A6   A000           03198         GOTO    _00171_DS_
05A7   C800           03199         BSET    _OEP1bits,4
05A8   D800           03200         BCLR    _IOP1bits,4
05A9                  03201 _00171_DS_
                      03202 ;       .line   295; "main.c"   if( seg_nums==5 ) Set_Low_Seg_6
05A9   5800           03203         MOVAR   r0x1040
05AA   3905           03204         XORAI   0x05
05AB   E587           03205         JBSET   PFLAG,2
05AC   A000           03206         GOTO    _00173_DS_
05AD   C600           03207         BSET    _OEP1bits,3
05AE   D600           03208         BCLR    _IOP1bits,3
05AF                  03209 _00173_DS_
                      03210 ;       .line   296; "main.c"   if( seg_nums==6 ) Set_Low_Seg_7
05AF   5800           03211         MOVAR   r0x1040
05B0   3906           03212         XORAI   0x06
05B1   E587           03213         JBSET   PFLAG,2
05B2   A000           03214         GOTO    _00175_DS_
05B3   C400           03215         BSET    _OEP1bits,2
05B4   D400           03216         BCLR    _IOP1bits,2
05B5                  03217 _00175_DS_
                      03218 ;       .line   297; "main.c"   if( seg_nums==7 ) Set_Low_Seg_8 
05B5   5800           03219         MOVAR   r0x1040
05B6   3907           03220         XORAI   0x07
05B7   E587           03221         JBSET   PFLAG,2
05B8   A000           03222         GOTO    _00177_DS_
05B9   C200           03223         BSET    _OEP1bits,1
05BA   D200           03224         BCLR    _IOP1bits,1
05BB                  03225 _00177_DS_
                      03226 ;       .line   298; "main.c"   if( seg_nums==8 ) Set_Low_Seg_9        
05BB   5800           03227         MOVAR   r0x1040
05BC   3908           03228         XORAI   0x08
05BD   E587           03229         JBSET   PFLAG,2
05BE   A000           03230         GOTO    _00180_DS_
05BF   C000           03231         BSET    _OEP1bits,0
05C0   D000           03232         BCLR    _IOP1bits,0
05C1                  03233 _00180_DS_
05C1   000C           03234         RETURN  
                      03235 ; exit point of _clrb_io
                      03236 
                      03237 ;***
                      03238 ;  pBlock Stats: dbName = C
                      03239 ;***
                      03240 ;entry:  _setb_io       ;Function start
                      03241 ; 2 exit points
                      03242 ;has an exit
                      03243 ;1 compiler assigned register :
                      03244 ;   r0x1040
                      03245 ;; Starting pCode block
05C2                  03246 _setb_io        ;Function start
                      03247 ; 2 exit points
                      03248 ;       .line   275; "main.c"   void setb_io(unsigned char seg_nums)  
05C2   5600           03249         MOVRA   r0x1040
                      03250 ;       .line   277; "main.c"   if( seg_nums==0 ) Set_High_Seg_1
05C3   3C00           03251         MOVAI   0x00
05C4   5C00           03252         ORAR    r0x1040
05C5   E587           03253         JBSET   PFLAG,2
05C6   A000           03254         GOTO    _00140_DS_
05C7   C800           03255         BSET    _OEP0bits,4
05C8   C800           03256         BSET    _IOP0bits,4
05C9                  03257 _00140_DS_
                      03258 ;       .line   278; "main.c"   if( seg_nums==1 ) Set_High_Seg_2
05C9   5800           03259         MOVAR   r0x1040
05CA   3901           03260         XORAI   0x01
05CB   E587           03261         JBSET   PFLAG,2
05CC   A000           03262         GOTO    _00142_DS_
05CD   CA00           03263         BSET    _OEP0bits,5
05CE   CA00           03264         BSET    _IOP0bits,5
05CF                  03265 _00142_DS_
                      03266 ;       .line   279; "main.c"   if( seg_nums==2 ) Set_High_Seg_3
05CF   5800           03267         MOVAR   r0x1040
05D0   3902           03268         XORAI   0x02
05D1   E587           03269         JBSET   PFLAG,2
05D2   A000           03270         GOTO    _00144_DS_
05D3   CC00           03271         BSET    _OEP0bits,6
05D4   CC00           03272         BSET    _IOP0bits,6
05D5                  03273 _00144_DS_
                      03274 ;       .line   280; "main.c"   if( seg_nums==3 ) Set_High_Seg_4
05D5   5800           03275         MOVAR   r0x1040
05D6   3903           03276         XORAI   0x03
05D7   E587           03277         JBSET   PFLAG,2
05D8   A000           03278         GOTO    _00146_DS_
05D9   CC00           03279         BSET    _OEP1bits,6
05DA   C200           03280         BSET    _AUCR,1
05DB   CC00           03281         BSET    _IOP1bits,6
05DC                  03282 _00146_DS_
                      03283 ;       .line   281; "main.c"   if( seg_nums==4 ) Set_High_Seg_5
05DC   5800           03284         MOVAR   r0x1040
05DD   3904           03285         XORAI   0x04
05DE   E587           03286         JBSET   PFLAG,2
05DF   A000           03287         GOTO    _00148_DS_
05E0   C800           03288         BSET    _OEP1bits,4
05E1   C800           03289         BSET    _IOP1bits,4
05E2                  03290 _00148_DS_
                      03291 ;       .line   282; "main.c"   if( seg_nums==5 ) Set_High_Seg_6
05E2   5800           03292         MOVAR   r0x1040
05E3   3905           03293         XORAI   0x05
05E4   E587           03294         JBSET   PFLAG,2
05E5   A000           03295         GOTO    _00150_DS_
05E6   C600           03296         BSET    _OEP1bits,3
05E7   C600           03297         BSET    _IOP1bits,3
05E8                  03298 _00150_DS_
                      03299 ;       .line   283; "main.c"   if( seg_nums==6 ) Set_High_Seg_7
05E8   5800           03300         MOVAR   r0x1040
05E9   3906           03301         XORAI   0x06
05EA   E587           03302         JBSET   PFLAG,2
05EB   A000           03303         GOTO    _00152_DS_
05EC   C400           03304         BSET    _OEP1bits,2
05ED   C400           03305         BSET    _IOP1bits,2
05EE                  03306 _00152_DS_
                      03307 ;       .line   284; "main.c"   if( seg_nums==7 ) Set_High_Seg_8 
05EE   5800           03308         MOVAR   r0x1040
05EF   3907           03309         XORAI   0x07
05F0   E587           03310         JBSET   PFLAG,2
05F1   A000           03311         GOTO    _00154_DS_
05F2   C200           03312         BSET    _OEP1bits,1
05F3   C200           03313         BSET    _IOP1bits,1
05F4                  03314 _00154_DS_
                      03315 ;       .line   285; "main.c"   if( seg_nums==8 ) Set_High_Seg_9
05F4   5800           03316         MOVAR   r0x1040
05F5   3908           03317         XORAI   0x08
05F6   E587           03318         JBSET   PFLAG,2
05F7   A000           03319         GOTO    _00157_DS_
05F8   C000           03320         BSET    _OEP1bits,0
05F9   C000           03321         BSET    _IOP1bits,0
05FA                  03322 _00157_DS_
05FA   000C           03323         RETURN  
                      03324 ; exit point of _setb_io
                      03325 
                      03326 ;***
                      03327 ;  pBlock Stats: dbName = C
                      03328 ;***
                      03329 ;entry:  _adc_loop_speed        ;Function start
                      03330 ; 2 exit points
                      03331 ;has an exit
                      03332 ;functions called:
                      03333 ;   _delay_us
                      03334 ;   _delay_us
                      03335 ;7 compiler assigned registers:
                      03336 ;   STK00
                      03337 ;   r0x1042
                      03338 ;   r0x1043
                      03339 ;   r0x1044
                      03340 ;   r0x1045
                      03341 ;   r0x1046
                      03342 ;   r0x1047
                      03343 ;; Starting pCode block
05FB                  03344 _adc_loop_speed ;Function start
                      03345 ; 2 exit points
                      03346 ;       .line   253; "main.c"   P04OE = 0;
05FB   D800           03347         BCLR    _OEP0bits,4
                      03348 ;       .line   254; "main.c"   AN0SEL = 0b00010000;  //P04
05FC   3C10           03349         MOVAI   0x10
05FD   5600           03350         MOVRA   _AN0SEL
                      03351 ;       .line   255; "main.c"   ADCR0  = 0b01000001; 
05FE   3C41           03352         MOVAI   0x41
05FF   5600           03353         MOVRA   _ADCR0
                      03354 ;       .line   256; "main.c"   ADCR1  = 0b00000010; //4V 
0600   3C02           03355         MOVAI   0x02
0601   5600           03356         MOVRA   _ADCR1
                      03357 ;       .line   257; "main.c"   ADCR2  = 0b00001111;
0602   3C0F           03358         MOVAI   0x0f
0603   5600           03359         MOVRA   _ADCR2
                      03360 ;       .line   258; "main.c"   delay_us(100);
0604   3C64           03361         MOVAI   0x64
0605   5600           03362         MOVRA   STK00
0606   3C00           03363         MOVAI   0x00
0607   8000           03364         CALL    _delay_us
                      03365 ;       .line   259; "main.c"   ADEOC = 0;
0608   D200           03366         BCLR    _ADCR0bits,1
0609                  03367 _00128_DS_
                      03368 ;       .line   260; "main.c"   while(!ADEOC);
0609   E200           03369         JBSET   _ADCR0bits,1
060A   A000           03370         GOTO    _00128_DS_
                      03371 ;       .line   261; "main.c"   ADEOC = 0;
060B   D200           03372         BCLR    _ADCR0bits,1
060C                  03373 _00131_DS_
                      03374 ;       .line   262; "main.c"   while(!ADEOC);
060C   E200           03375         JBSET   _ADCR0bits,1
060D   A000           03376         GOTO    _00131_DS_
                      03377 ;       .line   263; "main.c"   ADEOC = 0;
060E   D200           03378         BCLR    _ADCR0bits,1
060F                  03379 _00134_DS_
                      03380 ;       .line   264; "main.c"   while(!ADEOC);
060F   E200           03381         JBSET   _ADCR0bits,1
0610   A000           03382         GOTO    _00134_DS_
                      03383 ;       .line   265; "main.c"   speed_AD = ADRH;
0611   5800           03384         MOVAR   _ADRH
0612   5600           03385         MOVRA   _speed_AD
0613   7600           03386         CLRR    (_speed_AD + 1)
                      03387 ;       .line   266; "main.c"   speed_AD = ( speed_AD << 4 )+ ADRL;
0614   4400           03388         SWAPAR  (_speed_AD + 1)
0615   3EF0           03389         ANDAI   0xf0
0616   5600           03390         MOVRA   r0x1042
0617   4400           03391         SWAPAR  _speed_AD
0618   5600           03392         MOVRA   r0x1043
0619   3E0F           03393         ANDAI   0x0f
061A   5E00           03394         ORRA    r0x1042
061B   4200           03395         XORRA   r0x1043
061C   5800           03396         MOVAR   _ADRL
061D   5600           03397         MOVRA   r0x1046
                      03398 ;;1     MOVRA   r0x1044
                      03399 ;;1     CLRR    r0x1045
                      03400 ;;100   MOVAR   r0x1044
061E   3C00           03401         MOVAI   0x00
061F   5600           03402         MOVRA   r0x1047
0620   5800           03403         MOVAR   r0x1046
0621   7C00           03404         ADDAR   r0x1043
0622   5600           03405         MOVRA   _speed_AD
0623   5800           03406         MOVAR   r0x1042
0624   5600           03407         MOVRA   (_speed_AD + 1)
0625   5800           03408         MOVAR   r0x1047
0626   F187           03409         JBCLR   PFLAG,0
0627   6000           03410         JZAR    r0x1047
0628   7E00           03411         ADDRA   (_speed_AD + 1)
                      03412 ;;shiftRight_Left2ResultLit:5216: shCount=1, size=2, sign=0, same=1, offr=0
                      03413 ;       .line   267; "main.c"   speed_AD = speed_AD >> 2;
0629   D187           03414         BCLR    PFLAG,0
062A   4E00           03415         RRR     (_speed_AD + 1)
062B   4E00           03416         RRR     _speed_AD
                      03417 ;;shiftRight_Left2ResultLit:5216: shCount=1, size=2, sign=0, same=1, offr=0
062C   D187           03418         BCLR    PFLAG,0
062D   4E00           03419         RRR     (_speed_AD + 1)
062E   4E00           03420         RRR     _speed_AD
                      03421 ;       .line   268; "main.c"   ADON = 0;  
062F   D000           03422         BCLR    _ADCR0bits,0
                      03423 ;       .line   269; "main.c"   AN0SEL = 0b00000000; //IO
0630   7600           03424         CLRR    _AN0SEL
0631   000C           03425         RETURN  
                      03426 ; exit point of _adc_loop_speed
                      03427 
                      03428 ;***
                      03429 ;  pBlock Stats: dbName = C
                      03430 ;***
                      03431 ;entry:  _adc_loop_bat  ;Function start
                      03432 ; 2 exit points
                      03433 ;has an exit
                      03434 ;functions called:
                      03435 ;   _delay_us
                      03436 ;   _delay_us
                      03437 ;7 compiler assigned registers:
                      03438 ;   STK00
                      03439 ;   r0x1042
                      03440 ;   r0x1043
                      03441 ;   r0x1044
                      03442 ;   r0x1045
                      03443 ;   r0x1046
                      03444 ;   r0x1047
                      03445 ;; Starting pCode block
0632                  03446 _adc_loop_bat   ;Function start
                      03447 ; 2 exit points
                      03448 ;       .line   232; "main.c"   P13OE = 0;
0632   D600           03449         BCLR    _OEP1bits,3
                      03450 ;       .line   233; "main.c"   AN1SEL = 0b00001000;    //P16AD   p13 
0633   3C08           03451         MOVAI   0x08
0634   5600           03452         MOVRA   _AN1SEL
                      03453 ;       .line   234; "main.c"   ADCR0  = 0b10100001; 
0635   3CA1           03454         MOVAI   0xa1
0636   5600           03455         MOVRA   _ADCR0
                      03456 ;       .line   235; "main.c"   ADCR1  = 0b00000010; // 4V 
0637   3C02           03457         MOVAI   0x02
0638   5600           03458         MOVRA   _ADCR1
                      03459 ;       .line   236; "main.c"   ADCR2  = 0b00001111;
0639   3C0F           03460         MOVAI   0x0f
063A   5600           03461         MOVRA   _ADCR2
                      03462 ;       .line   237; "main.c"   delay_us(100);
063B   3C64           03463         MOVAI   0x64
063C   5600           03464         MOVRA   STK00
063D   3C00           03465         MOVAI   0x00
063E   8000           03466         CALL    _delay_us
                      03467 ;       .line   238; "main.c"   ADEOC = 0;
063F   D200           03468         BCLR    _ADCR0bits,1
0640                  03469 _00117_DS_
                      03470 ;       .line   239; "main.c"   while(!ADEOC);
0640   E200           03471         JBSET   _ADCR0bits,1
0641   A000           03472         GOTO    _00117_DS_
                      03473 ;       .line   240; "main.c"   ADEOC = 0;
0642   D200           03474         BCLR    _ADCR0bits,1
0643                  03475 _00120_DS_
                      03476 ;       .line   241; "main.c"   while(!ADEOC);
0643   E200           03477         JBSET   _ADCR0bits,1
0644   A000           03478         GOTO    _00120_DS_
                      03479 ;       .line   242; "main.c"   ADEOC = 0;
0645   D200           03480         BCLR    _ADCR0bits,1
0646                  03481 _00123_DS_
                      03482 ;       .line   243; "main.c"   while(!ADEOC);
0646   E200           03483         JBSET   _ADCR0bits,1
0647   A000           03484         GOTO    _00123_DS_
                      03485 ;       .line   244; "main.c"   BAT_AD = ADRH;
0648   5800           03486         MOVAR   _ADRH
0649   5600           03487         MOVRA   _BAT_AD
064A   7600           03488         CLRR    (_BAT_AD + 1)
                      03489 ;       .line   245; "main.c"   BAT_AD = ( BAT_AD << 4 )+ ADRL;
064B   4400           03490         SWAPAR  (_BAT_AD + 1)
064C   3EF0           03491         ANDAI   0xf0
064D   5600           03492         MOVRA   r0x1042
064E   4400           03493         SWAPAR  _BAT_AD
064F   5600           03494         MOVRA   r0x1043
0650   3E0F           03495         ANDAI   0x0f
0651   5E00           03496         ORRA    r0x1042
0652   4200           03497         XORRA   r0x1043
0653   5800           03498         MOVAR   _ADRL
0654   5600           03499         MOVRA   r0x1046
                      03500 ;;1     MOVRA   r0x1044
                      03501 ;;1     CLRR    r0x1045
                      03502 ;;99    MOVAR   r0x1044
0655   3C00           03503         MOVAI   0x00
0656   5600           03504         MOVRA   r0x1047
0657   5800           03505         MOVAR   r0x1046
0658   7C00           03506         ADDAR   r0x1043
0659   5600           03507         MOVRA   _BAT_AD
065A   5800           03508         MOVAR   r0x1042
065B   5600           03509         MOVRA   (_BAT_AD + 1)
065C   5800           03510         MOVAR   r0x1047
065D   F187           03511         JBCLR   PFLAG,0
065E   6000           03512         JZAR    r0x1047
065F   7E00           03513         ADDRA   (_BAT_AD + 1)
                      03514 ;;shiftRight_Left2ResultLit:5216: shCount=1, size=2, sign=0, same=1, offr=0
                      03515 ;       .line   246; "main.c"   BAT_AD = BAT_AD >> 2;
0660   D187           03516         BCLR    PFLAG,0
0661   4E00           03517         RRR     (_BAT_AD + 1)
0662   4E00           03518         RRR     _BAT_AD
                      03519 ;;shiftRight_Left2ResultLit:5216: shCount=1, size=2, sign=0, same=1, offr=0
0663   D187           03520         BCLR    PFLAG,0
0664   4E00           03521         RRR     (_BAT_AD + 1)
0665   4E00           03522         RRR     _BAT_AD
                      03523 ;       .line   248; "main.c"   ADON = 0;
0666   D000           03524         BCLR    _ADCR0bits,0
                      03525 ;       .line   249; "main.c"   AN1SEL = 0b00000000; //IO
0667   7600           03526         CLRR    _AN1SEL
0668   000C           03527         RETURN  
                      03528 ; exit point of _adc_loop_bat
                      03529 
                      03530 ;***
                      03531 ;  pBlock Stats: dbName = C
                      03532 ;***
                      03533 ;entry:  _TwobyteDIVone ;Function start
                      03534 ; 2 exit points
                      03535 ;has an exit
                      03536 ;; Starting pCode block
0669                  03537 _TwobyteDIVone  ;Function start
                      03538 ; 2 exit points
                      03539 ;       .line   228; "main.c"   __endasm;    
0669   7600           03540         CLRR _R1R0
066A   7600           03541         CLRR _R1R0+1
066B   7600           03542         CLRR _R2 ;
066C   5A00           03543         MOVR _R5
066D   F587           03544         JBCLR PFLAG,2 ;00
066E   000C           03545         RETURN
066F   3C10           03546         MOVAI 16
0670   5600           03547         MOVRA _R6 ;16
0671   5A00           03548         MOVR _R3R4+1
0672   E587           03549         JBSET PFLAG,2 ;000
0673   A000           03550         GOTO DIV_LOOP
0674   5A00           03551         MOVR _R3R4
0675   F587           03552         JBCLR PFLAG,2
0676   000C           03553         RETURN
0677                  03554 DIV_LOOP:
                      03555         ;
0677   D187           03556         BCLR PFLAG,0
0678   5200           03557         RLR _R3R4 ;11
0679   5200           03558         RLR _R3R4+1
067A   5200           03559         RLR _R2
067B   5200           03560         RLR _R7
067C   5800           03561         MOVAR _R5 ;1
067D   4800           03562         RSUBAR _R2
067E   F187           03563         JBCLR PFLAG,0
067F   A000           03564         GOTO UPDATA_DIV
0680   F000           03565         JBCLR _R7,0
0681   A000           03566         GOTO $+3
0682   D187           03567         BCLR PFLAG,0 ;10
0683   A000           03568         GOTO R0_SHIFT
0684                  03569 UPDATA_DIV:
0684   5600           03570         MOVRA _R2
0685   C187           03571         BSET PFLAG,0 ;11
0686                  03572 R0_SHIFT:
0686   5200           03573         RLR _R1R0 ;11
0687   5200           03574         RLR _R1R0+1
0688   6A00           03575         DJZR _R6 ;
0689   A000           03576         GOTO DIV_LOOP
                      03577         
068A   000C           03578         RETURN  
                      03579 ; exit point of _TwobyteDIVone
                      03580 
                      03581 ;***
                      03582 ;  pBlock Stats: dbName = C
                      03583 ;***
                      03584 ;entry:  _delay_us      ;Function start
                      03585 ; 2 exit points
                      03586 ;has an exit
                      03587 ;3 compiler assigned registers:
                      03588 ;   r0x1040
                      03589 ;   STK00
                      03590 ;   r0x1041
                      03591 ;; Starting pCode block
068B                  03592 _delay_us       ;Function start
                      03593 ; 2 exit points
                      03594 ;       .line   172; "main.c"   void delay_us(unsigned int time_delay)
068B   5600           03595         MOVRA   r0x1040
068C   5800           03596         MOVAR   STK00
068D   5600           03597         MOVRA   r0x1041
068E                  03598 _00105_DS_
                      03599 ;       .line   174; "main.c"   while( time_delay!=0 )                                                                                                                                                                                  
068E   5800           03600         MOVAR   r0x1041
068F   5C00           03601         ORAR    r0x1040
0690   F587           03602         JBCLR   PFLAG,2
0691   A000           03603         GOTO    _00108_DS_
                      03604 ;       .line   176; "main.c"   time_delay--;
0692   3CFF           03605         MOVAI   0xff
0693   7E00           03606         ADDRA   r0x1041
0694   E187           03607         JBSET   PFLAG,0
0695   6E00           03608         DECR    r0x1040
                      03609 ;       .line   177; "main.c"   ClrWdt();
0696   000E           03610         clrwdt
0697   A000           03611         GOTO    _00105_DS_
0698                  03612 _00108_DS_
0698   000C           03613         RETURN  
                      03614 ; exit point of _delay_us
                      03615 
                      03616 
                      03617 ;       code size estimation:
                      03618 ;        1668+    0 =  1668 instructions ( 3336 byte)
                      03619 
                      03620         end
gpasm-2.0.0_beta2 (Nov  6 2017)main.asm           2018-5-29  12:06:58          PAGE  2


SYMBOL TABLE
  LABEL                             VALUE

ADCR0                             000001B0
ADCR1                             000001B1
ADCR2                             000001B6
ADRH                              000001B4
ADRL                              000001B5
AN0SEL                            000001B2
AN1SEL                            000001B3
AUCR                              000001A8
ClrRAM0                           000001F6
DIV_LOOP                          00000677
END_OF_INTERRUPT                  00000021
FSR0                              00000184
FSR1                              00000185
HIBYTE                            00000183
INDF0                             00000180
INDF1                             00000181
INDF2                             00000182
INDF3                             00000189
INTE                              0000018A
INTF                              0000018B
IOP0                              00000190
IOP1                              00000194
KBCR                              000001A9
LVDCR                             000001AF
MCR                               00000188
OEP0                              00000191
OEP1                              00000195
OSCM                              000001AE
PCL                               00000186
PDP0                              00000193
PDP1                              00000197
PFLAG                             00000187
PUP0                              00000192
PUP1                              00000196
PWM0DE                            00000198
PWM1DE                            00000199
R0_SHIFT                          00000686
STK00                             00000006
STK01                             00000005
STK02                             00000004
STK03                             00000003
STK04                             00000002
STK05                             00000001
STK06                             00000000
T0CNT                             000001A1
T0CR                              000001A0
T0DATA                            000001A3
T0LOAD                            000001A2
T1CNT                             000001A5
T1CR                              000001A4
T1DATA                            000001A7
T1LOAD                            000001A6
UPDATA_DIV                        00000684
_00105_DS_                        0000068E
_00108_DS_                        00000698
_00117_DS_                        00000640
_00120_DS_                        00000643
_00123_DS_                        00000646
_00128_DS_                        00000609
_00131_DS_                        0000060C
_00134_DS_                        0000060F
_00140_DS_                        000005C9
_00142_DS_                        000005CF
_00144_DS_                        000005D5
_00146_DS_                        000005DC
_00148_DS_                        000005E2
_00150_DS_                        000005E8
_00152_DS_                        000005EE
_00154_DS_                        000005F4
_00157_DS_                        000005FA
_00163_DS_                        00000590
_00165_DS_                        00000596
_00167_DS_                        0000059C
_00169_DS_                        000005A3
_00171_DS_                        000005A9
_00173_DS_                        000005AF
_00175_DS_                        000005B5
_00177_DS_                        000005BB
_00180_DS_                        000005C1
_00186_DS_                        0000057A
_00189_DS_                        00000584
_00192_DS_                        0000057D
_00194_DS_                        0000055B
_00196_DS_                        00000586
_00198_DS_                        00000588
_00220_DS_                        00000494
_00223_DS_                        0000049B
_00229_DS_                        00000426
_00230_DS_                        00000435
_00238_DS_                        000003F9
_00242_DS_                        000003DE
_00246_DS_                        000003C3
_00250_DS_                        000003B0
_00252_DS_                        00000410
_00270_DS_                        000003A6
_00271_DS_                        000003BE
_00272_DS_                        000003CD
_00273_DS_                        000003D9
_00274_DS_                        000003E8
_00275_DS_                        000003F4
_00276_DS_                        00000403
_00281_DS_                        0000037F
_00285_DS_                        00000392
_00293_DS_                        00000368
_00296_DS_                        00000353
_00298_DS_                        0000037C
_00304_DS_                        0000033A
_00308_DS_                        0000032D
_00311_DS_                        0000033D
_00321_DS_                        000002C7
_00322_DS_                        000002CF
_00324_DS_                        000002D7
_00325_DS_                        000002DD
_00329_DS_                        000002E6
_00333_DS_                        000002EB
_00335_DS_                        00000302
_00340_DS_                        000002E1
_00341_DS_                        00000314
_00344_DS_                        00000319
_00354_DS_                        0000021C
_00355_DS_                        0000021D
_00359_DS_                        00000298
_00362_DS_                        0000028A
_00365_DS_                        0000027C
_00368_DS_                        0000026D
_00371_DS_                        0000025F
_00374_DS_                        00000251
_00377_DS_                        00000242
_00380_DS_                        00000234
_00383_DS_                        00000226
_00385_DS_                        000002A4
_00396_DS_                        000001D8
_00404_DS_                        00000158
_00407_DS_                        00000131
_00408_DS_                        0000017E
_00410_DS_                        00000198
_00414_DS_                        000001B5
_00416_DS_                        000001A4
_00417_DS_                        000001A9
_00421_DS_                        0000010A
_00422_DS_                        000001C5
_00425_DS_                        000001D0
_00445_DS_                        00000103
_00446_DS_                        00000193
_00448_DS_                        000001A2
_00449_DS_                        000001AF
_00450_DS_                        000001BF
_00451_DS_                        000001CB
_00460_DS_                        000000E0
_00466_DS_                        000000D5
_00472_DS_                        000000AA
_00475_DS_                        000000BC
_00480_DS_                        000000AD
_00481_DS_                        000000BE
_00492_DS_                        000000A5
_00493_DS_                        000000B7
_00501_DS_                        0000005E
_00505_DS_                        0000006E
_00507_DS_                        00000076
_00511_DS_                        0000007F
_00515_DS_                        00000015
_00521_DS_                        00000017
_00525_DS_                        0000001E
_ABuf                             00000000
_ADCR0                            00000000
_ADCR0bits                        00000000
_ADCR1                            00000000
_ADCR1bits                        00000000
_ADCR2                            00000000
_ADCR2bits                        00000000
_ADRH                             00000000
_ADRHbits                         00000000
_ADRL                             00000000
_ADRLbits                         00000000
_AN0SEL                           00000000
_AN0SELbits                       00000000
_AN1SEL                           00000000
_AN1SELbits                       00000000
_AUCR                             00000000
_AUCRbits                         00000000
_AverageADCData                   000001D1
_BAT_AD                           00000000
_BAT_AD_copy                      00000000
_CONFIG0                          00008000
_CONFIG1                          00008001
_DivResult                        00000000
_Drive_lcd                        00000212
_FLAG1                            00000000
_FSR0                             00000000
_FSR0bits                         00000000
_FSR1                             00000000
_FSR1bits                         00000000
_HIBYTE                           00000000
_HIBYTEbits                       00000000
_INDF0                            00000000
_INDF0bits                        00000000
_INDF1                            00000000
_INDF1bits                        00000000
_INDF2                            00000000
_INDF2bits                        00000000
_INDF3                            00000000
_INDF3bits                        00000000
_INTE                             00000000
_INTEbits                         00000000
_INTF                             00000000
_INTFbits                         00000000
_IOP0                             00000000
_IOP0bits                         00000000
_IOP1                             00000000
_IOP1bits                         00000000
_KBCR                             00000000
_KBCRbits                         00000000
_LCD_COPY                         00000000
_LCD_DispALL                      0000037D
_LED7Code10                       0000079C
_LED7Code11                       000007A6
_LED7Code20                       000007B0
_LED7Code21                       000007BA
_LED7Code30                       000007C4
_LED7Code31                       000007CE
_LED7Code40                       000007D8
_LED7Code41                       000007E2
_LED7Code50                       000007EC
_LED7Code51                       000007F6
_LVDCR                            00000000
_LVDCRbits                        00000000
_Lcd_seg                          00000000
_MCR                              00000000
_MCRbits                          00000000
_Milage_temp                      00000000
_OEP0                             00000000
_OEP0bits                         00000000
_OEP1                             00000000
_OEP1bits                         00000000
_OSCM                             00000000
_OSCMbits                         00000000
_PAC                              00000000
_PCL                              00000000
_PCLbits                          00000000
_PDP0                             00000000
_PDP0bits                         00000000
_PDP1                             00000000
_PDP1bits                         00000000
_PFLAG                            00000000
_PFLAGBuf                         00000000
_PFLAGbits                        00000000
_PUP0                             00000000
_PUP0bits                         00000000
_PUP1                             00000000
_PUP1bits                         00000000
_PWM0DE                           00000000
_PWM0DEbits                       00000000
_PWM1DE                           00000000
_PWM1DEbits                       00000000
_R1R0                             00000000
_R2                               00000000
_R3R4                             00000000
_R5                               00000000
_R6                               00000000
_R7                               00000000
_ShowSpeed                        00000000
_SpdInt                           00000000
_SpeedTest                        00000000
_Stalls_Bat                       00000000
_SysInit                          000001F5
_T0CNT                            00000000
_T0CNTbits                        00000000
_T0CR                             00000000
_T0CRbits                         00000000
_T0DATA                           00000000
_T0DATAbits                       00000000
_T0LOAD                           00000000
_T0LOADbits                       00000000
_T1CNT                            00000000
_T1CNTbits                        00000000
_T1CR                             00000000
_T1CRbits                         00000000
_T1DATA                           00000000
_T1DATAbits                       00000000
_T1LOAD                           00000000
_T1LOADbits                       00000000
_TwobyteDIVone                    00000669
_VD_flag1                         00000000
_VD_flag2                         00000000
_VL_flag1                         00000000
_VL_flag2                         00000000
_VR_count                         00000000
_VR_flag1                         00000000
_VR_flag2                         00000000
__32P7511                         00000001
__divuint                         00000000
__gptrget1                        00000000
__mulint                          00000000
__sdcc_interrupt                  00000008
_adc_loop_bat                     00000632
_adc_loop_speed                   000005FB
_bat_how_many                     00000393
_choice_bat                       0000031A
_choice_vol                       00000000
_clrb_io                          00000589
_code_main_0681                   00000681
_delay_us                         0000068B
_disp_num_1                       0000051F
_disp_num_2                       000004F3
_disp_num_3                       00000463
_disp_num_4                       0000049C
_disp_num_5                       000004C8
_disp_speed_trip_bat              00000411
_int_isr                          00000008
_learn_while_type                 0000033E
_main                             00000000
_main_bat_km_qh_cnt_1_156         00000016
_main_disp_all_cnt_1_156          00000013
_main_disp_all_flag_1_156         00000014
_main_disp_flag_1_156             00000015
_mux_ab                           000002A5
_mux_ioport                       000002AD
_odo_handle                       000000C0
_scan_cnt                         00000000
_seg_bit                          00000000
_set_normal_seg                   0000054A
_setb_io                          000005C2
_speed_AD                         00000000
_speed_handle                     000000E1
_speed_handle_Speed_1_136         00000011
_sub_km                           00000000
_sys_bat                          00000085
_time1_cnt                        00000000
_time1_cnt1                       00000000
_voltage                          00000000
_voltage_TY_flag                  00000000
_voltage_copy                     00000000
r0x1040                           00000001
r0x1041                           00000000
r0x1042                           00000003
r0x1043                           00000002
r0x1044                           00000006
r0x1045                           00000007
r0x1046                           00000004
r0x1047                           00000005
r0x1048                           00000008
r0x1049                           00000009
r0x104A                           0000000A
r0x104B                           0000000B
r0x104C                           0000000C
r0x104D                           0000000D
r0x104E                           0000000E
r0x104F                           0000000F
r0x1050                           00000010
ADCHS0                            ADCR0,4
ADCHS1                            ADCR0,5
ADCHS2                            ADCR0,6
ADCHS3                            ADCR0,7
ADCKS0                            ADCR0,2
ADCKS1                            ADCR0,3
ADEOC                             ADCR0,1
ADIE                              INTE,6
ADIF                              INTF,6
ADON                              ADCR0,0
ADPT0                             ADCR2,0
ADPT1                             ADCR2,1
ADPT2                             ADCR2,2
ADPT3                             ADCR2,3
ADR0                              ADRL,0
ADR1                              ADRL,1
ADR10                             ADRH,6
ADR11                             ADRH,7
ADR2                              ADRL,2
ADR3                              ADRL,3
ADR4                              ADRH,0
ADR5                              ADRH,1
ADR6                              ADRH,2
ADR7                              ADRH,3
ADR8                              ADRH,4
ADR9                              ADRH,5
BUZ0OE                            T0CR,5
BUZ1OE                            T1CR,5
C                                 PFLAG,0
CLKS                              OSCM,2
DC                                PFLAG,1
DRVEN                             AUCR,7
FSR00                             FSR0,0
FSR01                             FSR0,1
FSR02                             FSR0,2
FSR03                             FSR0,3
FSR04                             FSR0,4
FSR05                             FSR0,5
FSR06                             FSR0,6
FSR07                             FSR0,7
FSR10                             FSR1,0
FSR11                             FSR1,1
FSR12                             FSR1,2
FSR13                             FSR1,3
FSR14                             FSR1,4
FSR15                             FSR1,5
FSR16                             FSR1,6
FSR17                             FSR1,7
GIE                               MCR,7
HFEN                              OSCM,0
HIBYTE0                           HIBYTE,0
HIBYTE1                           HIBYTE,1
HIBYTE2                           HIBYTE,2
HIBYTE3                           HIBYTE,3
HIBYTE4                           HIBYTE,4
HIBYTE5                           HIBYTE,5
HIBYTE6                           HIBYTE,6
HIBYTE7                           HIBYTE,7
INDF00                            INDF0,0
INDF01                            INDF0,1
INDF02                            INDF0,2
INDF03                            INDF0,3
INDF04                            INDF0,4
INDF05                            INDF0,5
INDF06                            INDF0,6
INDF07                            INDF0,7
INDF10                            INDF1,0
INDF11                            INDF1,1
INDF12                            INDF1,2
INDF13                            INDF1,3
INDF14                            INDF1,4
INDF15                            INDF1,5
INDF16                            INDF1,6
INDF17                            INDF1,7
INDF20                            INDF2,0
INDF21                            INDF2,1
INDF22                            INDF2,2
INDF23                            INDF2,3
INDF24                            INDF2,4
INDF25                            INDF2,5
INDF26                            INDF2,6
INDF27                            INDF2,7
INDF30                            INDF3,0
INDF31                            INDF3,1
INDF32                            INDF3,2
INDF33                            INDF3,3
INDF34                            INDF3,4
INDF35                            INDF3,5
INDF36                            INDF3,6
INDF37                            INDF3,7
INT0IE                            INTE,2
INT0IF                            INTF,2
INT1IE                            INTE,3
INT1IF                            INTF,3
KBCR0                             KBCR,0
KBCR1                             KBCR,1
KBCR2                             KBCR,2
KBCR3                             KBCR,3
KBCR4                             KBCR,4
KBCR5                             KBCR,5
KBCR6                             KBCR,6
KBIE                              INTE,4
KBIF                              INTF,4
LFEN                              OSCM,1
LVDEN                             LVDCR,7
LVDF                              LVDCR,0
LVDIE                             INTE,5
LVDIF                             INTF,5
LVDS0                             LVDCR,3
LVDS1                             LVDCR,4
LVDS2                             LVDCR,5
LVDS3                             LVDCR,6
MINT00                            MCR,0
MINT01                            MCR,1
MINT10                            MCR,2
MINT11                            MCR,3
NMOS0ON                           AUCR,0
P00ANS                            AN0SEL,0
P00D                              IOP0,0
P00OE                             OEP0,0
P00PD                             PDP0,0
P00PU                             PUP0,0
P01ANS                            AN0SEL,1
P01D                              IOP0,1
P01DV                             AUCR,3
P01OE                             OEP0,1
P01PD                             PDP0,1
P01PU                             PUP0,1
P02ANS                            AN0SEL,2
P02D                              IOP0,2
P02OE                             OEP0,2
P02PD                             PDP0,2
P02PU                             PUP0,2
P03ANS                            AN0SEL,3
P03D                              IOP0,3
P03OE                             OEP0,3
P03PD                             PDP0,3
P03PU                             PUP0,3
P04ANS                            AN0SEL,4
P04D                              IOP0,4
P04OE                             OEP0,4
P04PD                             PDP0,4
P04PU                             PUP0,4
P04WP                             AUCR,5
P05ANS                            AN0SEL,5
P05D                              IOP0,5
P05OE                             OEP0,5
P05PD                             PDP0,5
P05PU                             PUP0,5
P06ANS                            AN0SEL,6
P06D                              IOP0,6
P06OE                             OEP0,6
P06PD                             PDP0,6
P06PU                             PUP0,6
P10ANS                            AN1SEL,0
P10D                              IOP1,0
P10OE                             OEP1,0
P10PD                             PDP1,0
P10PU                             PUP1,0
P11ANS                            AN1SEL,1
P11D                              IOP1,1
P11DV                             AUCR,2
P11OE                             OEP1,1
P11PD                             PDP1,1
P11PU                             PUP1,1
P12ANS                            AN1SEL,2
P12D                              IOP1,2
P12OE                             OEP1,2
P12PD                             PDP1,2
P12PU                             PUP1,2
P13ANS                            AN1SEL,3
P13D                              IOP1,3
P13OE                             OEP1,3
P13PD                             PDP1,3
P13PU                             PUP1,3
P13SP                             AUCR,4
P14ANS                            AN1SEL,4
P14D                              IOP1,4
P14OE                             OEP1,4
P14PU                             PUP1,4
P15ANS                            AN1SEL,5
P15D                              IOP1,5
P15OE                             OEP1,5
P15PD                             PDP1,5
P15PU                             PUP1,5
P16ANS                            AN1SEL,6
P16D                              IOP1,6
P16OE                             OEP1,6
P16PD                             PDP1,6
P16PU                             PUP1,6
PC0                               PCL,0
PC1                               PCL,1
PC2                               PCL,2
PC3                               PCL,3
PC4                               PCL,4
PC5                               PCL,5
PC6                               PCL,6
PC7                               PCL,7
PD                                MCR,4
PMODE0                            PWM0DE,3
PMODE1                            PWM1DE,3
PMOS1ON                           AUCR,1
PWM0DE0                           PWM0DE,0
PWM0DE1                           PWM0DE,1
PWM0DE2                           PWM0DE,2
PWM0INV                           PWM0DE,4
PWM0OE                            T0CR,6
PWM1DE0                           PWM1DE,0
PWM1DE1                           PWM1DE,1
PWM1DE2                           PWM1DE,2
PWM1INV                           PWM1DE,4
PWM1OE                            T1CR,6
SPDSL                             AUCR,6
STBH                              OSCM,4
STBL                              OSCM,5
T0C0                              T0CNT,0
T0C1                              T0CNT,1
T0C2                              T0CNT,2
T0C3                              T0CNT,3
T0C4                              T0CNT,4
T0C5                              T0CNT,5
T0C6                              T0CNT,6
T0C7                              T0CNT,7
T0DATA0                           T0DATA,0
T0DATA1                           T0DATA,1
T0DATA2                           T0DATA,2
T0DATA3                           T0DATA,3
T0DATA4                           T0DATA,4
T0DATA5                           T0DATA,5
T0DATA6                           T0DATA,6
T0DATA7                           T0DATA,7
T0IE                              INTE,0
T0IF                              INTF,0
T0LOAD0                           T0LOAD,0
T0LOAD1                           T0LOAD,1
T0LOAD2                           T0LOAD,2
T0LOAD3                           T0LOAD,3
T0LOAD4                           T0LOAD,4
T0LOAD5                           T0LOAD,5
T0LOAD6                           T0LOAD,6
T0LOAD7                           T0LOAD,7
T0PR0                             T0CR,0
T0PR1                             T0CR,1
T0PR2                             T0CR,2
T0PTS0                            T0CR,3
T0PTS1                            T0CR,4
T1C0                              T1CNT,0
T1C1                              T1CNT,1
T1C2                              T1CNT,2
T1C3                              T1CNT,3
T1C4                              T1CNT,4
T1C5                              T1CNT,5
T1C6                              T1CNT,6
T1C7                              T1CNT,7
T1DATA0                           T1DATA,0
T1DATA1                           T1DATA,1
T1DATA2                           T1DATA,2
T1DATA3                           T1DATA,3
T1DATA4                           T1DATA,4
T1DATA5                           T1DATA,5
T1DATA6                           T1DATA,6
T1DATA7                           T1DATA,7
T1IE                              INTE,1
T1IF                              INTF,1
T1LOAD0                           T1LOAD,0
T1LOAD1                           T1LOAD,1
T1LOAD2                           T1LOAD,2
T1LOAD3                           T1LOAD,3
T1LOAD4                           T1LOAD,4
T1LOAD5                           T1LOAD,5
T1LOAD6                           T1LOAD,6
T1LOAD7                           T1LOAD,7
T1PR0                             T1CR,0
T1PR1                             T1CR,1
T1PR2                             T1CR,2
T1PTS0                            T1CR,3
T1PTS1                            T1CR,4
TC0EN                             T0CR,7
TC1EN                             T1CR,7
TO                                MCR,5
VRS0                              ADCR1,0
VRS1                              ADCR1,1
VRS2                              ADCR1,2
Z                                 PFLAG,2

Errors   :     0
Warnings :     0 reported,     0 suppressed
Messages :     0 reported,     0 suppressed

