gplink-2.0.0_beta2 (Nov  6 2017)
Listing File Generated: 2018-3-19  15:06:04
 
 
Address  Value    Disassembly              Source
-------  -----    -----------              ------
                                           ;--------------------------------------------------------
                                           ; File Created by SN-SDCC : SinoMCU ANSI-C Compiler
                                           ; Version 1.1.0 (Dec 19 2017) (MINGW32)
                                           ; This file was generated Mon Mar 19 15:06:03 2018
                                           ;--------------------------------------------------------
                                           ; MC32 port for the RISC core
                                           ;--------------------------------------------------------
                                           ;	.file	"123.c"
                                           	list	p=4K7323
                                           	radix dec
                                           	include "4K7323.inc"
                                           		LIST
                                           ;4K7323.inc    Standard Header File, Version 1.00 by Sinomcu
                                           		NOLIST
                                           ;--------------------------------------------------------
                                           ; external declarations
                                           ;--------------------------------------------------------
                                           	extern	_Sub_GetAdc
                                           	extern	_Sub_LedDisp
                                           	extern	_PFLAGbits
                                           	extern	_MCRbits
                                           	extern	_INTEbits
                                           	extern	_INTFbits
                                           	extern	_OSCMbits
                                           	extern	_IOP0bits
                                           	extern	_OEP0bits
                                           	extern	_PUP0bits
                                           	extern	_IOP1bits
                                           	extern	_OEP1bits
                                           	extern	_PUP1bits
                                           	extern	_IOP2bits
                                           	extern	_OEP2bits
                                           	extern	_PUP2bits
                                           	extern	_T0CRbits
                                           	extern	_T1CRbits
                                           	extern	_T2CRbits
                                           	extern	_T3CRbits
                                           	extern	_PWMCR0bits
                                           	extern	_PWMCR1bits
                                           	extern	_ADCR0bits
                                           	extern	_ADCR1bits
                                           	extern	_ANSELbits
                                           	extern	_LEDCR0bits
                                           	extern	_LEDCR1bits
                                           	extern	_LCDCR0bits
                                           	extern	_LCDCR1bits
                                           	extern	_LCDIOS0bits
                                           	extern	_LCDIOS1bits
                                           	extern	_LCDIOS2bits
                                           	extern	_INDF
                                           	extern	_INDF0
                                           	extern	_INDF1
                                           	extern	_INDF2
                                           	extern	_HIBYTE
                                           	extern	_FSR
                                           	extern	_FSR0
                                           	extern	_FSR1
                                           	extern	_PCL
                                           	extern	_STATUS
                                           	extern	_PFLAG
                                           	extern	_MCR
                                           	extern	_INDF3
                                           	extern	_INTE
                                           	extern	_INTF
                                           	extern	_OSCM
                                           	extern	_IOP0
                                           	extern	_OEP0
                                           	extern	_PUP0
                                           	extern	_IOP1
                                           	extern	_OEP1
                                           	extern	_PUP1
                                           	extern	_IOP2
                                           	extern	_OEP2
                                           	extern	_PUP2
                                           	extern	_T0CR
                                           	extern	_T0CNT
                                           	extern	_T0LOAD
                                           	extern	_T0DATA
                                           	extern	_T1CR
                                           	extern	_T1CNT
                                           	extern	_T1LOAD
                                           	extern	_T1DATA
                                           	extern	_T2CR
                                           	extern	_T2CNT
                                           	extern	_T2LOAD
                                           	extern	_T2DATA
                                           	extern	_T3CR
                                           	extern	_T3CNT
                                           	extern	_T3LOAD
                                           	extern	_PWM0DE
                                           	extern	_PWM1DE
                                           	extern	_PWM2DE
                                           	extern	_PWMCR0
                                           	extern	_PWMCR1
                                           	extern	_ADCR0
                                           	extern	_ADCR1
                                           	extern	_ADRH
                                           	extern	_ADRL
                                           	extern	_ANSEL
                                           	extern	_LEDCR0
                                           	extern	_LEDCR1
                                           	extern	_LCDCR0
                                           	extern	_LCDCR1
                                           	extern	_LCDIOS0
                                           	extern	_LCDIOS1
                                           	extern	_LCDIOS2
                                           	extern	__mulchar
                                           	extern	__gptrget1
                                           ;--------------------------------------------------------
                                           ; global declarations
                                           ;--------------------------------------------------------
                                           	global	_Sub_PT6964PowerOnAllDisp2s
                                           	global	_Sub_TA6932Disp
                                           	global	_Sub_Buzzer
                                           	global	_Sub_KeyScan
                                           	global	_Sub_Initial
                                           	global	_Sub_IoInitial
                                           	global	_Sub_AlarmEvent
                                           	global	_Sub_Write1302
                                           	global	_Sub_Read1302
                                           	global	_main
                                           	global	_Sub_LoopDelay
                                           	global	_Sub_TC2Initial
                                           	global	_Sub_Up_AlLongKeyGetAlarmSetMode
                                           	global	_Sub_SetAlarmAddTimer
                                           	global	_Sub_Up_AlShortLongKeyAlarmSet
                                           	global	_Sub_RealTimeClockAdd
                                           	global	_Sub_Up_AlShortLongKeyClockSet
                                           	global	_Sub_SetAlarmDecTimer
                                           	global	_Sub_DownShortLongKeyAlarmSet
                                           	global	_Sub_RealTimeClockDec
                                           	global	_Sub_DownShortLongKeyClockSet
                                           	global	_Sub_SetLongKeyGetRealTimeClockSetMode
                                           	global	_Sub_SetKeyRealTimeClockEnter
                                           	global	_Sub_SetKeyAlarmEnter
                                           	global	_Sub_BuzzerBBB
                                           	global	_Sub_SendByteToPT6964
                                           	global	_Sub_GetByteFromPT6964
                                           	global	_Sub_SendDispDataToTA6932
                                           	global	_int_isr
                                           	global	_UserFlag
                                           	global	_UserFlag1
                                           	global	_GV_2msClock
                                           	global	_GV_10msClock
                                           	global	_GV_100msClock
                                           	global	_GV_200msClock
                                           	global	_GV_250msClock
                                           	global	_GV_500msClock
                                           	global	_GV_BuzzerPeriod
                                           	global	_GV_BuzzerBBPeriod
                                           	global	_GV_KeyDebounce
                                           	global	_GV_PreKey
                                           	global	_GV_CurKey
                                           	global	_GV_LongKeyTimer
                                           	global	_GV_Mode
                                           	global	_GV_RealTimeClockSetStep
                                           	global	_GV_AlarmClockSetStep
                                           	global	_GV_BuzzerIndex
                                           	global	_GV_BuzzerDuty
                                           	global	_GV_GetByteFromDs1302
                                           	global	_GV_GetPT6964Data
                                           	global	_GV_SetYearSingleDig
                                           	global	_GV_SetYearTenDig
                                           	global	_GV_SetYearHundredsDig
                                           	global	_GV_SetYearthousandDig
                                           	global	_GV_RunYearSingleDig
                                           	global	_GV_RunYearTenDig
                                           	global	_GV_RunYearHundredsDig
                                           	global	_GV_RunYearthousandDig
                                           	global	_GV_SetMonthSingleDig
                                           	global	_GV_SetMonthTenDig
                                           	global	_GV_RunMonthSingleDig
                                           	global	_GV_RunMonthTenDig
                                           	global	_GV_SetDaySingleDig
                                           	global	_GV_SetDayTenDig
                                           	global	_GV_RunDaySingleDig
                                           	global	_GV_RunDayTenDig
                                           	global	_GV_SetRealTimeClockHrSingleDig
                                           	global	_GV_SetRealTimeClockHrTenDig
                                           	global	_GV_SetRealTimeClockMinSingleDig
                                           	global	_GV_SetRealTimeClockMinTenDig
                                           	global	_GV_RunRealTimeClockHrSingleDig
                                           	global	_GV_RunRealTimeClockHrTenDig
                                           	global	_GV_RunRealTimeClockMinSingleDig
                                           	global	_GV_RunRealTimeClockMinTenDig
                                           	global	_GV_SetAlarmClockHrSingleDig
                                           	global	_GV_SetAlarmClockHrTenDig
                                           	global	_GV_SetAlarmClockMinSingleDig
                                           	global	_GV_SetAlarmClockMinTenDig
                                           	global	_GV_RunAlarmClockHrSingleDig
                                           	global	_GV_RunAlarmClockHrTenDig
                                           	global	_GV_RunAlarmClockMinSingleDig
                                           	global	_GV_RunAlarmClockMinTenDig
                                           	global	_GV_15sNoOperationCnt
                                           	global	_GV_DisplayBrightnessLevel
                                           	global	_GV_SnoozeTimer
                                           	global	_DATA_ID
                                           	global	_LV_Temp
                                           	global	_LV_Dig1_SG1_8
                                           	global	_LV_Dig2_SG1_8
                                           	global	_LV_Dig3_SG1_8
                                           	global	_LV_Dig4_SG1_8
                                           	global	_LV_Dig5_SG1_8
                                           	global	_LV_Dig6_SG1_8
                                           	global	_LV_Dig7_SG1_8
                                           	global	_LV_Dig8_SG1_8
                                           	global	_LV_Dig9_SG1_8
                                           	global	_LV_Dig10_SG1_8
                                           	global	_LV_Dig11_SG1_8
                                           	global	_LV_Dig12_SG1_8
                                           	global	_LV_Dig13_SG1_8
                                           	global	_LV_TempA
                                           	global	_LV_TempB
                                           	global	_ABuf
                                           	global	_StatusBuf
                                           	global	_FSR_TEMP
                                           	global	_C_NumberTable
                                           
                                           	global STK06
                                           	global STK05
                                           	global STK04
                                           	global STK03
                                           	global STK02
                                           	global STK01
                                           	global STK00
                                           
                                           sharebank udata_ovr 0x0000
                                           STK06	res 1
                                           STK05	res 1
                                           STK04	res 1
                                           STK03	res 1
                                           STK02	res 1
                                           STK01	res 1
                                           STK00	res 1
                                           
                                           ;--------------------------------------------------------
                                           ; global definitions
                                           ;--------------------------------------------------------
                                           UD_123_0	udata
                                           _UserFlag	res	1
                                           
                                           UD_123_1	udata
                                           _UserFlag1	res	1
                                           
                                           UD_123_2	udata
                                           _GV_2msClock	res	1
                                           
                                           UD_123_3	udata
                                           _GV_10msClock	res	1
                                           
                                           UD_123_4	udata
                                           _GV_100msClock	res	1
                                           
                                           UD_123_5	udata
                                           _GV_200msClock	res	1
                                           
                                           UD_123_6	udata
                                           _GV_250msClock	res	1
                                           
                                           UD_123_7	udata
                                           _GV_500msClock	res	1
                                           
                                           UD_123_8	udata
                                           _GV_BuzzerPeriod	res	1
                                           
                                           UD_123_9	udata
                                           _GV_BuzzerBBPeriod	res	1
                                           
                                           UD_123_10	udata
                                           _GV_KeyDebounce	res	1
                                           
                                           UD_123_11	udata
                                           _GV_PreKey	res	1
                                           
                                           UD_123_12	udata
                                           _GV_CurKey	res	1
                                           
                                           UD_123_13	udata
                                           _GV_LongKeyTimer	res	2
                                           
                                           UD_123_14	udata
                                           _GV_Mode	res	1
                                           
                                           UD_123_15	udata
                                           _GV_RealTimeClockSetStep	res	1
                                           
                                           UD_123_16	udata
                                           _GV_AlarmClockSetStep	res	1
                                           
                                           UD_123_17	udata
                                           _GV_BuzzerIndex	res	1
                                           
                                           UD_123_18	udata
                                           _GV_BuzzerDuty	res	1
                                           
                                           UD_123_19	udata
                                           _GV_GetByteFromDs1302	res	1
                                           
                                           UD_123_20	udata
                                           _GV_GetPT6964Data	res	1
                                           
                                           UD_123_21	udata
                                           _GV_SetYearSingleDig	res	1
                                           
                                           UD_123_22	udata
                                           _GV_SetYearTenDig	res	1
                                           
                                           UD_123_23	udata
                                           _GV_SetYearHundredsDig	res	1
                                           
                                           UD_123_24	udata
                                           _GV_SetYearthousandDig	res	1
                                           
                                           UD_123_25	udata
                                           _GV_RunYearSingleDig	res	1
                                           
                                           UD_123_26	udata
                                           _GV_RunYearTenDig	res	1
                                           
                                           UD_123_27	udata
                                           _GV_RunYearHundredsDig	res	1
                                           
                                           UD_123_28	udata
                                           _GV_RunYearthousandDig	res	1
                                           
                                           UD_123_29	udata
                                           _GV_SetMonthSingleDig	res	1
                                           
                                           UD_123_30	udata
                                           _GV_SetMonthTenDig	res	1
                                           
                                           UD_123_31	udata
                                           _GV_RunMonthSingleDig	res	1
                                           
                                           UD_123_32	udata
                                           _GV_RunMonthTenDig	res	1
                                           
                                           UD_123_33	udata
                                           _GV_SetDaySingleDig	res	1
                                           
                                           UD_123_34	udata
                                           _GV_SetDayTenDig	res	1
                                           
                                           UD_123_35	udata
                                           _GV_RunDaySingleDig	res	1
                                           
                                           UD_123_36	udata
                                           _GV_RunDayTenDig	res	1
                                           
                                           UD_123_37	udata
                                           _GV_SetRealTimeClockHrSingleDig	res	1
                                           
                                           UD_123_38	udata
                                           _GV_SetRealTimeClockHrTenDig	res	1
                                           
                                           UD_123_39	udata
                                           _GV_SetRealTimeClockMinSingleDig	res	1
                                           
                                           UD_123_40	udata
                                           _GV_SetRealTimeClockMinTenDig	res	1
                                           
                                           UD_123_41	udata
                                           _GV_RunRealTimeClockHrSingleDig	res	1
                                           
                                           UD_123_42	udata
                                           _GV_RunRealTimeClockHrTenDig	res	1
                                           
                                           UD_123_43	udata
                                           _GV_RunRealTimeClockMinSingleDig	res	1
                                           
                                           UD_123_44	udata
                                           _GV_RunRealTimeClockMinTenDig	res	1
                                           
                                           UD_123_45	udata
                                           _GV_SetAlarmClockHrSingleDig	res	1
                                           
                                           UD_123_46	udata
                                           _GV_SetAlarmClockHrTenDig	res	1
                                           
                                           UD_123_47	udata
                                           _GV_SetAlarmClockMinSingleDig	res	1
                                           
                                           UD_123_48	udata
                                           _GV_SetAlarmClockMinTenDig	res	1
                                           
                                           UD_123_49	udata
                                           _GV_RunAlarmClockHrSingleDig	res	1
                                           
                                           UD_123_50	udata
                                           _GV_RunAlarmClockHrTenDig	res	1
                                           
                                           UD_123_51	udata
                                           _GV_RunAlarmClockMinSingleDig	res	1
                                           
                                           UD_123_52	udata
                                           _GV_RunAlarmClockMinTenDig	res	1
                                           
                                           UD_123_53	udata
                                           _GV_15sNoOperationCnt	res	1
                                           
                                           UD_123_54	udata
                                           _GV_DisplayBrightnessLevel	res	1
                                           
                                           UD_123_55	udata
                                           _GV_SnoozeTimer	res	1
                                           
                                           UD_123_56	udata
                                           _DATA_ID	res	2
                                           
                                           UD_123_57	udata
                                           _LV_Temp	res	2
                                           
                                           UD_123_58	udata
                                           _LV_Dig1_SG1_8	res	1
                                           
                                           UD_123_59	udata
                                           _LV_Dig2_SG1_8	res	1
                                           
                                           UD_123_60	udata
                                           _LV_Dig3_SG1_8	res	1
                                           
                                           UD_123_61	udata
                                           _LV_Dig4_SG1_8	res	1
                                           
                                           UD_123_62	udata
                                           _LV_Dig5_SG1_8	res	1
                                           
                                           UD_123_63	udata
                                           _LV_Dig6_SG1_8	res	1
                                           
                                           UD_123_64	udata
                                           _LV_Dig7_SG1_8	res	1
                                           
                                           UD_123_65	udata
                                           _LV_Dig8_SG1_8	res	1
                                           
                                           UD_123_66	udata
                                           _LV_Dig9_SG1_8	res	1
                                           
                                           UD_123_67	udata
                                           _LV_Dig10_SG1_8	res	1
                                           
                                           UD_123_68	udata
                                           _LV_Dig11_SG1_8	res	1
                                           
                                           UD_123_69	udata
                                           _LV_Dig12_SG1_8	res	1
                                           
                                           UD_123_70	udata
                                           _LV_Dig13_SG1_8	res	1
                                           
                                           UD_123_71	udata
                                           _LV_TempA	res	1
                                           
                                           UD_123_72	udata
                                           _LV_TempB	res	1
                                           
                                           UD_123_73	udata
                                           _ABuf	res	1
                                           
                                           UD_123_74	udata
                                           _StatusBuf	res	1
                                           
                                           UD_123_75	udata
                                           _FSR_TEMP	res	1
                                           
                                           ;--------------------------------------------------------
                                           ; absolute symbol definitions
                                           ;--------------------------------------------------------
                                           ;--------------------------------------------------------
                                           ; compiler-defined variables
                                           ;--------------------------------------------------------
                                           UDL_123_0	udata
                                           r0x105A	res	1
                                           r0x105B	res	1
                                           r0x104B	res	1
                                           r0x104C	res	1
                                           r0x1050	res	1
                                           r0x1051	res	1
                                           r0x1052	res	1
                                           r0x1058	res	1
                                           r0x1059	res	1
                                           r0x1053	res	1
                                           r0x1054	res	1
                                           r0x1055	res	1
                                           r0x1056	res	1
                                           r0x1057	res	1
                                           r0x1048	res	1
                                           r0x1049	res	1
                                           r0x104A	res	1
                                           r0x104F	res	1
                                           r0x104D	res	1
                                           r0x104E	res	1
                                           r0x105C	res	1
                                           ;--------------------------------------------------------
                                           ; initialized data
                                           ;--------------------------------------------------------
                                           
                                           ID_123_0	code	0x0FF0
                                           _C_NumberTable
000ff0   003f     dw      0x3f             	dw 0x3f
000ff1   0006     dw      0x6              	dw 0x06
000ff2   005b     dw      0x5b             	dw 0x5b
000ff3   004f     dw      0x4f             	dw 0x4f
000ff4   0066     dw      0x66             	dw 0x66
000ff5   006d     dw      0x6d             	dw 0x6d
000ff6   007d     dw      0x7d             	dw 0x7d
000ff7   0007     dw      0x7              	dw 0x07
000ff8   007f     dw      0x7f             	dw 0x7f
000ff9   006f     dw      0x6f             	dw 0x6f
000ffa   0000     nop                      	dw 0x00
000ffb   0000     nop                      	dw 0x00
                                           
                                           
                                           ;@Allocation info for local variables in function 'main'
                                           ;@main Sub_Read1302              Allocated to registers ;size:2
                                           ;@main Sub_Write1302             Allocated to registers ;size:2
                                           ;@main Sub_Initial               Allocated to registers ;size:2
                                           ;@main Sub_GetAdc                Allocated to registers ;size:2
                                           ;@main Sub_KeyScan               Allocated to registers ;size:2
                                           ;@main Sub_AlarmEvent            Allocated to registers ;size:2
                                           ;@main Sub_TA6932Disp            Allocated to registers ;size:2
                                           ;@main Sub_LedDisp               Allocated to registers ;size:2
                                           ;@main Sub_Buzzer                Allocated to registers ;size:2
                                           ;@main Sub_PT6964PowerOnAllDisp2s Allocated to registers ;size:2
                                           ;@main Sub_IoInitial             Allocated to registers ;size:2
                                           ;@main main                      Allocated to registers ;size:2
                                           ;@main PFLAGbits                 Allocated to registers ;size:1
                                           ;@main MCRbits                   Allocated to registers ;size:1
                                           ;@main INTEbits                  Allocated to registers ;size:1
                                           ;@main INTFbits                  Allocated to registers ;size:1
                                           ;@main OSCMbits                  Allocated to registers ;size:1
                                           ;@main IOP0bits                  Allocated to registers ;size:1
                                           ;@main OEP0bits                  Allocated to registers ;size:1
                                           ;@main PUP0bits                  Allocated to registers ;size:1
                                           ;@main IOP1bits                  Allocated to registers ;size:1
                                           ;@main OEP1bits                  Allocated to registers ;size:1
                                           ;@main PUP1bits                  Allocated to registers ;size:1
                                           ;@main IOP2bits                  Allocated to registers ;size:1
                                           ;@main OEP2bits                  Allocated to registers ;size:1
                                           ;@main PUP2bits                  Allocated to registers ;size:1
                                           ;@main T0CRbits                  Allocated to registers ;size:1
                                           ;@main T1CRbits                  Allocated to registers ;size:1
                                           ;@main T2CRbits                  Allocated to registers ;size:1
                                           ;@main T3CRbits                  Allocated to registers ;size:1
                                           ;@main PWMCR0bits                Allocated to registers ;size:1
                                           ;@main PWMCR1bits                Allocated to registers ;size:1
                                           ;@main ADCR0bits                 Allocated to registers ;size:1
                                           ;@main ADCR1bits                 Allocated to registers ;size:1
                                           ;@main ANSELbits                 Allocated to registers ;size:1
                                           ;@main LEDCR0bits                Allocated to registers ;size:1
                                           ;@main LEDCR1bits                Allocated to registers ;size:1
                                           ;@main LCDCR0bits                Allocated to registers ;size:1
                                           ;@main LCDCR1bits                Allocated to registers ;size:1
                                           ;@main LCDIOS0bits               Allocated to registers ;size:1
                                           ;@main LCDIOS1bits               Allocated to registers ;size:1
                                           ;@main LCDIOS2bits               Allocated to registers ;size:1
                                           ;@main UserFlag                  Allocated to registers ;size:1
                                           ;@main UserFlag1                 Allocated to registers ;size:1
                                           ;@main GV_2msClock               Allocated to registers ;size:1
                                           ;@main GV_10msClock              Allocated to registers ;size:1
                                           ;@main GV_100msClock             Allocated to registers ;size:1
                                           ;@main GV_200msClock             Allocated to registers ;size:1
                                           ;@main GV_250msClock             Allocated to registers ;size:1
                                           ;@main GV_500msClock             Allocated to registers ;size:1
                                           ;@main GV_BuzzerPeriod           Allocated to registers ;size:1
                                           ;@main GV_BuzzerBBPeriod         Allocated to registers ;size:1
                                           ;@main GV_KeyDebounce            Allocated to registers ;size:1
                                           ;@main GV_PreKey                 Allocated to registers ;size:1
                                           ;@main GV_CurKey                 Allocated to registers ;size:1
                                           ;@main GV_LongKeyTimer           Allocated to registers ;size:2
                                           ;@main GV_Mode                   Allocated to registers ;size:1
                                           ;@main GV_RealTimeClockSetStep   Allocated to registers ;size:1
                                           ;@main GV_AlarmClockSetStep      Allocated to registers ;size:1
                                           ;@main GV_BuzzerIndex            Allocated to registers ;size:1
                                           ;@main GV_BuzzerDuty             Allocated to registers ;size:1
                                           ;@main GV_GetByteFromDs1302      Allocated to registers ;size:1
                                           ;@main GV_GetPT6964Data          Allocated to registers ;size:1
                                           ;@main GV_SetYearSingleDig       Allocated to registers ;size:1
                                           ;@main GV_SetYearTenDig          Allocated to registers ;size:1
                                           ;@main GV_SetYearHundredsDig     Allocated to registers ;size:1
                                           ;@main GV_SetYearthousandDig     Allocated to registers ;size:1
                                           ;@main GV_RunYearSingleDig       Allocated to registers ;size:1
                                           ;@main GV_RunYearTenDig          Allocated to registers ;size:1
                                           ;@main GV_RunYearHundredsDig     Allocated to registers ;size:1
                                           ;@main GV_RunYearthousandDig     Allocated to registers ;size:1
                                           ;@main GV_SetMonthSingleDig      Allocated to registers ;size:1
                                           ;@main GV_SetMonthTenDig         Allocated to registers ;size:1
                                           ;@main GV_RunMonthSingleDig      Allocated to registers ;size:1
                                           ;@main GV_RunMonthTenDig         Allocated to registers ;size:1
                                           ;@main GV_SetDaySingleDig        Allocated to registers ;size:1
                                           ;@main GV_SetDayTenDig           Allocated to registers ;size:1
                                           ;@main GV_RunDaySingleDig        Allocated to registers ;size:1
                                           ;@main GV_RunDayTenDig           Allocated to registers ;size:1
                                           ;@main GV_SetRealTimeClockHrSingleDig Allocated to registers ;size:1
                                           ;@main GV_SetRealTimeClockHrTenDig Allocated to registers ;size:1
                                           ;@main GV_SetRealTimeClockMinSingleDig Allocated to registers ;size:1
                                           ;@main GV_SetRealTimeClockMinTenDig Allocated to registers ;size:1
                                           ;@main GV_RunRealTimeClockHrSingleDig Allocated to registers ;size:1
                                           ;@main GV_RunRealTimeClockHrTenDig Allocated to registers ;size:1
                                           ;@main GV_RunRealTimeClockMinSingleDig Allocated to registers ;size:1
                                           ;@main GV_RunRealTimeClockMinTenDig Allocated to registers ;size:1
                                           ;@main GV_SetAlarmClockHrSingleDig Allocated to registers ;size:1
                                           ;@main GV_SetAlarmClockHrTenDig  Allocated to registers ;size:1
                                           ;@main GV_SetAlarmClockMinSingleDig Allocated to registers ;size:1
                                           ;@main GV_SetAlarmClockMinTenDig Allocated to registers ;size:1
                                           ;@main GV_RunAlarmClockHrSingleDig Allocated to registers ;size:1
                                           ;@main GV_RunAlarmClockHrTenDig  Allocated to registers ;size:1
                                           ;@main GV_RunAlarmClockMinSingleDig Allocated to registers ;size:1
                                           ;@main GV_RunAlarmClockMinTenDig Allocated to registers ;size:1
                                           ;@main GV_15sNoOperationCnt      Allocated to registers ;size:1
                                           ;@main GV_DisplayBrightnessLevel Allocated to registers ;size:1
                                           ;@main GV_SnoozeTimer            Allocated to registers ;size:1
                                           ;@main DATA_ID                   Allocated to registers ;size:2
                                           ;@main LV_Temp                   Allocated to registers ;size:2
                                           ;@main LV_Dig1_SG1_8             Allocated to registers ;size:1
                                           ;@main LV_Dig2_SG1_8             Allocated to registers ;size:1
                                           ;@main LV_Dig3_SG1_8             Allocated to registers ;size:1
                                           ;@main LV_Dig4_SG1_8             Allocated to registers ;size:1
                                           ;@main LV_Dig5_SG1_8             Allocated to registers ;size:1
                                           ;@main LV_Dig6_SG1_8             Allocated to registers ;size:1
                                           ;@main LV_Dig7_SG1_8             Allocated to registers ;size:1
                                           ;@main LV_Dig8_SG1_8             Allocated to registers ;size:1
                                           ;@main LV_Dig9_SG1_8             Allocated to registers ;size:1
                                           ;@main LV_Dig10_SG1_8            Allocated to registers ;size:1
                                           ;@main LV_Dig11_SG1_8            Allocated to registers ;size:1
                                           ;@main LV_Dig12_SG1_8            Allocated to registers ;size:1
                                           ;@main LV_Dig13_SG1_8            Allocated to registers ;size:1
                                           ;@main LV_TempA                  Allocated to registers ;size:1
                                           ;@main LV_TempB                  Allocated to registers ;size:1
                                           ;@main ABuf                      Allocated to registers ;size:1
                                           ;@main StatusBuf                 Allocated to registers ;size:1
                                           ;@main FSR_TEMP                  Allocated to registers ;size:1
                                           ;@main INDF                      Allocated to registers ;size:1
                                           ;@main INDF0                     Allocated to registers ;size:1
                                           ;@main INDF1                     Allocated to registers ;size:1
                                           ;@main INDF2                     Allocated to registers ;size:1
                                           ;@main HIBYTE                    Allocated to registers ;size:1
                                           ;@main FSR                       Allocated to registers ;size:1
                                           ;@main FSR0                      Allocated to registers ;size:1
                                           ;@main FSR1                      Allocated to registers ;size:1
                                           ;@main PCL                       Allocated to registers ;size:1
                                           ;@main STATUS                    Allocated to registers ;size:1
                                           ;@main PFLAG                     Allocated to registers ;size:1
                                           ;@main MCR                       Allocated to registers ;size:1
                                           ;@main INDF3                     Allocated to registers ;size:1
                                           ;@main INTE                      Allocated to registers ;size:1
                                           ;@main INTF                      Allocated to registers ;size:1
                                           ;@main OSCM                      Allocated to registers ;size:1
                                           ;@main IOP0                      Allocated to registers ;size:1
                                           ;@main OEP0                      Allocated to registers ;size:1
                                           ;@main PUP0                      Allocated to registers ;size:1
                                           ;@main IOP1                      Allocated to registers ;size:1
                                           ;@main OEP1                      Allocated to registers ;size:1
                                           ;@main PUP1                      Allocated to registers ;size:1
                                           ;@main IOP2                      Allocated to registers ;size:1
                                           ;@main OEP2                      Allocated to registers ;size:1
                                           ;@main PUP2                      Allocated to registers ;size:1
                                           ;@main T0CR                      Allocated to registers ;size:1
                                           ;@main T0CNT                     Allocated to registers ;size:1
                                           ;@main T0LOAD                    Allocated to registers ;size:1
                                           ;@main T0DATA                    Allocated to registers ;size:1
                                           ;@main T1CR                      Allocated to registers ;size:1
                                           ;@main T1CNT                     Allocated to registers ;size:1
                                           ;@main T1LOAD                    Allocated to registers ;size:1
                                           ;@main T1DATA                    Allocated to registers ;size:1
                                           ;@main T2CR                      Allocated to registers ;size:1
                                           ;@main T2CNT                     Allocated to registers ;size:1
                                           ;@main T2LOAD                    Allocated to registers ;size:1
                                           ;@main T2DATA                    Allocated to registers ;size:1
                                           ;@main T3CR                      Allocated to registers ;size:1
                                           ;@main T3CNT                     Allocated to registers ;size:1
                                           ;@main T3LOAD                    Allocated to registers ;size:1
                                           ;@main PWM0DE                    Allocated to registers ;size:1
                                           ;@main PWM1DE                    Allocated to registers ;size:1
                                           ;@main PWM2DE                    Allocated to registers ;size:1
                                           ;@main PWMCR0                    Allocated to registers ;size:1
                                           ;@main PWMCR1                    Allocated to registers ;size:1
                                           ;@main ADCR0                     Allocated to registers ;size:1
                                           ;@main ADCR1                     Allocated to registers ;size:1
                                           ;@main ADRH                      Allocated to registers ;size:1
                                           ;@main ADRL                      Allocated to registers ;size:1
                                           ;@main ANSEL                     Allocated to registers ;size:1
                                           ;@main LEDCR0                    Allocated to registers ;size:1
                                           ;@main LEDCR1                    Allocated to registers ;size:1
                                           ;@main LCDCR0                    Allocated to registers ;size:1
                                           ;@main LCDCR1                    Allocated to registers ;size:1
                                           ;@main LCDIOS0                   Allocated to registers ;size:1
                                           ;@main LCDIOS1                   Allocated to registers ;size:1
                                           ;@main LCDIOS2                   Allocated to registers ;size:1
                                           ;@end Allocation info for local variables in function 'main';
                                           ;@Allocation info for local variables in function 'Sub_Read1302'
                                           ;@Sub_Read1302 LV_Addr                   Allocated to registers r0x104B ;size:1
                                           ;@Sub_Read1302 i                         Allocated to registers r0x104C ;size:1
                                           ;@Sub_Read1302 LV_TempE                  Allocated to registers ;size:1
                                           ;@end Allocation info for local variables in function 'Sub_Read1302';
                                           ;@Allocation info for local variables in function 'Sub_Write1302'
                                           ;@Sub_Write1302 LV_Data                   Allocated to registers r0x1051 ;size:1
                                           ;@Sub_Write1302 LV_Addr                   Allocated to registers r0x1050 ;size:1
                                           ;@Sub_Write1302 i                         Allocated to registers r0x1052 ;size:1
                                           ;@Sub_Write1302 LV_TempE                  Allocated to registers ;size:1
                                           ;@end Allocation info for local variables in function 'Sub_Write1302';
                                           ;@Allocation info for local variables in function 'Sub_AlarmEvent'
                                           ;@end Allocation info for local variables in function 'Sub_AlarmEvent';
                                           ;@Allocation info for local variables in function 'Sub_IoInitial'
                                           ;@end Allocation info for local variables in function 'Sub_IoInitial';
                                           ;@Allocation info for local variables in function 'Sub_LoopDelay'
                                           ;@end Allocation info for local variables in function 'Sub_LoopDelay';
                                           ;@Allocation info for local variables in function 'Sub_TC2Initial'
                                           ;@end Allocation info for local variables in function 'Sub_TC2Initial';
                                           ;@Allocation info for local variables in function 'Sub_Initial'
                                           ;@end Allocation info for local variables in function 'Sub_Initial';
                                           ;@Allocation info for local variables in function 'Sub_Up_AlLongKeyGetAlarmSetMode'
                                           ;@end Allocation info for local variables in function 'Sub_Up_AlLongKeyGetAlarmSetMode';
                                           ;@Allocation info for local variables in function 'Sub_SetAlarmAddTimer'
                                           ;@end Allocation info for local variables in function 'Sub_SetAlarmAddTimer';
                                           ;@Allocation info for local variables in function 'Sub_Up_AlShortLongKeyAlarmSet'
                                           ;@end Allocation info for local variables in function 'Sub_Up_AlShortLongKeyAlarmSet';
                                           ;@Allocation info for local variables in function 'Sub_RealTimeClockAdd'
                                           ;@Sub_RealTimeClockAdd LV_TempYear               Allocated to registers r0x1050 ;size:1
                                           ;@Sub_RealTimeClockAdd LV_TempMonth              Allocated to registers r0x1051 ;size:1
                                           ;@end Allocation info for local variables in function 'Sub_RealTimeClockAdd';
                                           ;@Allocation info for local variables in function 'Sub_Up_AlShortLongKeyClockSet'
                                           ;@end Allocation info for local variables in function 'Sub_Up_AlShortLongKeyClockSet';
                                           ;@Allocation info for local variables in function 'Sub_SetAlarmDecTimer'
                                           ;@end Allocation info for local variables in function 'Sub_SetAlarmDecTimer';
                                           ;@Allocation info for local variables in function 'Sub_DownShortLongKeyAlarmSet'
                                           ;@end Allocation info for local variables in function 'Sub_DownShortLongKeyAlarmSet';
                                           ;@Allocation info for local variables in function 'Sub_RealTimeClockDec'
                                           ;@Sub_RealTimeClockDec LV_TempYear               Allocated to registers r0x1050 ;size:1
                                           ;@Sub_RealTimeClockDec LV_TempMonth              Allocated to registers r0x1051 ;size:1
                                           ;@end Allocation info for local variables in function 'Sub_RealTimeClockDec';
                                           ;@Allocation info for local variables in function 'Sub_DownShortLongKeyClockSet'
                                           ;@end Allocation info for local variables in function 'Sub_DownShortLongKeyClockSet';
                                           ;@Allocation info for local variables in function 'Sub_SetLongKeyGetRealTimeClockSetMode'
                                           ;@end Allocation info for local variables in function 'Sub_SetLongKeyGetRealTimeClockSetMode';
                                           ;@Allocation info for local variables in function 'Sub_SetKeyRealTimeClockEnter'
                                           ;@Sub_SetKeyRealTimeClockEnter LV_TempYear               Allocated to registers r0x1054 ;size:1
                                           ;@Sub_SetKeyRealTimeClockEnter LV_TempMonth              Allocated to registers r0x1055 ;size:1
                                           ;@Sub_SetKeyRealTimeClockEnter LV_TempDay                Allocated to registers r0x1056 ;size:1
                                           ;@Sub_SetKeyRealTimeClockEnter LV_TenTemp                Allocated to registers r0x1053 ;size:1
                                           ;@end Allocation info for local variables in function 'Sub_SetKeyRealTimeClockEnter';
                                           ;@Allocation info for local variables in function 'Sub_SetKeyAlarmEnter'
                                           ;@end Allocation info for local variables in function 'Sub_SetKeyAlarmEnter';
                                           ;@Allocation info for local variables in function 'Sub_KeyScan'
                                           ;@Sub_KeyScan LV_TempB                  Allocated to registers r0x1057 ;size:1
                                           ;@end Allocation info for local variables in function 'Sub_KeyScan';
                                           ;@Allocation info for local variables in function 'Sub_BuzzerBBB'
                                           ;@end Allocation info for local variables in function 'Sub_BuzzerBBB';
                                           ;@Allocation info for local variables in function 'Sub_Buzzer'
                                           ;@end Allocation info for local variables in function 'Sub_Buzzer';
                                           ;@Allocation info for local variables in function 'Sub_SendByteToPT6964'
                                           ;@Sub_SendByteToPT6964 LV_SendTodata             Allocated to registers r0x1048 ;size:1
                                           ;@Sub_SendByteToPT6964 i                         Allocated to registers r0x1049 ;size:1
                                           ;@end Allocation info for local variables in function 'Sub_SendByteToPT6964';
                                           ;@Allocation info for local variables in function 'Sub_GetByteFromPT6964'
                                           ;@Sub_GetByteFromPT6964 LV_TempPT6964             Allocated to registers r0x104F ;size:1
                                           ;@end Allocation info for local variables in function 'Sub_GetByteFromPT6964';
                                           ;@Allocation info for local variables in function 'Sub_SendDispDataToTA6932'
                                           ;@end Allocation info for local variables in function 'Sub_SendDispDataToTA6932';
                                           ;@Allocation info for local variables in function 'Sub_TA6932Disp'
                                           ;@end Allocation info for local variables in function 'Sub_TA6932Disp';
                                           ;@Allocation info for local variables in function 'Sub_PT6964PowerOnAllDisp2s'
                                           ;@end Allocation info for local variables in function 'Sub_PT6964PowerOnAllDisp2s';
                                           ;@Allocation info for local variables in function 'int_isr'
                                           ;@end Allocation info for local variables in function 'int_isr';
                                           
                                           ;--------------------------------------------------------
                                           ; overlayable items in internal ram 
                                           ;--------------------------------------------------------
                                           ;	udata_ovr
                                           ;--------------------------------------------------------
                                           ; reset vector 
                                           ;--------------------------------------------------------
                                           STARTUP	code 0x0000
000000   a027     goto    0x27             	goto	_main
                                           ;--------------------------------------------------------
                                           ; interrupt and initialization code
                                           ;--------------------------------------------------------
                                           c_interrupt	code	0x8
                                           __sdcc_interrupt
                                           ;***
                                           ;  pBlock Stats: dbName = I
                                           ;***
                                           ;entry:  _int_isr	;Function start
                                           ; 0 exit points
                                           ;2 compiler assigned registers:
                                           ;   r0x105C
                                           ;   r0x105D
                                           ;; Starting pCode block
                                           _int_isr	;Function start
                                           ; 0 exit points
                                           ;	.line	2463; "123.c"	__endasm;
000008   566d     movra   0x6d             	movra _ABuf
000009   4587     swapar  0x187            	swapar _STATUS
00000a   566e     movra   0x6e             	movra _StatusBuf
                                           	
                                           ;	.line	2464; "123.c"	if(T0IF)
00000b   e18b     jbset   0x18b, 0         	JBSET	_INTFbits,0
00000c   a022     goto    0x22             	GOTO	_01270_DS_
                                           ;	.line	2466; "123.c"	T0IF = 0;
00000d   d18b     bclr    0x18b, 0         	BCLR	_INTFbits,0
                                           ;	.line	2468; "123.c"	PO_Buzzer = !PO_Buzzer;
00000e   761b     clrr    0x1b             	CLRR	r0x105C
00000f   f398     jbclr   0x198, 0x1       	JBCLR	_IOP2bits,1
000010   661b     incr    0x1b             	INCR	r0x105C
000011   581b     movar   0x1b             	MOVAR	r0x105C
000012   3c00     movai   0                	MOVAI	0x00
000013   f587     jbclr   0x187, 0x2       	JBCLR	PFLAG,2
000014   3c01     movai   0x1              	MOVAI	0x01
000015   561b     movra   0x1b             	MOVRA	r0x105C
                                           ;;1	MOVRA	r0x105D
                                           ;;100	MOVAR	r0x105D
000016   4c1b     rrar    0x1b             	RRAR	r0x105C
000017   e187     jbset   0x187, 0         	JBSET	PFLAG,0
000018   d398     bclr    0x198, 0x1       	BCLR	_IOP2bits,1
000019   f187     jbclr   0x187, 0         	JBCLR	PFLAG,0
00001a   c398     bset    0x198, 0x1       	BSET	_IOP2bits,1
                                           ;	.line	2469; "123.c"	if(++GV_2msClock >= 16)
00001b   6629     incr    0x29             	INCR	_GV_2msClock
                                           ;;unsigned compare: left < lit(0x10=16), size=1
00001c   3c10     movai   0x10             	MOVAI	0x10
00001d   4829     rsubar  0x29             	RSUBAR	_GV_2msClock
00001e   e187     jbset   0x187, 0         	JBSET	PFLAG,0
00001f   a022     goto    0x22             	GOTO	_01270_DS_
                                           ;;genSkipc:3195: created from rifx:00DE608C
                                           ;	.line	2471; "123.c"	GV_2msClock = 0;
000020   7629     clrr    0x29             	CLRR	_GV_2msClock
                                           ;	.line	2472; "123.c"	BF_TccClock2ms = 1;
000021   c027     bset    0x27, 0          	BSET	_UserFlag,0
                                           _01270_DS_
                                           ;	.line	2480; "123.c"	__endasm;
000022   446e     swapar  0x6e             	swapar _StatusBuf
000023   5787     movra   0x187            	movra _STATUS
000024   466d     swapr   0x6d             	swapr _ABuf
000025   446d     swapar  0x6d             	swapar _ABuf
                                           	
                                           END_OF_INTERRUPT
000026   000d     retie                    	RETIE	
                                           
                                           ;--------------------------------------------------------
                                           ; code
                                           ;--------------------------------------------------------
                                           code_123	code
                                           ;***
                                           ;  pBlock Stats: dbName = M
                                           ;***
                                           ;entry:  _main	;Function start
                                           ; 2 exit points
                                           ;has an exit
                                           ;functions called:
                                           ;   _Sub_Initial
                                           ;   _Sub_KeyScan
                                           ;   _Sub_Buzzer
                                           ;   _Sub_TA6932Disp
                                           ;   _Sub_AlarmEvent
                                           ;   _Sub_Initial
                                           ;   _Sub_KeyScan
                                           ;   _Sub_Buzzer
                                           ;   _Sub_TA6932Disp
                                           ;   _Sub_AlarmEvent
                                           ;2 compiler assigned registers:
                                           ;   r0x105A
                                           ;   r0x105B
                                           ;; Starting pCode block
                                           _main	;Function start
                                           ; 2 exit points
                                           ;	.line	216; "123.c"	Sub_Initial();
000027   8b73     call    0xb73            	CALL	_Sub_Initial
                                           _00125_DS_
                                           ;	.line	220; "123.c"	ClrWdt(); //(feed the doggie )
000028   000e     clrwdt                   	clrwdt
                                           ;	.line	222; "123.c"	if(BF_TccClock2ms)  //
000029   e027     jbset   0x27, 0          	JBSET	_UserFlag,0
00002a   a028     goto    0x28             	GOTO	_00125_DS_
                                           ;	.line	224; "123.c"	BF_TccClock2ms = 0;
00002b   d027     bclr    0x27, 0          	BCLR	_UserFlag,0
                                           ;	.line	226; "123.c"	Sub_KeyScan();
00002c   854a     call    0x54a            	CALL	_Sub_KeyScan
                                           ;	.line	227; "123.c"	Sub_Buzzer();
00002d   84d2     call    0x4d2            	CALL	_Sub_Buzzer
                                           ;	.line	230; "123.c"	if(++GV_10msClock>=5) //
00002e   662a     incr    0x2a             	INCR	_GV_10msClock
                                           ;;unsigned compare: left < lit(0x5=5), size=1
00002f   3c05     movai   0x5              	MOVAI	0x05
000030   482a     rsubar  0x2a             	RSUBAR	_GV_10msClock
000031   e187     jbset   0x187, 0         	JBSET	PFLAG,0
000032   a035     goto    0x35             	GOTO	_00106_DS_
                                           ;;genSkipc:3195: created from rifx:00DE608C
                                           ;	.line	232; "123.c"	GV_10msClock = 0;
000033   762a     clrr    0x2a             	CLRR	_GV_10msClock
                                           ;	.line	233; "123.c"	Sub_TA6932Disp();
000034   80d6     call    0xd6             	CALL	_Sub_TA6932Disp
                                           _00106_DS_
                                           ;	.line	237; "123.c"	if(++GV_100msClock>=50) //
000035   662b     incr    0x2b             	INCR	_GV_100msClock
                                           ;;unsigned compare: left < lit(0x32=50), size=1
000036   3c32     movai   0x32             	MOVAI	0x32
000037   482b     rsubar  0x2b             	RSUBAR	_GV_100msClock
000038   e187     jbset   0x187, 0         	JBSET	PFLAG,0
000039   a03c     goto    0x3c             	GOTO	_00108_DS_
                                           ;;genSkipc:3195: created from rifx:00DE608C
                                           ;	.line	239; "123.c"	GV_100msClock = 0;
00003a   762b     clrr    0x2b             	CLRR	_GV_100msClock
                                           ;	.line	240; "123.c"	Sub_AlarmEvent();
00003b   8bee     call    0xbee            	CALL	_Sub_AlarmEvent
                                           _00108_DS_
                                           ;	.line	244; "123.c"	if(++GV_200msClock>=100) //
00003c   662c     incr    0x2c             	INCR	_GV_200msClock
                                           ;;unsigned compare: left < lit(0x64=100), size=1
00003d   3c64     movai   0x64             	MOVAI	0x64
00003e   482c     rsubar  0x2c             	RSUBAR	_GV_200msClock
00003f   e187     jbset   0x187, 0         	JBSET	PFLAG,0
000040   a042     goto    0x42             	GOTO	_00110_DS_
                                           ;;genSkipc:3195: created from rifx:00DE608C
                                           ;	.line	246; "123.c"	GV_200msClock = 0;
000041   762c     clrr    0x2c             	CLRR	_GV_200msClock
                                           _00110_DS_
                                           ;	.line	250; "123.c"	if(++GV_250msClock>=125) //Per 250ms
000042   662d     incr    0x2d             	INCR	_GV_250msClock
                                           ;;unsigned compare: left < lit(0x7D=125), size=1
000043   3c7d     movai   0x7d             	MOVAI	0x7d
000044   482d     rsubar  0x2d             	RSUBAR	_GV_250msClock
000045   e187     jbset   0x187, 0         	JBSET	PFLAG,0
000046   a056     goto    0x56             	GOTO	_00112_DS_
                                           ;;genSkipc:3195: created from rifx:00DE608C
                                           ;	.line	252; "123.c"	GV_250msClock = 0;
000047   762d     clrr    0x2d             	CLRR	_GV_250msClock
                                           ;	.line	253; "123.c"	BF_Clock250ms  = !BF_Clock250ms;
000048   7607     clrr    0x7              	CLRR	r0x105A
000049   f028     jbclr   0x28, 0          	JBCLR	_UserFlag1,0
00004a   6607     incr    0x7              	INCR	r0x105A
00004b   5807     movar   0x7              	MOVAR	r0x105A
00004c   3c00     movai   0                	MOVAI	0x00
00004d   f587     jbclr   0x187, 0x2       	JBCLR	PFLAG,2
00004e   3c01     movai   0x1              	MOVAI	0x01
00004f   5607     movra   0x7              	MOVRA	r0x105A
000050   5608     movra   0x8              	MOVRA	r0x105B
                                           ;;102	MOVAR	r0x105B
000051   4c07     rrar    0x7              	RRAR	r0x105A
000052   e187     jbset   0x187, 0         	JBSET	PFLAG,0
000053   d028     bclr    0x28, 0          	BCLR	_UserFlag1,0
000054   f187     jbclr   0x187, 0         	JBCLR	PFLAG,0
000055   c028     bset    0x28, 0          	BSET	_UserFlag1,0
                                           _00112_DS_
                                           ;	.line	257; "123.c"	if(++GV_500msClock >= 249)//
000056   662e     incr    0x2e             	INCR	_GV_500msClock
                                           ;;unsigned compare: left < lit(0xF9=249), size=1
000057   3cf9     movai   0xf9             	MOVAI	0xf9
000058   482e     rsubar  0x2e             	RSUBAR	_GV_500msClock
000059   e187     jbset   0x187, 0         	JBSET	PFLAG,0
00005a   a028     goto    0x28             	GOTO	_00125_DS_
                                           ;;genSkipc:3195: created from rifx:00DE608C
                                           ;	.line	259; "123.c"	GV_500msClock = 0;
00005b   762e     clrr    0x2e             	CLRR	_GV_500msClock
                                           ;	.line	260; "123.c"	BF_Clock500ms  = !BF_Clock500ms;
00005c   7607     clrr    0x7              	CLRR	r0x105A
00005d   f227     jbclr   0x27, 0x1        	JBCLR	_UserFlag,1
00005e   6607     incr    0x7              	INCR	r0x105A
00005f   5807     movar   0x7              	MOVAR	r0x105A
000060   3c00     movai   0                	MOVAI	0x00
000061   f587     jbclr   0x187, 0x2       	JBCLR	PFLAG,2
000062   3c01     movai   0x1              	MOVAI	0x01
000063   5607     movra   0x7              	MOVRA	r0x105A
000064   5608     movra   0x8              	MOVRA	r0x105B
                                           ;;101	MOVAR	r0x105B
000065   4c07     rrar    0x7              	RRAR	r0x105A
000066   e187     jbset   0x187, 0         	JBSET	PFLAG,0
000067   d227     bclr    0x27, 0x1        	BCLR	_UserFlag,1
000068   f187     jbclr   0x187, 0         	JBCLR	PFLAG,0
000069   c227     bset    0x27, 0x1        	BSET	_UserFlag,1
                                           ;	.line	262; "123.c"	if((GV_15sNoOperationCnt)&&(GV_Mode))//Automatically return to normal mode at 15 seconds without operation in setting mode.
00006a   3c00     movai   0                	MOVAI	0x00
00006b   5c5b     orar    0x5b             	ORAR	_GV_15sNoOperationCnt
00006c   f587     jbclr   0x187, 0x2       	JBCLR	PFLAG,2
00006d   a078     goto    0x78             	GOTO	_00116_DS_
00006e   3c00     movai   0                	MOVAI	0x00
00006f   5c34     orar    0x34             	ORAR	_GV_Mode
000070   f587     jbclr   0x187, 0x2       	JBCLR	PFLAG,2
000071   a078     goto    0x78             	GOTO	_00116_DS_
                                           ;	.line	264; "123.c"	if(--GV_15sNoOperationCnt == 0)
000072   6e5b     decr    0x5b             	DECR	_GV_15sNoOperationCnt
000073   3c00     movai   0                	MOVAI	0x00
000074   5c5b     orar    0x5b             	ORAR	_GV_15sNoOperationCnt
000075   e587     jbset   0x187, 0x2       	JBSET	PFLAG,2
000076   a078     goto    0x78             	GOTO	_00116_DS_
                                           ;	.line	266; "123.c"	GV_Mode = 0;//0=Normal mode; 1=clock set mode; 2=Alarm set mode
000077   7634     clrr    0x34             	CLRR	_GV_Mode
                                           _00116_DS_
                                           ;	.line	270; "123.c"	if(GV_SnoozeTimer)
000078   3c00     movai   0                	MOVAI	0x00
000079   5c5d     orar    0x5d             	ORAR	_GV_SnoozeTimer
00007a   f587     jbclr   0x187, 0x2       	JBCLR	PFLAG,2
00007b   a028     goto    0x28             	GOTO	_00125_DS_
                                           ;	.line	272; "123.c"	GV_SnoozeTimer--;
00007c   6e5d     decr    0x5d             	DECR	_GV_SnoozeTimer
00007d   a028     goto    0x28             	GOTO	_00125_DS_
00007e   000c     return                   	RETURN	
                                           ; exit point of _main
                                           
                                           ;***
                                           ;  pBlock Stats: dbName = C
                                           ;***
                                           ;entry:  _Sub_PT6964PowerOnAllDisp2s	;Function start
                                           ; 2 exit points
                                           ;has an exit
                                           ;functions called:
                                           ;   _Sub_SendByteToPT6964
                                           ;   _Sub_SendByteToPT6964
                                           ;   _Sub_SendByteToPT6964
                                           ;   _Sub_SendByteToPT6964
                                           ;   _Sub_SendByteToPT6964
                                           ;   _Sub_SendByteToPT6964
                                           ;   _Sub_SendByteToPT6964
                                           ;   _Sub_SendByteToPT6964
                                           ;   _Sub_SendByteToPT6964
                                           ;   _Sub_SendByteToPT6964
                                           ;   _Sub_SendByteToPT6964
                                           ;   _Sub_SendByteToPT6964
                                           ;   _Sub_SendByteToPT6964
                                           ;   _Sub_SendByteToPT6964
                                           ;   _Sub_SendByteToPT6964
                                           ;   _Sub_SendByteToPT6964
                                           ;   _Sub_SendByteToPT6964
                                           ;   _Sub_SendByteToPT6964
                                           ;   _Sub_SendByteToPT6964
                                           ;   _Sub_SendByteToPT6964
                                           ;   _Sub_SendByteToPT6964
                                           ;   _Sub_SendByteToPT6964
                                           ;   _Sub_SendByteToPT6964
                                           ;   _Sub_SendByteToPT6964
                                           ;   _Sub_SendByteToPT6964
                                           ;   _Sub_SendByteToPT6964
                                           ;   _Sub_SendByteToPT6964
                                           ;   _Sub_SendByteToPT6964
                                           ;   _Sub_SendByteToPT6964
                                           ;   _Sub_SendByteToPT6964
                                           ;   _Sub_SendByteToPT6964
                                           ;   _Sub_SendByteToPT6964
                                           ;   _Sub_SendByteToPT6964
                                           ;   _Sub_SendByteToPT6964
                                           ;   _Sub_SendByteToPT6964
                                           ;   _Sub_SendByteToPT6964
                                           ;; Starting pCode block
                                           _Sub_PT6964PowerOnAllDisp2s	;Function start
                                           ; 2 exit points
                                           ;	.line	2376; "123.c"	LV_Dig1_SG1_8 = 0xff;
00007f   3cff     movai   0xff             	MOVAI	0xff
000080   565e     movra   0x5e             	MOVRA	_LV_Dig1_SG1_8
                                           ;	.line	2377; "123.c"	LV_Dig2_SG1_8 = 0xff;
000081   3cff     movai   0xff             	MOVAI	0xff
000082   565f     movra   0x5f             	MOVRA	_LV_Dig2_SG1_8
                                           ;	.line	2378; "123.c"	LV_Dig3_SG1_8 = 0xff;
000083   3cff     movai   0xff             	MOVAI	0xff
000084   5660     movra   0x60             	MOVRA	_LV_Dig3_SG1_8
                                           ;	.line	2379; "123.c"	LV_Dig4_SG1_8 = 0xff;
000085   3cff     movai   0xff             	MOVAI	0xff
000086   5661     movra   0x61             	MOVRA	_LV_Dig4_SG1_8
                                           ;	.line	2380; "123.c"	LV_Dig5_SG1_8 = 0xff;
000087   3cff     movai   0xff             	MOVAI	0xff
000088   5662     movra   0x62             	MOVRA	_LV_Dig5_SG1_8
                                           ;	.line	2381; "123.c"	LV_Dig6_SG1_8 = 0xff;
000089   3cff     movai   0xff             	MOVAI	0xff
00008a   5663     movra   0x63             	MOVRA	_LV_Dig6_SG1_8
                                           ;	.line	2382; "123.c"	LV_Dig7_SG1_8 = 0xff;
00008b   3cff     movai   0xff             	MOVAI	0xff
00008c   5664     movra   0x64             	MOVRA	_LV_Dig7_SG1_8
                                           ;	.line	2383; "123.c"	LV_Dig8_SG1_8 = 0xff;
00008d   3cff     movai   0xff             	MOVAI	0xff
00008e   5665     movra   0x65             	MOVRA	_LV_Dig8_SG1_8
                                           ;	.line	2384; "123.c"	LV_Dig9_SG1_8 = 0xff;
00008f   3cff     movai   0xff             	MOVAI	0xff
000090   5666     movra   0x66             	MOVRA	_LV_Dig9_SG1_8
                                           ;	.line	2385; "123.c"	LV_Dig10_SG1_8 = 0xff;
000091   3cff     movai   0xff             	MOVAI	0xff
000092   5667     movra   0x67             	MOVRA	_LV_Dig10_SG1_8
                                           ;	.line	2386; "123.c"	LV_Dig11_SG1_8 = 0xff;
000093   3cff     movai   0xff             	MOVAI	0xff
000094   5668     movra   0x68             	MOVRA	_LV_Dig11_SG1_8
                                           ;	.line	2387; "123.c"	LV_Dig12_SG1_8 = 0xff;
000095   3cff     movai   0xff             	MOVAI	0xff
000096   5669     movra   0x69             	MOVRA	_LV_Dig12_SG1_8
                                           ;	.line	2388; "123.c"	LV_Dig13_SG1_8 = 0xff;
000097   3cff     movai   0xff             	MOVAI	0xff
000098   566a     movra   0x6a             	MOVRA	_LV_Dig13_SG1_8
                                           ;	.line	2391; "123.c"	SetSTB0();
000099   d798     bclr    0x198, 0x3       	BCLR	_IOP2bits,3
                                           ;	.line	2392; "123.c"	Sub_SendByteToPT6964(C_DataWrite);//Data W/R command
00009a   3c40     movai   0x40             	MOVAI	0x40
00009b   84b5     call    0x4b5            	CALL	_Sub_SendByteToPT6964
                                           ;	.line	2393; "123.c"	SetSTB1();
00009c   c798     bset    0x198, 0x3       	BSET	_IOP2bits,3
                                           ;	.line	2394; "123.c"	Nop();
00009d   0000     nop                      	nop
                                           ;	.line	2395; "123.c"	Nop();
00009e   0000     nop                      	nop
                                           ;	.line	2396; "123.c"	SetSTB0();
00009f   d798     bclr    0x198, 0x3       	BCLR	_IOP2bits,3
                                           ;	.line	2397; "123.c"	Sub_SendByteToPT6964(C_Address0);//Address control command
0000a0   3cc0     movai   0xc0             	MOVAI	0xc0
0000a1   84b5     call    0x4b5            	CALL	_Sub_SendByteToPT6964
                                           ;	.line	2399; "123.c"	Sub_SendByteToPT6964(LV_Dig1_SG1_8);
0000a2   585e     movar   0x5e             	MOVAR	_LV_Dig1_SG1_8
0000a3   84b5     call    0x4b5            	CALL	_Sub_SendByteToPT6964
                                           ;	.line	2400; "123.c"	Sub_SendByteToPT6964(LV_Dig2_SG1_8);
0000a4   585f     movar   0x5f             	MOVAR	_LV_Dig2_SG1_8
0000a5   84b5     call    0x4b5            	CALL	_Sub_SendByteToPT6964
                                           ;	.line	2402; "123.c"	Sub_SendByteToPT6964(LV_Dig3_SG1_8);
0000a6   5860     movar   0x60             	MOVAR	_LV_Dig3_SG1_8
0000a7   84b5     call    0x4b5            	CALL	_Sub_SendByteToPT6964
                                           ;	.line	2403; "123.c"	Sub_SendByteToPT6964(LV_Dig4_SG1_8);
0000a8   5861     movar   0x61             	MOVAR	_LV_Dig4_SG1_8
0000a9   84b5     call    0x4b5            	CALL	_Sub_SendByteToPT6964
                                           ;	.line	2405; "123.c"	Sub_SendByteToPT6964(LV_Dig5_SG1_8);
0000aa   5862     movar   0x62             	MOVAR	_LV_Dig5_SG1_8
0000ab   84b5     call    0x4b5            	CALL	_Sub_SendByteToPT6964
                                           ;	.line	2406; "123.c"	Sub_SendByteToPT6964(LV_Dig6_SG1_8);
0000ac   5863     movar   0x63             	MOVAR	_LV_Dig6_SG1_8
0000ad   84b5     call    0x4b5            	CALL	_Sub_SendByteToPT6964
                                           ;	.line	2408; "123.c"	Sub_SendByteToPT6964(LV_Dig7_SG1_8);
0000ae   5864     movar   0x64             	MOVAR	_LV_Dig7_SG1_8
0000af   84b5     call    0x4b5            	CALL	_Sub_SendByteToPT6964
                                           ;	.line	2409; "123.c"	Sub_SendByteToPT6964(LV_Dig8_SG1_8);
0000b0   5865     movar   0x65             	MOVAR	_LV_Dig8_SG1_8
0000b1   84b5     call    0x4b5            	CALL	_Sub_SendByteToPT6964
                                           ;	.line	2411; "123.c"	Sub_SendByteToPT6964(LV_Dig9_SG1_8);
0000b2   5866     movar   0x66             	MOVAR	_LV_Dig9_SG1_8
0000b3   84b5     call    0x4b5            	CALL	_Sub_SendByteToPT6964
                                           ;	.line	2412; "123.c"	Sub_SendByteToPT6964(LV_Dig10_SG1_8);
0000b4   5867     movar   0x67             	MOVAR	_LV_Dig10_SG1_8
0000b5   84b5     call    0x4b5            	CALL	_Sub_SendByteToPT6964
                                           ;	.line	2414; "123.c"	Sub_SendByteToPT6964(LV_Dig11_SG1_8);
0000b6   5868     movar   0x68             	MOVAR	_LV_Dig11_SG1_8
0000b7   84b5     call    0x4b5            	CALL	_Sub_SendByteToPT6964
                                           ;	.line	2415; "123.c"	Sub_SendByteToPT6964(LV_Dig12_SG1_8);
0000b8   5869     movar   0x69             	MOVAR	_LV_Dig12_SG1_8
0000b9   84b5     call    0x4b5            	CALL	_Sub_SendByteToPT6964
                                           ;	.line	2417; "123.c"	Sub_SendByteToPT6964(LV_Dig13_SG1_8);
0000ba   586a     movar   0x6a             	MOVAR	_LV_Dig13_SG1_8
0000bb   84b5     call    0x4b5            	CALL	_Sub_SendByteToPT6964
                                           ;	.line	2418; "123.c"	SetSTB1();
0000bc   c798     bset    0x198, 0x3       	BSET	_IOP2bits,3
                                           ;	.line	2420; "123.c"	Nop();
0000bd   0000     nop                      	nop
                                           ;	.line	2421; "123.c"	Nop();
0000be   0000     nop                      	nop
                                           ;	.line	2422; "123.c"	SetSTB0();  
0000bf   d798     bclr    0x198, 0x3       	BCLR	_IOP2bits,3
                                           ;	.line	2423; "123.c"	if(GV_DisplayBrightnessLevel==0)
0000c0   3c00     movai   0                	MOVAI	0x00
0000c1   5c5c     orar    0x5c             	ORAR	_GV_DisplayBrightnessLevel
0000c2   e587     jbset   0x187, 0x2       	JBSET	PFLAG,2
0000c3   a0c7     goto    0xc7             	GOTO	_01261_DS_
                                           ;	.line	2425; "123.c"	Sub_SendByteToPT6964(C_DisplayOnDuty14_16);
0000c4   3c8f     movai   0x8f             	MOVAI	0x8f
0000c5   84b5     call    0x4b5            	CALL	_Sub_SendByteToPT6964
0000c6   a0d4     goto    0xd4             	GOTO	_01262_DS_
                                           _01261_DS_
                                           ;	.line	2427; "123.c"	else if(GV_DisplayBrightnessLevel==1)
0000c7   585c     movar   0x5c             	MOVAR	_GV_DisplayBrightnessLevel
0000c8   3901     xorai   0x1              	XORAI	0x01
0000c9   e587     jbset   0x187, 0x2       	JBSET	PFLAG,2
0000ca   a0ce     goto    0xce             	GOTO	_01258_DS_
                                           ;	.line	2429; "123.c"	Sub_SendByteToPT6964(C_DisplayOnDuty4_16);
0000cb   3c8a     movai   0x8a             	MOVAI	0x8a
0000cc   84b5     call    0x4b5            	CALL	_Sub_SendByteToPT6964
0000cd   a0d4     goto    0xd4             	GOTO	_01262_DS_
                                           _01258_DS_
                                           ;	.line	2431; "123.c"	else if(GV_DisplayBrightnessLevel==2)
0000ce   585c     movar   0x5c             	MOVAR	_GV_DisplayBrightnessLevel
0000cf   3902     xorai   0x2              	XORAI	0x02
0000d0   e587     jbset   0x187, 0x2       	JBSET	PFLAG,2
0000d1   a0d4     goto    0xd4             	GOTO	_01262_DS_
                                           ;	.line	2433; "123.c"	Sub_SendByteToPT6964(C_DisplayOnDuty1_16);
0000d2   3c88     movai   0x88             	MOVAI	0x88
0000d3   84b5     call    0x4b5            	CALL	_Sub_SendByteToPT6964
                                           _01262_DS_
                                           ;	.line	2440; "123.c"	SetSTB1();
0000d4   c798     bset    0x198, 0x3       	BSET	_IOP2bits,3
0000d5   000c     return                   	RETURN	
                                           ; exit point of _Sub_PT6964PowerOnAllDisp2s
                                           
                                           ;***
                                           ;  pBlock Stats: dbName = C
                                           ;***
                                           ;entry:  _Sub_TA6932Disp	;Function start
                                           ; 2 exit points
                                           ;has an exit
                                           ;functions called:
                                           ;   _Sub_SendDispDataToTA6932
                                           ;   _Sub_SendDispDataToTA6932
                                           ;; Starting pCode block
                                           _Sub_TA6932Disp	;Function start
                                           ; 2 exit points
                                           ;	.line	2356; "123.c"	Sub_SendDispDataToTA6932();	   	   	   	   	   	   	   	   	   	
0000d6   80d8     call    0xd8             	CALL	_Sub_SendDispDataToTA6932
0000d7   000c     return                   	RETURN	
                                           ; exit point of _Sub_TA6932Disp
                                           
                                           ;***
                                           ;  pBlock Stats: dbName = C
                                           ;***
                                           ;entry:  _Sub_SendDispDataToTA6932	;Function start
                                           ; 2 exit points
                                           ;has an exit
                                           ;functions called:
                                           ;   __gptrget1
                                           ;   __gptrget1
                                           ;   __gptrget1
                                           ;   __gptrget1
                                           ;   _Sub_Read1302
                                           ;   __gptrget1
                                           ;   __gptrget1
                                           ;   __gptrget1
                                           ;   __gptrget1
                                           ;   _Sub_Read1302
                                           ;   __gptrget1
                                           ;   __gptrget1
                                           ;   _Sub_Read1302
                                           ;   __gptrget1
                                           ;   __gptrget1
                                           ;   _Sub_Read1302
                                           ;   __gptrget1
                                           ;   __gptrget1
                                           ;   _Sub_Read1302
                                           ;   __gptrget1
                                           ;   __gptrget1
                                           ;   __gptrget1
                                           ;   __gptrget1
                                           ;   __gptrget1
                                           ;   __gptrget1
                                           ;   __gptrget1
                                           ;   __gptrget1
                                           ;   __gptrget1
                                           ;   __gptrget1
                                           ;   __gptrget1
                                           ;   __gptrget1
                                           ;   __gptrget1
                                           ;   __gptrget1
                                           ;   __gptrget1
                                           ;   __gptrget1
                                           ;   __gptrget1
                                           ;   __gptrget1
                                           ;   __gptrget1
                                           ;   __gptrget1
                                           ;   __gptrget1
                                           ;   __gptrget1
                                           ;   __gptrget1
                                           ;   __gptrget1
                                           ;   __gptrget1
                                           ;   __gptrget1
                                           ;   __gptrget1
                                           ;   __gptrget1
                                           ;   __gptrget1
                                           ;   __gptrget1
                                           ;   _Sub_Read1302
                                           ;   __gptrget1
                                           ;   __gptrget1
                                           ;   _Sub_Read1302
                                           ;   __gptrget1
                                           ;   __gptrget1
                                           ;   _Sub_Read1302
                                           ;   __gptrget1
                                           ;   __gptrget1
                                           ;   _Sub_Read1302
                                           ;   __gptrget1
                                           ;   __gptrget1
                                           ;   __gptrget1
                                           ;   __gptrget1
                                           ;   __gptrget1
                                           ;   __gptrget1
                                           ;   _Sub_SendByteToPT6964
                                           ;   _Sub_SendByteToPT6964
                                           ;   _Sub_SendByteToPT6964
                                           ;   _Sub_SendByteToPT6964
                                           ;   _Sub_SendByteToPT6964
                                           ;   _Sub_SendByteToPT6964
                                           ;   _Sub_SendByteToPT6964
                                           ;   _Sub_SendByteToPT6964
                                           ;   _Sub_SendByteToPT6964
                                           ;   _Sub_SendByteToPT6964
                                           ;   _Sub_SendByteToPT6964
                                           ;   _Sub_SendByteToPT6964
                                           ;   _Sub_SendByteToPT6964
                                           ;   _Sub_SendByteToPT6964
                                           ;   _Sub_SendByteToPT6964
                                           ;   _Sub_SendByteToPT6964
                                           ;   _Sub_SendByteToPT6964
                                           ;   _Sub_SendByteToPT6964
                                           ;   __gptrget1
                                           ;   __gptrget1
                                           ;   __gptrget1
                                           ;   __gptrget1
                                           ;   _Sub_Read1302
                                           ;   __gptrget1
                                           ;   __gptrget1
                                           ;   __gptrget1
                                           ;   __gptrget1
                                           ;   _Sub_Read1302
                                           ;   __gptrget1
                                           ;   __gptrget1
                                           ;   _Sub_Read1302
                                           ;   __gptrget1
                                           ;   __gptrget1
                                           ;   _Sub_Read1302
                                           ;   __gptrget1
                                           ;   __gptrget1
                                           ;   _Sub_Read1302
                                           ;   __gptrget1
                                           ;   __gptrget1
                                           ;   __gptrget1
                                           ;   __gptrget1
                                           ;   __gptrget1
                                           ;   __gptrget1
                                           ;   __gptrget1
                                           ;   __gptrget1
                                           ;   __gptrget1
                                           ;   __gptrget1
                                           ;   __gptrget1
                                           ;   __gptrget1
                                           ;   __gptrget1
                                           ;   __gptrget1
                                           ;   __gptrget1
                                           ;   __gptrget1
                                           ;   __gptrget1
                                           ;   __gptrget1
                                           ;   __gptrget1
                                           ;   __gptrget1
                                           ;   __gptrget1
                                           ;   __gptrget1
                                           ;   __gptrget1
                                           ;   __gptrget1
                                           ;   __gptrget1
                                           ;   __gptrget1
                                           ;   __gptrget1
                                           ;   __gptrget1
                                           ;   __gptrget1
                                           ;   __gptrget1
                                           ;   _Sub_Read1302
                                           ;   __gptrget1
                                           ;   __gptrget1
                                           ;   _Sub_Read1302
                                           ;   __gptrget1
                                           ;   __gptrget1
                                           ;   _Sub_Read1302
                                           ;   __gptrget1
                                           ;   __gptrget1
                                           ;   _Sub_Read1302
                                           ;   __gptrget1
                                           ;   __gptrget1
                                           ;   __gptrget1
                                           ;   __gptrget1
                                           ;   __gptrget1
                                           ;   __gptrget1
                                           ;   _Sub_SendByteToPT6964
                                           ;   _Sub_SendByteToPT6964
                                           ;   _Sub_SendByteToPT6964
                                           ;   _Sub_SendByteToPT6964
                                           ;   _Sub_SendByteToPT6964
                                           ;   _Sub_SendByteToPT6964
                                           ;   _Sub_SendByteToPT6964
                                           ;   _Sub_SendByteToPT6964
                                           ;   _Sub_SendByteToPT6964
                                           ;   _Sub_SendByteToPT6964
                                           ;   _Sub_SendByteToPT6964
                                           ;   _Sub_SendByteToPT6964
                                           ;   _Sub_SendByteToPT6964
                                           ;   _Sub_SendByteToPT6964
                                           ;   _Sub_SendByteToPT6964
                                           ;   _Sub_SendByteToPT6964
                                           ;   _Sub_SendByteToPT6964
                                           ;   _Sub_SendByteToPT6964
                                           ;4 compiler assigned registers:
                                           ;   r0x104D
                                           ;   r0x104E
                                           ;   STK01
                                           ;   STK00
                                           ;; Starting pCode block
                                           _Sub_SendDispDataToTA6932	;Function start
                                           ; 2 exit points
                                           ;	.line	1998; "123.c"	LV_Dig1_SG1_8 = 0;
0000d8   765e     clrr    0x5e             	CLRR	_LV_Dig1_SG1_8
                                           ;	.line	1999; "123.c"	LV_Dig2_SG1_8 = 0;
0000d9   765f     clrr    0x5f             	CLRR	_LV_Dig2_SG1_8
                                           ;	.line	2000; "123.c"	LV_Dig3_SG1_8 = 0;
0000da   7660     clrr    0x60             	CLRR	_LV_Dig3_SG1_8
                                           ;	.line	2001; "123.c"	LV_Dig4_SG1_8 = 0;
0000db   7661     clrr    0x61             	CLRR	_LV_Dig4_SG1_8
                                           ;	.line	2002; "123.c"	LV_Dig5_SG1_8 = 0;
0000dc   7662     clrr    0x62             	CLRR	_LV_Dig5_SG1_8
                                           ;	.line	2003; "123.c"	LV_Dig6_SG1_8 = 0;
0000dd   7663     clrr    0x63             	CLRR	_LV_Dig6_SG1_8
                                           ;	.line	2004; "123.c"	LV_Dig7_SG1_8 = 0;
0000de   7664     clrr    0x64             	CLRR	_LV_Dig7_SG1_8
                                           ;	.line	2005; "123.c"	LV_Dig8_SG1_8 = 0;
0000df   7665     clrr    0x65             	CLRR	_LV_Dig8_SG1_8
                                           ;	.line	2006; "123.c"	LV_Dig9_SG1_8 = 0;
0000e0   7666     clrr    0x66             	CLRR	_LV_Dig9_SG1_8
                                           ;	.line	2007; "123.c"	LV_Dig10_SG1_8 = 0;
0000e1   7667     clrr    0x67             	CLRR	_LV_Dig10_SG1_8
                                           ;	.line	2008; "123.c"	LV_Dig11_SG1_8 = 0;
0000e2   7668     clrr    0x68             	CLRR	_LV_Dig11_SG1_8
                                           ;	.line	2009; "123.c"	LV_Dig12_SG1_8 = 0;
0000e3   7669     clrr    0x69             	CLRR	_LV_Dig12_SG1_8
                                           ;	.line	2010; "123.c"	LV_Dig13_SG1_8 = 0;
0000e4   766a     clrr    0x6a             	CLRR	_LV_Dig13_SG1_8
                                           ;	.line	2012; "123.c"	LV_TempA = 0;
0000e5   766b     clrr    0x6b             	CLRR	_LV_TempA
                                           ;	.line	2013; "123.c"	LV_TempB = 0;
0000e6   766c     clrr    0x6c             	CLRR	_LV_TempB
                                           ;	.line	2015; "123.c"	if(GV_Mode==0)
0000e7   3c00     movai   0                	MOVAI	0x00
0000e8   5c34     orar    0x34             	ORAR	_GV_Mode
0000e9   e587     jbset   0x187, 0x2       	JBSET	PFLAG,2
0000ea   a219     goto    0x219            	GOTO	_01237_DS_
                                           ;	.line	2017; "123.c"	if(BF_RunAlarmOnOff)//0 = Run alarm off; 1 = Run alarm on
0000eb   ec28     jbset   0x28, 0x6        	JBSET	_UserFlag1,6
0000ec   a12e     goto    0x12e            	GOTO	_01178_DS_
                                           ;	.line	2020; "123.c"	LV_Dig8_SG1_8 = C_NumberTable[GV_RunAlarmClockMinSingleDig]; //Dig8 AlarmClockMinSingle Digit  	   	   	   	   	
0000ed   5859     movar   0x59             	MOVAR	_GV_RunAlarmClockMinSingleDig
0000ee   3ff0     addai   0xf0             	ADDAI	(_C_NumberTable + 0)
0000ef   5619     movra   0x19             	MOVRA	r0x104D
0000f0   3c0f     movai   0xf              	MOVAI	high (_C_NumberTable + 0)
0000f1   f187     jbclr   0x187, 0         	JBCLR	PFLAG,0
0000f2   3f01     addai   0x1              	ADDAI	0x01
0000f3   561a     movra   0x1a             	MOVRA	r0x104E
0000f4   5819     movar   0x19             	MOVAR	r0x104D
0000f5   5605     movra   0x5              	MOVRA	STK01
0000f6   581a     movar   0x1a             	MOVAR	r0x104E
0000f7   5606     movra   0x6              	MOVRA	STK00
0000f8   3c80     movai   0x80             	MOVAI	0x80
0000f9   8c9b     call    0xc9b            	CALL	__gptrget1
0000fa   5665     movra   0x65             	MOVRA	_LV_Dig8_SG1_8
                                           ;	.line	2021; "123.c"	LV_Dig7_SG1_8 = C_NumberTable[GV_RunAlarmClockMinTenDig];    //Dig7 AlarmClockMinTen Digit 	
0000fb   585a     movar   0x5a             	MOVAR	_GV_RunAlarmClockMinTenDig
0000fc   3ff0     addai   0xf0             	ADDAI	(_C_NumberTable + 0)
0000fd   5619     movra   0x19             	MOVRA	r0x104D
0000fe   3c0f     movai   0xf              	MOVAI	high (_C_NumberTable + 0)
0000ff   f187     jbclr   0x187, 0         	JBCLR	PFLAG,0
000100   3f01     addai   0x1              	ADDAI	0x01
000101   561a     movra   0x1a             	MOVRA	r0x104E
000102   5819     movar   0x19             	MOVAR	r0x104D
000103   5605     movra   0x5              	MOVRA	STK01
000104   581a     movar   0x1a             	MOVAR	r0x104E
000105   5606     movra   0x6              	MOVRA	STK00
000106   3c80     movai   0x80             	MOVAI	0x80
000107   8c9b     call    0xc9b            	CALL	__gptrget1
000108   5664     movra   0x64             	MOVRA	_LV_Dig7_SG1_8
                                           ;	.line	2022; "123.c"	LV_Dig7_SG1_8 |= 0x80;//1000 0000;//On Dig7/H7 alarm  icons	
000109   ce64     bset    0x64, 0x7        	BSET	_LV_Dig7_SG1_8,7
                                           ;	.line	2024; "123.c"	LV_Dig6_SG1_8 = C_NumberTable[GV_RunAlarmClockHrSingleDig];  //Dig6 AlarmClockHrSingle Digit
00010a   5857     movar   0x57             	MOVAR	_GV_RunAlarmClockHrSingleDig
00010b   3ff0     addai   0xf0             	ADDAI	(_C_NumberTable + 0)
00010c   5619     movra   0x19             	MOVRA	r0x104D
00010d   3c0f     movai   0xf              	MOVAI	high (_C_NumberTable + 0)
00010e   f187     jbclr   0x187, 0         	JBCLR	PFLAG,0
00010f   3f01     addai   0x1              	ADDAI	0x01
000110   561a     movra   0x1a             	MOVRA	r0x104E
000111   5819     movar   0x19             	MOVAR	r0x104D
000112   5605     movra   0x5              	MOVRA	STK01
000113   581a     movar   0x1a             	MOVAR	r0x104E
000114   5606     movra   0x6              	MOVRA	STK00
000115   3c80     movai   0x80             	MOVAI	0x80
000116   8c9b     call    0xc9b            	CALL	__gptrget1
000117   5663     movra   0x63             	MOVRA	_LV_Dig6_SG1_8
                                           ;	.line	2025; "123.c"	LV_Dig5_SG1_8 = C_NumberTable[GV_RunAlarmClockHrTenDig];     //Dig5 AlarmClockHrTen Digit  	
000118   5858     movar   0x58             	MOVAR	_GV_RunAlarmClockHrTenDig
000119   3ff0     addai   0xf0             	ADDAI	(_C_NumberTable + 0)
00011a   5619     movra   0x19             	MOVRA	r0x104D
00011b   3c0f     movai   0xf              	MOVAI	high (_C_NumberTable + 0)
00011c   f187     jbclr   0x187, 0         	JBCLR	PFLAG,0
00011d   3f01     addai   0x1              	ADDAI	0x01
00011e   561a     movra   0x1a             	MOVRA	r0x104E
00011f   5819     movar   0x19             	MOVAR	r0x104D
000120   5605     movra   0x5              	MOVRA	STK01
000121   581a     movar   0x1a             	MOVAR	r0x104E
000122   5606     movra   0x6              	MOVRA	STK00
000123   3c80     movai   0x80             	MOVAI	0x80
000124   8c9b     call    0xc9b            	CALL	__gptrget1
000125   5662     movra   0x62             	MOVRA	_LV_Dig5_SG1_8
                                           ;	.line	2026; "123.c"	if(BF_RunAlarmAM_PM)//0=AM1=PM
000126   e628     jbset   0x28, 0x3        	JBSET	_UserFlag1,3
000127   a12b     goto    0x12b            	GOTO	_01175_DS_
                                           ;	.line	2028; "123.c"	LV_Dig6_SG1_8 |= 0x80;//1000 0000;//On Dig6/H6 Alarm clock PM  icons
000128   ce63     bset    0x63, 0x7        	BSET	_LV_Dig6_SG1_8,7
                                           ;	.line	2029; "123.c"	BF_RunRealTimeClockAM_PM = 1;
000129   c627     bset    0x27, 0x3        	BSET	_UserFlag,3
00012a   a16e     goto    0x16e            	GOTO	_01179_DS_
                                           _01175_DS_
                                           ;	.line	2033; "123.c"	LV_Dig5_SG1_8 |= 0x80;//1000 0000;//On Dig5/H5 Alarm clock AM  icons
00012b   ce62     bset    0x62, 0x7        	BSET	_LV_Dig5_SG1_8,7
                                           ;	.line	2034; "123.c"	BF_RunRealTimeClockAM_PM = 0;  	   	
00012c   d627     bclr    0x27, 0x3        	BCLR	_UserFlag,3
00012d   a16e     goto    0x16e            	GOTO	_01179_DS_
                                           _01178_DS_
                                           ;	.line	2040; "123.c"	Sub_Read1302(C_DS1302_Year);//C_DS1302_Year
00012e   3c8c     movai   0x8c             	MOVAI	0x8c
00012f   8c50     call    0xc50            	CALL	_Sub_Read1302
                                           ;	.line	2041; "123.c"	GV_RunYearSingleDig = GV_GetByteFromDs1302 & 0x0F;
000130   3c0f     movai   0xf              	MOVAI	0x0f
000131   7839     andar   0x39             	ANDAR	_GV_GetByteFromDs1302
000132   563f     movra   0x3f             	MOVRA	_GV_RunYearSingleDig
                                           ;	.line	2042; "123.c"	GV_RunYearTenDig = GV_GetByteFromDs1302 >> 4;
000133   4439     swapar  0x39             	SWAPAR	_GV_GetByteFromDs1302
000134   3e0f     andai   0xf              	ANDAI	0x0f
000135   5640     movra   0x40             	MOVRA	_GV_RunYearTenDig
                                           ;	.line	2043; "123.c"	LV_Dig8_SG1_8 = C_NumberTable[GV_RunYearSingleDig];  //Dig8 Year Single Digit  	   	   	   	   	
000136   583f     movar   0x3f             	MOVAR	_GV_RunYearSingleDig
000137   3ff0     addai   0xf0             	ADDAI	(_C_NumberTable + 0)
000138   5619     movra   0x19             	MOVRA	r0x104D
000139   3c0f     movai   0xf              	MOVAI	high (_C_NumberTable + 0)
00013a   f187     jbclr   0x187, 0         	JBCLR	PFLAG,0
00013b   3f01     addai   0x1              	ADDAI	0x01
00013c   561a     movra   0x1a             	MOVRA	r0x104E
00013d   5819     movar   0x19             	MOVAR	r0x104D
00013e   5605     movra   0x5              	MOVRA	STK01
00013f   581a     movar   0x1a             	MOVAR	r0x104E
000140   5606     movra   0x6              	MOVRA	STK00
000141   3c80     movai   0x80             	MOVAI	0x80
000142   8c9b     call    0xc9b            	CALL	__gptrget1
000143   5665     movra   0x65             	MOVRA	_LV_Dig8_SG1_8
                                           ;	.line	2044; "123.c"	LV_Dig7_SG1_8 = C_NumberTable[GV_RunYearTenDig];     //Dig7 Year Ten Digit
000144   5840     movar   0x40             	MOVAR	_GV_RunYearTenDig
000145   3ff0     addai   0xf0             	ADDAI	(_C_NumberTable + 0)
000146   5619     movra   0x19             	MOVRA	r0x104D
000147   3c0f     movai   0xf              	MOVAI	high (_C_NumberTable + 0)
000148   f187     jbclr   0x187, 0         	JBCLR	PFLAG,0
000149   3f01     addai   0x1              	ADDAI	0x01
00014a   561a     movra   0x1a             	MOVRA	r0x104E
00014b   5819     movar   0x19             	MOVAR	r0x104D
00014c   5605     movra   0x5              	MOVRA	STK01
00014d   581a     movar   0x1a             	MOVAR	r0x104E
00014e   5606     movra   0x6              	MOVRA	STK00
00014f   3c80     movai   0x80             	MOVAI	0x80
000150   8c9b     call    0xc9b            	CALL	__gptrget1
000151   5664     movra   0x64             	MOVRA	_LV_Dig7_SG1_8
                                           ;	.line	2045; "123.c"	LV_Dig6_SG1_8 = C_NumberTable[GV_RunYearHundredsDig];//Dig6 Year Hundreds Digit
000152   5841     movar   0x41             	MOVAR	_GV_RunYearHundredsDig
000153   3ff0     addai   0xf0             	ADDAI	(_C_NumberTable + 0)
000154   5619     movra   0x19             	MOVRA	r0x104D
000155   3c0f     movai   0xf              	MOVAI	high (_C_NumberTable + 0)
000156   f187     jbclr   0x187, 0         	JBCLR	PFLAG,0
000157   3f01     addai   0x1              	ADDAI	0x01
000158   561a     movra   0x1a             	MOVRA	r0x104E
000159   5819     movar   0x19             	MOVAR	r0x104D
00015a   5605     movra   0x5              	MOVRA	STK01
00015b   581a     movar   0x1a             	MOVAR	r0x104E
00015c   5606     movra   0x6              	MOVRA	STK00
00015d   3c80     movai   0x80             	MOVAI	0x80
00015e   8c9b     call    0xc9b            	CALL	__gptrget1
00015f   5663     movra   0x63             	MOVRA	_LV_Dig6_SG1_8
                                           ;	.line	2046; "123.c"	LV_Dig5_SG1_8 = C_NumberTable[GV_RunYearthousandDig];//Dig5 Year thousand Digit
000160   5842     movar   0x42             	MOVAR	_GV_RunYearthousandDig
000161   3ff0     addai   0xf0             	ADDAI	(_C_NumberTable + 0)
000162   5619     movra   0x19             	MOVRA	r0x104D
000163   3c0f     movai   0xf              	MOVAI	high (_C_NumberTable + 0)
000164   f187     jbclr   0x187, 0         	JBCLR	PFLAG,0
000165   3f01     addai   0x1              	ADDAI	0x01
000166   561a     movra   0x1a             	MOVRA	r0x104E
000167   5819     movar   0x19             	MOVAR	r0x104D
000168   5605     movra   0x5              	MOVRA	STK01
000169   581a     movar   0x1a             	MOVAR	r0x104E
00016a   5606     movra   0x6              	MOVRA	STK00
00016b   3c80     movai   0x80             	MOVAI	0x80
00016c   8c9b     call    0xc9b            	CALL	__gptrget1
00016d   5662     movra   0x62             	MOVRA	_LV_Dig5_SG1_8
                                           _01179_DS_
                                           ;	.line	2050; "123.c"	Sub_Read1302(C_DS1302_Month);//C_DS1302_Month
00016e   3c88     movai   0x88             	MOVAI	0x88
00016f   8c50     call    0xc50            	CALL	_Sub_Read1302
                                           ;	.line	2051; "123.c"	GV_RunMonthSingleDig = GV_GetByteFromDs1302 & 0x0F;
000170   3c0f     movai   0xf              	MOVAI	0x0f
000171   7839     andar   0x39             	ANDAR	_GV_GetByteFromDs1302
000172   5645     movra   0x45             	MOVRA	_GV_RunMonthSingleDig
                                           ;	.line	2052; "123.c"	GV_RunMonthTenDig = GV_GetByteFromDs1302 >> 4;
000173   4439     swapar  0x39             	SWAPAR	_GV_GetByteFromDs1302
000174   3e0f     andai   0xf              	ANDAI	0x0f
000175   5646     movra   0x46             	MOVRA	_GV_RunMonthTenDig
                                           ;	.line	2053; "123.c"	LV_Dig2_SG1_8 = C_NumberTable[GV_RunMonthSingleDig];//Dig2 	month Single Digit 	   	   	
000176   5845     movar   0x45             	MOVAR	_GV_RunMonthSingleDig
000177   3ff0     addai   0xf0             	ADDAI	(_C_NumberTable + 0)
000178   5619     movra   0x19             	MOVRA	r0x104D
000179   3c0f     movai   0xf              	MOVAI	high (_C_NumberTable + 0)
00017a   f187     jbclr   0x187, 0         	JBCLR	PFLAG,0
00017b   3f01     addai   0x1              	ADDAI	0x01
00017c   561a     movra   0x1a             	MOVRA	r0x104E
00017d   5819     movar   0x19             	MOVAR	r0x104D
00017e   5605     movra   0x5              	MOVRA	STK01
00017f   581a     movar   0x1a             	MOVAR	r0x104E
000180   5606     movra   0x6              	MOVRA	STK00
000181   3c80     movai   0x80             	MOVAI	0x80
000182   8c9b     call    0xc9b            	CALL	__gptrget1
000183   565f     movra   0x5f             	MOVRA	_LV_Dig2_SG1_8
                                           ;	.line	2054; "123.c"	LV_Dig1_SG1_8 = C_NumberTable[GV_RunMonthTenDig];   //Dig1 	month Ten Digit 
000184   5846     movar   0x46             	MOVAR	_GV_RunMonthTenDig
000185   3ff0     addai   0xf0             	ADDAI	(_C_NumberTable + 0)
000186   5619     movra   0x19             	MOVRA	r0x104D
000187   3c0f     movai   0xf              	MOVAI	high (_C_NumberTable + 0)
000188   f187     jbclr   0x187, 0         	JBCLR	PFLAG,0
000189   3f01     addai   0x1              	ADDAI	0x01
00018a   561a     movra   0x1a             	MOVRA	r0x104E
00018b   5819     movar   0x19             	MOVAR	r0x104D
00018c   5605     movra   0x5              	MOVRA	STK01
00018d   581a     movar   0x1a             	MOVAR	r0x104E
00018e   5606     movra   0x6              	MOVRA	STK00
00018f   3c80     movai   0x80             	MOVAI	0x80
000190   8c9b     call    0xc9b            	CALL	__gptrget1
000191   565e     movra   0x5e             	MOVRA	_LV_Dig1_SG1_8
                                           ;	.line	2055; "123.c"	if(BF_RunAlarmOnOff)//0 = Run alarm off; 1 = Run alarm on
000192   ec28     jbset   0x28, 0x6        	JBSET	_UserFlag1,6
000193   a196     goto    0x196            	GOTO	_01181_DS_
                                           ;	.line	2057; "123.c"	LV_Dig2_SG1_8 |= 0x80;//1000 0000;//On Dig2/H2 (  :  )
000194   ce5f     bset    0x5f, 0x7        	BSET	_LV_Dig2_SG1_8,7
                                           ;	.line	2058; "123.c"	LV_Dig1_SG1_8 |= 0x80;//1000 0000;//On Dig1/H1 (  :  )
000195   ce5e     bset    0x5e, 0x7        	BSET	_LV_Dig1_SG1_8,7
                                           _01181_DS_
                                           ;	.line	2061; "123.c"	LV_Dig13_SG1_8 |= 0x01;//0000 0001;//Dig13/A13 	MONTH      	   	
000196   c06a     bset    0x6a, 0          	BSET	_LV_Dig13_SG1_8,0
                                           ;	.line	2064; "123.c"	Sub_Read1302(C_DS1302_Day);//C_DS1302_Day
000197   3c86     movai   0x86             	MOVAI	0x86
000198   8c50     call    0xc50            	CALL	_Sub_Read1302
                                           ;	.line	2065; "123.c"	GV_RunDaySingleDig = GV_GetByteFromDs1302 & 0x0F;
000199   3c0f     movai   0xf              	MOVAI	0x0f
00019a   7839     andar   0x39             	ANDAR	_GV_GetByteFromDs1302
00019b   5649     movra   0x49             	MOVRA	_GV_RunDaySingleDig
                                           ;	.line	2066; "123.c"	GV_RunDayTenDig = GV_GetByteFromDs1302 >> 4;
00019c   4439     swapar  0x39             	SWAPAR	_GV_GetByteFromDs1302
00019d   3e0f     andai   0xf              	ANDAI	0x0f
00019e   564a     movra   0x4a             	MOVRA	_GV_RunDayTenDig
                                           ;	.line	2067; "123.c"	LV_Dig4_SG1_8 = C_NumberTable[GV_RunDaySingleDig];//Dig4 Day Single Digit  	   	   	
00019f   5849     movar   0x49             	MOVAR	_GV_RunDaySingleDig
0001a0   3ff0     addai   0xf0             	ADDAI	(_C_NumberTable + 0)
0001a1   5619     movra   0x19             	MOVRA	r0x104D
0001a2   3c0f     movai   0xf              	MOVAI	high (_C_NumberTable + 0)
0001a3   f187     jbclr   0x187, 0         	JBCLR	PFLAG,0
0001a4   3f01     addai   0x1              	ADDAI	0x01
0001a5   561a     movra   0x1a             	MOVRA	r0x104E
0001a6   5819     movar   0x19             	MOVAR	r0x104D
0001a7   5605     movra   0x5              	MOVRA	STK01
0001a8   581a     movar   0x1a             	MOVAR	r0x104E
0001a9   5606     movra   0x6              	MOVRA	STK00
0001aa   3c80     movai   0x80             	MOVAI	0x80
0001ab   8c9b     call    0xc9b            	CALL	__gptrget1
0001ac   5661     movra   0x61             	MOVRA	_LV_Dig4_SG1_8
                                           ;	.line	2068; "123.c"	LV_Dig3_SG1_8 = C_NumberTable[GV_RunDayTenDig];   //Dig3 Day Ten Digit 
0001ad   584a     movar   0x4a             	MOVAR	_GV_RunDayTenDig
0001ae   3ff0     addai   0xf0             	ADDAI	(_C_NumberTable + 0)
0001af   5619     movra   0x19             	MOVRA	r0x104D
0001b0   3c0f     movai   0xf              	MOVAI	high (_C_NumberTable + 0)
0001b1   f187     jbclr   0x187, 0         	JBCLR	PFLAG,0
0001b2   3f01     addai   0x1              	ADDAI	0x01
0001b3   561a     movra   0x1a             	MOVRA	r0x104E
0001b4   5819     movar   0x19             	MOVAR	r0x104D
0001b5   5605     movra   0x5              	MOVRA	STK01
0001b6   581a     movar   0x1a             	MOVAR	r0x104E
0001b7   5606     movra   0x6              	MOVRA	STK00
0001b8   3c80     movai   0x80             	MOVAI	0x80
0001b9   8c9b     call    0xc9b            	CALL	__gptrget1
0001ba   5660     movra   0x60             	MOVRA	_LV_Dig3_SG1_8
                                           ;	.line	2070; "123.c"	LV_Dig13_SG1_8 |= 0x80;//1000 0000;//Dig13/H13 DAY 	
0001bb   ce6a     bset    0x6a, 0x7        	BSET	_LV_Dig13_SG1_8,7
                                           ;	.line	2073; "123.c"	Sub_Read1302(C_DS1302_Hour);//C_DS1302_Hour
0001bc   3c84     movai   0x84             	MOVAI	0x84
0001bd   8c50     call    0xc50            	CALL	_Sub_Read1302
                                           ;	.line	2074; "123.c"	GV_RunRealTimeClockHrSingleDig = GV_GetByteFromDs1302 & 0x0F;
0001be   3c0f     movai   0xf              	MOVAI	0x0f
0001bf   7839     andar   0x39             	ANDAR	_GV_GetByteFromDs1302
0001c0   564f     movra   0x4f             	MOVRA	_GV_RunRealTimeClockHrSingleDig
                                           ;	.line	2075; "123.c"	LV_TempA = GV_GetByteFromDs1302 >> 4;
0001c1   4439     swapar  0x39             	SWAPAR	_GV_GetByteFromDs1302
0001c2   3e0f     andai   0xf              	ANDAI	0x0f
0001c3   566b     movra   0x6b             	MOVRA	_LV_TempA
                                           ;	.line	2076; "123.c"	LV_TempB = LV_TempA;
0001c4   586b     movar   0x6b             	MOVAR	_LV_TempA
0001c5   566c     movra   0x6c             	MOVRA	_LV_TempB
                                           ;	.line	2077; "123.c"	GV_RunRealTimeClockHrTenDig = LV_TempB & 0x01; 
0001c6   3c01     movai   0x1              	MOVAI	0x01
0001c7   786c     andar   0x6c             	ANDAR	_LV_TempB
0001c8   5650     movra   0x50             	MOVRA	_GV_RunRealTimeClockHrTenDig
                                           ;	.line	2079; "123.c"	LV_Dig10_SG1_8 = C_NumberTable[GV_RunRealTimeClockHrSingleDig];//Dig10 RealTimeClockHr Single Digit    	   	   	
0001c9   584f     movar   0x4f             	MOVAR	_GV_RunRealTimeClockHrSingleDig
0001ca   3ff0     addai   0xf0             	ADDAI	(_C_NumberTable + 0)
0001cb   5619     movra   0x19             	MOVRA	r0x104D
0001cc   3c0f     movai   0xf              	MOVAI	high (_C_NumberTable + 0)
0001cd   f187     jbclr   0x187, 0         	JBCLR	PFLAG,0
0001ce   3f01     addai   0x1              	ADDAI	0x01
0001cf   561a     movra   0x1a             	MOVRA	r0x104E
0001d0   5819     movar   0x19             	MOVAR	r0x104D
0001d1   5605     movra   0x5              	MOVRA	STK01
0001d2   581a     movar   0x1a             	MOVAR	r0x104E
0001d3   5606     movra   0x6              	MOVRA	STK00
0001d4   3c80     movai   0x80             	MOVAI	0x80
0001d5   8c9b     call    0xc9b            	CALL	__gptrget1
0001d6   5667     movra   0x67             	MOVRA	_LV_Dig10_SG1_8
                                           ;	.line	2080; "123.c"	LV_Dig9_SG1_8 = C_NumberTable[GV_RunRealTimeClockHrTenDig];    //Dig9 RealTimeClockHr Ten Digit
0001d7   5850     movar   0x50             	MOVAR	_GV_RunRealTimeClockHrTenDig
0001d8   3ff0     addai   0xf0             	ADDAI	(_C_NumberTable + 0)
0001d9   5619     movra   0x19             	MOVRA	r0x104D
0001da   3c0f     movai   0xf              	MOVAI	high (_C_NumberTable + 0)
0001db   f187     jbclr   0x187, 0         	JBCLR	PFLAG,0
0001dc   3f01     addai   0x1              	ADDAI	0x01
0001dd   561a     movra   0x1a             	MOVRA	r0x104E
0001de   5819     movar   0x19             	MOVAR	r0x104D
0001df   5605     movra   0x5              	MOVRA	STK01
0001e0   581a     movar   0x1a             	MOVAR	r0x104E
0001e1   5606     movra   0x6              	MOVRA	STK00
0001e2   3c80     movai   0x80             	MOVAI	0x80
0001e3   8c9b     call    0xc9b            	CALL	__gptrget1
0001e4   5666     movra   0x66             	MOVRA	_LV_Dig9_SG1_8
                                           ;	.line	2081; "123.c"	LV_TempA = LV_TempA & 0x02;//0000 0010
0001e5   3c02     movai   0x2              	MOVAI	0x02
0001e6   7a6b     andra   0x6b             	ANDRA	_LV_TempA
                                           ;	.line	2082; "123.c"	if(LV_TempA) 
0001e7   3c00     movai   0                	MOVAI	0x00
0001e8   5c6b     orar    0x6b             	ORAR	_LV_TempA
0001e9   f587     jbclr   0x187, 0x2       	JBCLR	PFLAG,2
0001ea   a1ee     goto    0x1ee            	GOTO	_01183_DS_
                                           ;	.line	2084; "123.c"	LV_Dig13_SG1_8 |= 0x70;//0111 0000;//Dig13/E13/F13/G13 	PM
0001eb   3c70     movai   0x70             	MOVAI	0x70
0001ec   5e6a     orra    0x6a             	ORRA	_LV_Dig13_SG1_8
0001ed   a1f0     goto    0x1f0            	GOTO	_01184_DS_
                                           _01183_DS_
                                           ;	.line	2088; "123.c"	LV_Dig13_SG1_8 |= 0x0E;//0000 1110;//Dig13/B13/C13/D13 	AM
0001ee   3c0e     movai   0xe              	MOVAI	0x0e
0001ef   5e6a     orra    0x6a             	ORRA	_LV_Dig13_SG1_8
                                           _01184_DS_
                                           ;	.line	2091; "123.c"	Sub_Read1302(C_DS1302_Minute);//C_DS1302_Minute
0001f0   3c82     movai   0x82             	MOVAI	0x82
0001f1   8c50     call    0xc50            	CALL	_Sub_Read1302
                                           ;	.line	2092; "123.c"	GV_RunRealTimeClockMinSingleDig = GV_GetByteFromDs1302 & 0x0F;
0001f2   3c0f     movai   0xf              	MOVAI	0x0f
0001f3   7839     andar   0x39             	ANDAR	_GV_GetByteFromDs1302
0001f4   5651     movra   0x51             	MOVRA	_GV_RunRealTimeClockMinSingleDig
                                           ;	.line	2093; "123.c"	GV_RunRealTimeClockMinTenDig = GV_GetByteFromDs1302 >> 4;
0001f5   4439     swapar  0x39             	SWAPAR	_GV_GetByteFromDs1302
0001f6   3e0f     andai   0xf              	ANDAI	0x0f
0001f7   5652     movra   0x52             	MOVRA	_GV_RunRealTimeClockMinTenDig
                                           ;	.line	2094; "123.c"	LV_Dig12_SG1_8 = C_NumberTable[GV_RunRealTimeClockMinSingleDig];//Dig12 RealTimeClockMin Single Digit  	   	   	
0001f8   5851     movar   0x51             	MOVAR	_GV_RunRealTimeClockMinSingleDig
0001f9   3ff0     addai   0xf0             	ADDAI	(_C_NumberTable + 0)
0001fa   5619     movra   0x19             	MOVRA	r0x104D
0001fb   3c0f     movai   0xf              	MOVAI	high (_C_NumberTable + 0)
0001fc   f187     jbclr   0x187, 0         	JBCLR	PFLAG,0
0001fd   3f01     addai   0x1              	ADDAI	0x01
0001fe   561a     movra   0x1a             	MOVRA	r0x104E
0001ff   5819     movar   0x19             	MOVAR	r0x104D
000200   5605     movra   0x5              	MOVRA	STK01
000201   581a     movar   0x1a             	MOVAR	r0x104E
000202   5606     movra   0x6              	MOVRA	STK00
000203   3c80     movai   0x80             	MOVAI	0x80
000204   8c9b     call    0xc9b            	CALL	__gptrget1
000205   5669     movra   0x69             	MOVRA	_LV_Dig12_SG1_8
                                           ;	.line	2095; "123.c"	LV_Dig11_SG1_8 = C_NumberTable[GV_RunRealTimeClockMinTenDig];   //Dig11 RealTimeClockMin Ten Digit 
000206   5852     movar   0x52             	MOVAR	_GV_RunRealTimeClockMinTenDig
000207   3ff0     addai   0xf0             	ADDAI	(_C_NumberTable + 0)
000208   5619     movra   0x19             	MOVRA	r0x104D
000209   3c0f     movai   0xf              	MOVAI	high (_C_NumberTable + 0)
00020a   f187     jbclr   0x187, 0         	JBCLR	PFLAG,0
00020b   3f01     addai   0x1              	ADDAI	0x01
00020c   561a     movra   0x1a             	MOVRA	r0x104E
00020d   5819     movar   0x19             	MOVAR	r0x104D
00020e   5605     movra   0x5              	MOVRA	STK01
00020f   581a     movar   0x1a             	MOVAR	r0x104E
000210   5606     movra   0x6              	MOVRA	STK00
000211   3c80     movai   0x80             	MOVAI	0x80
000212   8c9b     call    0xc9b            	CALL	__gptrget1
000213   5668     movra   0x68             	MOVRA	_LV_Dig11_SG1_8
                                           ;	.line	2098; "123.c"	if(BF_Clock500ms)//On H3,H4
000214   e227     jbset   0x27, 0x1        	JBSET	_UserFlag,1
000215   a45c     goto    0x45c            	GOTO	_01238_DS_
                                           ;	.line	2100; "123.c"	LV_Dig3_SG1_8 |= 0x80;//1000 0000;//Dig3/H3
000216   ce60     bset    0x60, 0x7        	BSET	_LV_Dig3_SG1_8,7
                                           ;	.line	2101; "123.c"	LV_Dig4_SG1_8 |= 0x80;//1000 0000;//Dig4/H4	   	   	   	   	
000217   ce61     bset    0x61, 0x7        	BSET	_LV_Dig4_SG1_8,7
000218   a45c     goto    0x45c            	GOTO	_01238_DS_
                                           _01237_DS_
                                           ;	.line	2104; "123.c"	else if(GV_Mode==1)
000219   5834     movar   0x34             	MOVAR	_GV_Mode
00021a   3901     xorai   0x1              	XORAI	0x01
00021b   e587     jbset   0x187, 0x2       	JBSET	PFLAG,2
00021c   a341     goto    0x341            	GOTO	_01234_DS_
                                           ;	.line	2106; "123.c"	LV_Dig8_SG1_8 = C_NumberTable[GV_SetYearSingleDig];  //Dig8 Year Single Digit  	   	   	   	   	
00021d   583b     movar   0x3b             	MOVAR	_GV_SetYearSingleDig
00021e   3ff0     addai   0xf0             	ADDAI	(_C_NumberTable + 0)
00021f   5619     movra   0x19             	MOVRA	r0x104D
000220   3c0f     movai   0xf              	MOVAI	high (_C_NumberTable + 0)
000221   f187     jbclr   0x187, 0         	JBCLR	PFLAG,0
000222   3f01     addai   0x1              	ADDAI	0x01
000223   561a     movra   0x1a             	MOVRA	r0x104E
000224   5819     movar   0x19             	MOVAR	r0x104D
000225   5605     movra   0x5              	MOVRA	STK01
000226   581a     movar   0x1a             	MOVAR	r0x104E
000227   5606     movra   0x6              	MOVRA	STK00
000228   3c80     movai   0x80             	MOVAI	0x80
000229   8c9b     call    0xc9b            	CALL	__gptrget1
00022a   5665     movra   0x65             	MOVRA	_LV_Dig8_SG1_8
                                           ;	.line	2107; "123.c"	LV_Dig7_SG1_8 = C_NumberTable[GV_SetYearTenDig];     //Dig7 Year Ten Digit
00022b   583c     movar   0x3c             	MOVAR	_GV_SetYearTenDig
00022c   3ff0     addai   0xf0             	ADDAI	(_C_NumberTable + 0)
00022d   5619     movra   0x19             	MOVRA	r0x104D
00022e   3c0f     movai   0xf              	MOVAI	high (_C_NumberTable + 0)
00022f   f187     jbclr   0x187, 0         	JBCLR	PFLAG,0
000230   3f01     addai   0x1              	ADDAI	0x01
000231   561a     movra   0x1a             	MOVRA	r0x104E
000232   5819     movar   0x19             	MOVAR	r0x104D
000233   5605     movra   0x5              	MOVRA	STK01
000234   581a     movar   0x1a             	MOVAR	r0x104E
000235   5606     movra   0x6              	MOVRA	STK00
000236   3c80     movai   0x80             	MOVAI	0x80
000237   8c9b     call    0xc9b            	CALL	__gptrget1
000238   5664     movra   0x64             	MOVRA	_LV_Dig7_SG1_8
                                           ;	.line	2108; "123.c"	LV_Dig6_SG1_8 = C_NumberTable[GV_SetYearHundredsDig];//Dig6 Year Hundreds Digit
000239   583d     movar   0x3d             	MOVAR	_GV_SetYearHundredsDig
00023a   3ff0     addai   0xf0             	ADDAI	(_C_NumberTable + 0)
00023b   5619     movra   0x19             	MOVRA	r0x104D
00023c   3c0f     movai   0xf              	MOVAI	high (_C_NumberTable + 0)
00023d   f187     jbclr   0x187, 0         	JBCLR	PFLAG,0
00023e   3f01     addai   0x1              	ADDAI	0x01
00023f   561a     movra   0x1a             	MOVRA	r0x104E
000240   5819     movar   0x19             	MOVAR	r0x104D
000241   5605     movra   0x5              	MOVRA	STK01
000242   581a     movar   0x1a             	MOVAR	r0x104E
000243   5606     movra   0x6              	MOVRA	STK00
000244   3c80     movai   0x80             	MOVAI	0x80
000245   8c9b     call    0xc9b            	CALL	__gptrget1
000246   5663     movra   0x63             	MOVRA	_LV_Dig6_SG1_8
                                           ;	.line	2109; "123.c"	LV_Dig5_SG1_8 = C_NumberTable[GV_SetYearthousandDig];//Dig5 Year thousand Digit
000247   583e     movar   0x3e             	MOVAR	_GV_SetYearthousandDig
000248   3ff0     addai   0xf0             	ADDAI	(_C_NumberTable + 0)
000249   5619     movra   0x19             	MOVRA	r0x104D
00024a   3c0f     movai   0xf              	MOVAI	high (_C_NumberTable + 0)
00024b   f187     jbclr   0x187, 0         	JBCLR	PFLAG,0
00024c   3f01     addai   0x1              	ADDAI	0x01
00024d   561a     movra   0x1a             	MOVRA	r0x104E
00024e   5819     movar   0x19             	MOVAR	r0x104D
00024f   5605     movra   0x5              	MOVRA	STK01
000250   581a     movar   0x1a             	MOVAR	r0x104E
000251   5606     movra   0x6              	MOVRA	STK00
000252   3c80     movai   0x80             	MOVAI	0x80
000253   8c9b     call    0xc9b            	CALL	__gptrget1
000254   5662     movra   0x62             	MOVRA	_LV_Dig5_SG1_8
                                           ;	.line	2113; "123.c"	LV_Dig2_SG1_8 = C_NumberTable[GV_SetMonthSingleDig];//Dig2 	month Single Digit 	   	   	
000255   5843     movar   0x43             	MOVAR	_GV_SetMonthSingleDig
000256   3ff0     addai   0xf0             	ADDAI	(_C_NumberTable + 0)
000257   5619     movra   0x19             	MOVRA	r0x104D
000258   3c0f     movai   0xf              	MOVAI	high (_C_NumberTable + 0)
000259   f187     jbclr   0x187, 0         	JBCLR	PFLAG,0
00025a   3f01     addai   0x1              	ADDAI	0x01
00025b   561a     movra   0x1a             	MOVRA	r0x104E
00025c   5819     movar   0x19             	MOVAR	r0x104D
00025d   5605     movra   0x5              	MOVRA	STK01
00025e   581a     movar   0x1a             	MOVAR	r0x104E
00025f   5606     movra   0x6              	MOVRA	STK00
000260   3c80     movai   0x80             	MOVAI	0x80
000261   8c9b     call    0xc9b            	CALL	__gptrget1
000262   565f     movra   0x5f             	MOVRA	_LV_Dig2_SG1_8
                                           ;	.line	2114; "123.c"	LV_Dig1_SG1_8 = C_NumberTable[GV_SetMonthTenDig];   //Dig1 	month Ten Digit 
000263   5844     movar   0x44             	MOVAR	_GV_SetMonthTenDig
000264   3ff0     addai   0xf0             	ADDAI	(_C_NumberTable + 0)
000265   5619     movra   0x19             	MOVRA	r0x104D
000266   3c0f     movai   0xf              	MOVAI	high (_C_NumberTable + 0)
000267   f187     jbclr   0x187, 0         	JBCLR	PFLAG,0
000268   3f01     addai   0x1              	ADDAI	0x01
000269   561a     movra   0x1a             	MOVRA	r0x104E
00026a   5819     movar   0x19             	MOVAR	r0x104D
00026b   5605     movra   0x5              	MOVRA	STK01
00026c   581a     movar   0x1a             	MOVAR	r0x104E
00026d   5606     movra   0x6              	MOVRA	STK00
00026e   3c80     movai   0x80             	MOVAI	0x80
00026f   8c9b     call    0xc9b            	CALL	__gptrget1
000270   565e     movra   0x5e             	MOVRA	_LV_Dig1_SG1_8
                                           ;	.line	2120; "123.c"	LV_Dig4_SG1_8 = C_NumberTable[GV_SetDaySingleDig];//Dig4 Day Single Digit  	   	   	
000271   5847     movar   0x47             	MOVAR	_GV_SetDaySingleDig
000272   3ff0     addai   0xf0             	ADDAI	(_C_NumberTable + 0)
000273   5619     movra   0x19             	MOVRA	r0x104D
000274   3c0f     movai   0xf              	MOVAI	high (_C_NumberTable + 0)
000275   f187     jbclr   0x187, 0         	JBCLR	PFLAG,0
000276   3f01     addai   0x1              	ADDAI	0x01
000277   561a     movra   0x1a             	MOVRA	r0x104E
000278   5819     movar   0x19             	MOVAR	r0x104D
000279   5605     movra   0x5              	MOVRA	STK01
00027a   581a     movar   0x1a             	MOVAR	r0x104E
00027b   5606     movra   0x6              	MOVRA	STK00
00027c   3c80     movai   0x80             	MOVAI	0x80
00027d   8c9b     call    0xc9b            	CALL	__gptrget1
00027e   5661     movra   0x61             	MOVRA	_LV_Dig4_SG1_8
                                           ;	.line	2121; "123.c"	LV_Dig3_SG1_8 = C_NumberTable[GV_SetDayTenDig];   //Dig3 Day Ten Digit 
00027f   5848     movar   0x48             	MOVAR	_GV_SetDayTenDig
000280   3ff0     addai   0xf0             	ADDAI	(_C_NumberTable + 0)
000281   5619     movra   0x19             	MOVRA	r0x104D
000282   3c0f     movai   0xf              	MOVAI	high (_C_NumberTable + 0)
000283   f187     jbclr   0x187, 0         	JBCLR	PFLAG,0
000284   3f01     addai   0x1              	ADDAI	0x01
000285   561a     movra   0x1a             	MOVRA	r0x104E
000286   5819     movar   0x19             	MOVAR	r0x104D
000287   5605     movra   0x5              	MOVRA	STK01
000288   581a     movar   0x1a             	MOVAR	r0x104E
000289   5606     movra   0x6              	MOVRA	STK00
00028a   3c80     movai   0x80             	MOVAI	0x80
00028b   8c9b     call    0xc9b            	CALL	__gptrget1
00028c   5660     movra   0x60             	MOVRA	_LV_Dig3_SG1_8
                                           ;	.line	2123; "123.c"	LV_Dig13_SG1_8 |= 0x80;//1000 0000;//Dig13/H13 DAY
00028d   3c81     movai   0x81             	MOVAI	0x81
00028e   566a     movra   0x6a             	MOVRA	_LV_Dig13_SG1_8
                                           ;	.line	2126; "123.c"	LV_Dig10_SG1_8 = C_NumberTable[GV_SetRealTimeClockHrSingleDig];//Dig10 RealTimeClockHr Single Digit    	   	   	   	
00028f   584b     movar   0x4b             	MOVAR	_GV_SetRealTimeClockHrSingleDig
000290   3ff0     addai   0xf0             	ADDAI	(_C_NumberTable + 0)
000291   5619     movra   0x19             	MOVRA	r0x104D
000292   3c0f     movai   0xf              	MOVAI	high (_C_NumberTable + 0)
000293   f187     jbclr   0x187, 0         	JBCLR	PFLAG,0
000294   3f01     addai   0x1              	ADDAI	0x01
000295   561a     movra   0x1a             	MOVRA	r0x104E
000296   5819     movar   0x19             	MOVAR	r0x104D
000297   5605     movra   0x5              	MOVRA	STK01
000298   581a     movar   0x1a             	MOVAR	r0x104E
000299   5606     movra   0x6              	MOVRA	STK00
00029a   3c80     movai   0x80             	MOVAI	0x80
00029b   8c9b     call    0xc9b            	CALL	__gptrget1
00029c   5667     movra   0x67             	MOVRA	_LV_Dig10_SG1_8
                                           ;	.line	2127; "123.c"	LV_Dig9_SG1_8 = C_NumberTable[GV_SetRealTimeClockHrTenDig];    //Dig9 RealTimeClockHr Ten Digit 
00029d   584c     movar   0x4c             	MOVAR	_GV_SetRealTimeClockHrTenDig
00029e   3ff0     addai   0xf0             	ADDAI	(_C_NumberTable + 0)
00029f   5619     movra   0x19             	MOVRA	r0x104D
0002a0   3c0f     movai   0xf              	MOVAI	high (_C_NumberTable + 0)
0002a1   f187     jbclr   0x187, 0         	JBCLR	PFLAG,0
0002a2   3f01     addai   0x1              	ADDAI	0x01
0002a3   561a     movra   0x1a             	MOVRA	r0x104E
0002a4   5819     movar   0x19             	MOVAR	r0x104D
0002a5   5605     movra   0x5              	MOVRA	STK01
0002a6   581a     movar   0x1a             	MOVAR	r0x104E
0002a7   5606     movra   0x6              	MOVRA	STK00
0002a8   3c80     movai   0x80             	MOVAI	0x80
0002a9   8c9b     call    0xc9b            	CALL	__gptrget1
0002aa   5666     movra   0x66             	MOVRA	_LV_Dig9_SG1_8
                                           ;	.line	2128; "123.c"	if(BF_SetRealTimeClockAM_PM) 
0002ab   e427     jbset   0x27, 0x2        	JBSET	_UserFlag,2
0002ac   a2b0     goto    0x2b0            	GOTO	_01188_DS_
                                           ;	.line	2130; "123.c"	LV_Dig13_SG1_8 |= 0x70;//0111 0000;//Dig13/E13/F13/G13 	PM
0002ad   3cf1     movai   0xf1             	MOVAI	0xf1
0002ae   566a     movra   0x6a             	MOVRA	_LV_Dig13_SG1_8
0002af   a2b2     goto    0x2b2            	GOTO	_01189_DS_
                                           _01188_DS_
                                           ;	.line	2134; "123.c"	LV_Dig13_SG1_8 |= 0x0E;//0000 1110;//Dig13/B13/C13/D13 	AM
0002b0   3c8f     movai   0x8f             	MOVAI	0x8f
0002b1   566a     movra   0x6a             	MOVRA	_LV_Dig13_SG1_8
                                           _01189_DS_
                                           ;	.line	2138; "123.c"	LV_Dig12_SG1_8 = C_NumberTable[GV_SetRealTimeClockMinSingleDig];//Dig12 RealTimeClockMin Single Digit  	   	   	
0002b2   584d     movar   0x4d             	MOVAR	_GV_SetRealTimeClockMinSingleDig
0002b3   3ff0     addai   0xf0             	ADDAI	(_C_NumberTable + 0)
0002b4   5619     movra   0x19             	MOVRA	r0x104D
0002b5   3c0f     movai   0xf              	MOVAI	high (_C_NumberTable + 0)
0002b6   f187     jbclr   0x187, 0         	JBCLR	PFLAG,0
0002b7   3f01     addai   0x1              	ADDAI	0x01
0002b8   561a     movra   0x1a             	MOVRA	r0x104E
0002b9   5819     movar   0x19             	MOVAR	r0x104D
0002ba   5605     movra   0x5              	MOVRA	STK01
0002bb   581a     movar   0x1a             	MOVAR	r0x104E
0002bc   5606     movra   0x6              	MOVRA	STK00
0002bd   3c80     movai   0x80             	MOVAI	0x80
0002be   8c9b     call    0xc9b            	CALL	__gptrget1
0002bf   5669     movra   0x69             	MOVRA	_LV_Dig12_SG1_8
                                           ;	.line	2139; "123.c"	LV_Dig11_SG1_8 = C_NumberTable[GV_SetRealTimeClockMinTenDig];   //Dig11 RealTimeClockMin Ten Digit 	   	   	   	   	   	   	   	
0002c0   584e     movar   0x4e             	MOVAR	_GV_SetRealTimeClockMinTenDig
0002c1   3ff0     addai   0xf0             	ADDAI	(_C_NumberTable + 0)
0002c2   5619     movra   0x19             	MOVRA	r0x104D
0002c3   3c0f     movai   0xf              	MOVAI	high (_C_NumberTable + 0)
0002c4   f187     jbclr   0x187, 0         	JBCLR	PFLAG,0
0002c5   3f01     addai   0x1              	ADDAI	0x01
0002c6   561a     movra   0x1a             	MOVRA	r0x104E
0002c7   5819     movar   0x19             	MOVAR	r0x104D
0002c8   5605     movra   0x5              	MOVRA	STK01
0002c9   581a     movar   0x1a             	MOVAR	r0x104E
0002ca   5606     movra   0x6              	MOVRA	STK00
0002cb   3c80     movai   0x80             	MOVAI	0x80
0002cc   8c9b     call    0xc9b            	CALL	__gptrget1
0002cd   5668     movra   0x68             	MOVRA	_LV_Dig11_SG1_8
                                           ;	.line	2142; "123.c"	if((BF_Up_AlLongKeyPressesd == 0)&&(BF_DownLongKeyPressesd == 0))
0002ce   fa27     jbclr   0x27, 0x5        	JBCLR	_UserFlag,5
0002cf   a45c     goto    0x45c            	GOTO	_01238_DS_
0002d0   fe27     jbclr   0x27, 0x7        	JBCLR	_UserFlag,7
0002d1   a45c     goto    0x45c            	GOTO	_01238_DS_
                                           ;	.line	2144; "123.c"	if(BF_Clock500ms == 0)//Off Real Time Clock Digit
0002d2   f227     jbclr   0x27, 0x1        	JBCLR	_UserFlag,1
0002d3   a45c     goto    0x45c            	GOTO	_01238_DS_
                                           ;	.line	2146; "123.c"	if(GV_RealTimeClockSetStep==0) 	
0002d4   3c00     movai   0                	MOVAI	0x00
0002d5   5c35     orar    0x35             	ORAR	_GV_RealTimeClockSetStep
0002d6   e587     jbset   0x187, 0x2       	JBSET	PFLAG,2
0002d7   a2f5     goto    0x2f5            	GOTO	_01202_DS_
                                           ;	.line	2148; "123.c"	LV_Dig8_SG1_8 = C_NumberTable[11];  //Dig8 Year Single Digit No Display	   	   	   	   	   	   	   	   	
0002d8   3cfb     movai   0xfb             	MOVAI	(_C_NumberTable + 11)
0002d9   5605     movra   0x5              	MOVRA	STK01
0002da   3c0f     movai   0xf              	MOVAI	high (_C_NumberTable + 11)
0002db   5606     movra   0x6              	MOVRA	STK00
0002dc   3c80     movai   0x80             	MOVAI	0x80
0002dd   8c9b     call    0xc9b            	CALL	__gptrget1
0002de   5665     movra   0x65             	MOVRA	_LV_Dig8_SG1_8
                                           ;	.line	2149; "123.c"	LV_Dig7_SG1_8 = C_NumberTable[11];  //Dig7 Year Ten Digit No Display
0002df   3cfb     movai   0xfb             	MOVAI	(_C_NumberTable + 11)
0002e0   5605     movra   0x5              	MOVRA	STK01
0002e1   3c0f     movai   0xf              	MOVAI	high (_C_NumberTable + 11)
0002e2   5606     movra   0x6              	MOVRA	STK00
0002e3   3c80     movai   0x80             	MOVAI	0x80
0002e4   8c9b     call    0xc9b            	CALL	__gptrget1
0002e5   5664     movra   0x64             	MOVRA	_LV_Dig7_SG1_8
                                           ;	.line	2150; "123.c"	LV_Dig6_SG1_8 = C_NumberTable[11];  //Dig6 Year Hundreds Digit No Display
0002e6   3cfb     movai   0xfb             	MOVAI	(_C_NumberTable + 11)
0002e7   5605     movra   0x5              	MOVRA	STK01
0002e8   3c0f     movai   0xf              	MOVAI	high (_C_NumberTable + 11)
0002e9   5606     movra   0x6              	MOVRA	STK00
0002ea   3c80     movai   0x80             	MOVAI	0x80
0002eb   8c9b     call    0xc9b            	CALL	__gptrget1
0002ec   5663     movra   0x63             	MOVRA	_LV_Dig6_SG1_8
                                           ;	.line	2151; "123.c"	LV_Dig5_SG1_8 = C_NumberTable[11];  //Dig5 Year thousand Digit No Display      	   	   	   	   	   	   	   	
0002ed   3cfb     movai   0xfb             	MOVAI	(_C_NumberTable + 11)
0002ee   5605     movra   0x5              	MOVRA	STK01
0002ef   3c0f     movai   0xf              	MOVAI	high (_C_NumberTable + 11)
0002f0   5606     movra   0x6              	MOVRA	STK00
0002f1   3c80     movai   0x80             	MOVAI	0x80
0002f2   8c9b     call    0xc9b            	CALL	__gptrget1
0002f3   5662     movra   0x62             	MOVRA	_LV_Dig5_SG1_8
0002f4   a45c     goto    0x45c            	GOTO	_01238_DS_
                                           _01202_DS_
                                           ;	.line	2153; "123.c"	else if(GV_RealTimeClockSetStep==1)  	
0002f5   5835     movar   0x35             	MOVAR	_GV_RealTimeClockSetStep
0002f6   3901     xorai   0x1              	XORAI	0x01
0002f7   e587     jbset   0x187, 0x2       	JBSET	PFLAG,2
0002f8   a308     goto    0x308            	GOTO	_01199_DS_
                                           ;	.line	2155; "123.c"	LV_Dig2_SG1_8 = C_NumberTable[11];  //Dig2 month Single Digit No Display   	   	   	   	
0002f9   3cfb     movai   0xfb             	MOVAI	(_C_NumberTable + 11)
0002fa   5605     movra   0x5              	MOVRA	STK01
0002fb   3c0f     movai   0xf              	MOVAI	high (_C_NumberTable + 11)
0002fc   5606     movra   0x6              	MOVRA	STK00
0002fd   3c80     movai   0x80             	MOVAI	0x80
0002fe   8c9b     call    0xc9b            	CALL	__gptrget1
0002ff   565f     movra   0x5f             	MOVRA	_LV_Dig2_SG1_8
                                           ;	.line	2156; "123.c"	LV_Dig1_SG1_8 = C_NumberTable[11];  //Dig1 month Ten Digit No Display  	   	   	   	   	   	   	   	   	
000300   3cfb     movai   0xfb             	MOVAI	(_C_NumberTable + 11)
000301   5605     movra   0x5              	MOVRA	STK01
000302   3c0f     movai   0xf              	MOVAI	high (_C_NumberTable + 11)
000303   5606     movra   0x6              	MOVRA	STK00
000304   3c80     movai   0x80             	MOVAI	0x80
000305   8c9b     call    0xc9b            	CALL	__gptrget1
000306   565e     movra   0x5e             	MOVRA	_LV_Dig1_SG1_8
000307   a45c     goto    0x45c            	GOTO	_01238_DS_
                                           _01199_DS_
                                           ;	.line	2158; "123.c"	else if(GV_RealTimeClockSetStep==2)	
000308   5835     movar   0x35             	MOVAR	_GV_RealTimeClockSetStep
000309   3902     xorai   0x2              	XORAI	0x02
00030a   e587     jbset   0x187, 0x2       	JBSET	PFLAG,2
00030b   a31b     goto    0x31b            	GOTO	_01196_DS_
                                           ;	.line	2160; "123.c"	LV_Dig4_SG1_8 = C_NumberTable[11];  //Dig4 Day Single Digit No Display 	   	   	
00030c   3cfb     movai   0xfb             	MOVAI	(_C_NumberTable + 11)
00030d   5605     movra   0x5              	MOVRA	STK01
00030e   3c0f     movai   0xf              	MOVAI	high (_C_NumberTable + 11)
00030f   5606     movra   0x6              	MOVRA	STK00
000310   3c80     movai   0x80             	MOVAI	0x80
000311   8c9b     call    0xc9b            	CALL	__gptrget1
000312   5661     movra   0x61             	MOVRA	_LV_Dig4_SG1_8
                                           ;	.line	2161; "123.c"	LV_Dig3_SG1_8 = C_NumberTable[11];  //Dig3 Day Ten Digit No Display    	   	   	   	   	   	   	   	
000313   3cfb     movai   0xfb             	MOVAI	(_C_NumberTable + 11)
000314   5605     movra   0x5              	MOVRA	STK01
000315   3c0f     movai   0xf              	MOVAI	high (_C_NumberTable + 11)
000316   5606     movra   0x6              	MOVRA	STK00
000317   3c80     movai   0x80             	MOVAI	0x80
000318   8c9b     call    0xc9b            	CALL	__gptrget1
000319   5660     movra   0x60             	MOVRA	_LV_Dig3_SG1_8
00031a   a45c     goto    0x45c            	GOTO	_01238_DS_
                                           _01196_DS_
                                           ;	.line	2163; "123.c"	else if(GV_RealTimeClockSetStep==3)	
00031b   5835     movar   0x35             	MOVAR	_GV_RealTimeClockSetStep
00031c   3903     xorai   0x3              	XORAI	0x03
00031d   e587     jbset   0x187, 0x2       	JBSET	PFLAG,2
00031e   a32e     goto    0x32e            	GOTO	_01193_DS_
                                           ;	.line	2165; "123.c"	LV_Dig10_SG1_8 = C_NumberTable[11]; //Dig10 RealTimeClockHr Single Digit No Display      	   	   	
00031f   3cfb     movai   0xfb             	MOVAI	(_C_NumberTable + 11)
000320   5605     movra   0x5              	MOVRA	STK01
000321   3c0f     movai   0xf              	MOVAI	high (_C_NumberTable + 11)
000322   5606     movra   0x6              	MOVRA	STK00
000323   3c80     movai   0x80             	MOVAI	0x80
000324   8c9b     call    0xc9b            	CALL	__gptrget1
000325   5667     movra   0x67             	MOVRA	_LV_Dig10_SG1_8
                                           ;	.line	2166; "123.c"	LV_Dig9_SG1_8 = C_NumberTable[11];  //Dig9 RealTimeClockHr Ten Digit No Display    	   	   	   	   	   	   	   	
000326   3cfb     movai   0xfb             	MOVAI	(_C_NumberTable + 11)
000327   5605     movra   0x5              	MOVRA	STK01
000328   3c0f     movai   0xf              	MOVAI	high (_C_NumberTable + 11)
000329   5606     movra   0x6              	MOVRA	STK00
00032a   3c80     movai   0x80             	MOVAI	0x80
00032b   8c9b     call    0xc9b            	CALL	__gptrget1
00032c   5666     movra   0x66             	MOVRA	_LV_Dig9_SG1_8
00032d   a45c     goto    0x45c            	GOTO	_01238_DS_
                                           _01193_DS_
                                           ;	.line	2168; "123.c"	else if(GV_RealTimeClockSetStep==4)	
00032e   5835     movar   0x35             	MOVAR	_GV_RealTimeClockSetStep
00032f   3904     xorai   0x4              	XORAI	0x04
000330   e587     jbset   0x187, 0x2       	JBSET	PFLAG,2
000331   a45c     goto    0x45c            	GOTO	_01238_DS_
                                           ;	.line	2170; "123.c"	LV_Dig12_SG1_8 = C_NumberTable[11]; //Dig12 RealTimeClockMin Single Digit No Display   	   	   	
000332   3cfb     movai   0xfb             	MOVAI	(_C_NumberTable + 11)
000333   5605     movra   0x5              	MOVRA	STK01
000334   3c0f     movai   0xf              	MOVAI	high (_C_NumberTable + 11)
000335   5606     movra   0x6              	MOVRA	STK00
000336   3c80     movai   0x80             	MOVAI	0x80
000337   8c9b     call    0xc9b            	CALL	__gptrget1
000338   5669     movra   0x69             	MOVRA	_LV_Dig12_SG1_8
                                           ;	.line	2171; "123.c"	LV_Dig11_SG1_8 = C_NumberTable[11]; //Dig11 RealTimeClockMin Ten Digit No Display      	   	   	   	   	   	   	   	
000339   3cfb     movai   0xfb             	MOVAI	(_C_NumberTable + 11)
00033a   5605     movra   0x5              	MOVRA	STK01
00033b   3c0f     movai   0xf              	MOVAI	high (_C_NumberTable + 11)
00033c   5606     movra   0x6              	MOVRA	STK00
00033d   3c80     movai   0x80             	MOVAI	0x80
00033e   8c9b     call    0xc9b            	CALL	__gptrget1
00033f   5668     movra   0x68             	MOVRA	_LV_Dig11_SG1_8
000340   a45c     goto    0x45c            	GOTO	_01238_DS_
                                           _01234_DS_
                                           ;	.line	2182; "123.c"	else if(GV_Mode==2)
000341   5834     movar   0x34             	MOVAR	_GV_Mode
000342   3902     xorai   0x2              	XORAI	0x02
000343   e587     jbset   0x187, 0x2       	JBSET	PFLAG,2
000344   a45c     goto    0x45c            	GOTO	_01238_DS_
                                           ;	.line	2184; "123.c"	LV_Dig8_SG1_8 = C_NumberTable[GV_SetAlarmClockMinSingleDig]; //Dig8 AlarmClockMinSingle Digit  	   	   	   	   	
000345   5855     movar   0x55             	MOVAR	_GV_SetAlarmClockMinSingleDig
000346   3ff0     addai   0xf0             	ADDAI	(_C_NumberTable + 0)
000347   5619     movra   0x19             	MOVRA	r0x104D
000348   3c0f     movai   0xf              	MOVAI	high (_C_NumberTable + 0)
000349   f187     jbclr   0x187, 0         	JBCLR	PFLAG,0
00034a   3f01     addai   0x1              	ADDAI	0x01
00034b   561a     movra   0x1a             	MOVRA	r0x104E
00034c   5819     movar   0x19             	MOVAR	r0x104D
00034d   5605     movra   0x5              	MOVRA	STK01
00034e   581a     movar   0x1a             	MOVAR	r0x104E
00034f   5606     movra   0x6              	MOVRA	STK00
000350   3c80     movai   0x80             	MOVAI	0x80
000351   8c9b     call    0xc9b            	CALL	__gptrget1
000352   5665     movra   0x65             	MOVRA	_LV_Dig8_SG1_8
                                           ;	.line	2185; "123.c"	LV_Dig7_SG1_8 = C_NumberTable[GV_SetAlarmClockMinTenDig];    //Dig7 AlarmClockMinTen Digit
000353   5856     movar   0x56             	MOVAR	_GV_SetAlarmClockMinTenDig
000354   3ff0     addai   0xf0             	ADDAI	(_C_NumberTable + 0)
000355   5619     movra   0x19             	MOVRA	r0x104D
000356   3c0f     movai   0xf              	MOVAI	high (_C_NumberTable + 0)
000357   f187     jbclr   0x187, 0         	JBCLR	PFLAG,0
000358   3f01     addai   0x1              	ADDAI	0x01
000359   561a     movra   0x1a             	MOVRA	r0x104E
00035a   5819     movar   0x19             	MOVAR	r0x104D
00035b   5605     movra   0x5              	MOVRA	STK01
00035c   581a     movar   0x1a             	MOVAR	r0x104E
00035d   5606     movra   0x6              	MOVRA	STK00
00035e   3c80     movai   0x80             	MOVAI	0x80
00035f   8c9b     call    0xc9b            	CALL	__gptrget1
000360   5664     movra   0x64             	MOVRA	_LV_Dig7_SG1_8
                                           ;	.line	2187; "123.c"	LV_Dig7_SG1_8 |= 0x80;//1000 0000;//On Dig7/H7 alarm  icons
000361   ce64     bset    0x64, 0x7        	BSET	_LV_Dig7_SG1_8,7
                                           ;	.line	2189; "123.c"	LV_Dig6_SG1_8 = C_NumberTable[GV_SetAlarmClockHrSingleDig];  //Dig6 AlarmClockHrSingle Digit
000362   5853     movar   0x53             	MOVAR	_GV_SetAlarmClockHrSingleDig
000363   3ff0     addai   0xf0             	ADDAI	(_C_NumberTable + 0)
000364   5619     movra   0x19             	MOVRA	r0x104D
000365   3c0f     movai   0xf              	MOVAI	high (_C_NumberTable + 0)
000366   f187     jbclr   0x187, 0         	JBCLR	PFLAG,0
000367   3f01     addai   0x1              	ADDAI	0x01
000368   561a     movra   0x1a             	MOVRA	r0x104E
000369   5819     movar   0x19             	MOVAR	r0x104D
00036a   5605     movra   0x5              	MOVRA	STK01
00036b   581a     movar   0x1a             	MOVAR	r0x104E
00036c   5606     movra   0x6              	MOVRA	STK00
00036d   3c80     movai   0x80             	MOVAI	0x80
00036e   8c9b     call    0xc9b            	CALL	__gptrget1
00036f   5663     movra   0x63             	MOVRA	_LV_Dig6_SG1_8
                                           ;	.line	2190; "123.c"	LV_Dig5_SG1_8 = C_NumberTable[GV_SetAlarmClockHrTenDig];     //Dig5 AlarmClockHrTen Digit
000370   5854     movar   0x54             	MOVAR	_GV_SetAlarmClockHrTenDig
000371   3ff0     addai   0xf0             	ADDAI	(_C_NumberTable + 0)
000372   5619     movra   0x19             	MOVRA	r0x104D
000373   3c0f     movai   0xf              	MOVAI	high (_C_NumberTable + 0)
000374   f187     jbclr   0x187, 0         	JBCLR	PFLAG,0
000375   3f01     addai   0x1              	ADDAI	0x01
000376   561a     movra   0x1a             	MOVRA	r0x104E
000377   5819     movar   0x19             	MOVAR	r0x104D
000378   5605     movra   0x5              	MOVRA	STK01
000379   581a     movar   0x1a             	MOVAR	r0x104E
00037a   5606     movra   0x6              	MOVRA	STK00
00037b   3c80     movai   0x80             	MOVAI	0x80
00037c   8c9b     call    0xc9b            	CALL	__gptrget1
00037d   5662     movra   0x62             	MOVRA	_LV_Dig5_SG1_8
                                           ;	.line	2192; "123.c"	if(BF_SetAlarmAM_PM)//0=AM1=PM
00037e   e428     jbset   0x28, 0x2        	JBSET	_UserFlag1,2
00037f   a382     goto    0x382            	GOTO	_01210_DS_
                                           ;	.line	2194; "123.c"	LV_Dig6_SG1_8 |= 0x80;//1000 0000;//On Dig6/H6 PM  icons
000380   ce63     bset    0x63, 0x7        	BSET	_LV_Dig6_SG1_8,7
000381   a383     goto    0x383            	GOTO	_01211_DS_
                                           _01210_DS_
                                           ;	.line	2198; "123.c"	LV_Dig5_SG1_8 |= 0x80;//1000 0000;//On Dig5/H5 AM  icons   	   	
000382   ce62     bset    0x62, 0x7        	BSET	_LV_Dig5_SG1_8,7
                                           _01211_DS_
                                           ;	.line	2202; "123.c"	Sub_Read1302(C_DS1302_Month);//C_DS1302_Month
000383   3c88     movai   0x88             	MOVAI	0x88
000384   8c50     call    0xc50            	CALL	_Sub_Read1302
                                           ;	.line	2203; "123.c"	GV_RunMonthSingleDig = GV_GetByteFromDs1302 & 0x0F;
000385   3c0f     movai   0xf              	MOVAI	0x0f
000386   7839     andar   0x39             	ANDAR	_GV_GetByteFromDs1302
000387   5645     movra   0x45             	MOVRA	_GV_RunMonthSingleDig
                                           ;	.line	2204; "123.c"	GV_RunMonthTenDig = GV_GetByteFromDs1302 >> 4;
000388   4439     swapar  0x39             	SWAPAR	_GV_GetByteFromDs1302
000389   3e0f     andai   0xf              	ANDAI	0x0f
00038a   5646     movra   0x46             	MOVRA	_GV_RunMonthTenDig
                                           ;	.line	2205; "123.c"	LV_Dig2_SG1_8 = C_NumberTable[GV_RunMonthSingleDig];//Dig2 	month Single Digit 	   	   	
00038b   5845     movar   0x45             	MOVAR	_GV_RunMonthSingleDig
00038c   3ff0     addai   0xf0             	ADDAI	(_C_NumberTable + 0)
00038d   5619     movra   0x19             	MOVRA	r0x104D
00038e   3c0f     movai   0xf              	MOVAI	high (_C_NumberTable + 0)
00038f   f187     jbclr   0x187, 0         	JBCLR	PFLAG,0
000390   3f01     addai   0x1              	ADDAI	0x01
000391   561a     movra   0x1a             	MOVRA	r0x104E
000392   5819     movar   0x19             	MOVAR	r0x104D
000393   5605     movra   0x5              	MOVRA	STK01
000394   581a     movar   0x1a             	MOVAR	r0x104E
000395   5606     movra   0x6              	MOVRA	STK00
000396   3c80     movai   0x80             	MOVAI	0x80
000397   8c9b     call    0xc9b            	CALL	__gptrget1
000398   565f     movra   0x5f             	MOVRA	_LV_Dig2_SG1_8
                                           ;	.line	2206; "123.c"	LV_Dig1_SG1_8 = C_NumberTable[GV_RunMonthTenDig];   //Dig1 	month Ten Digit 
000399   5846     movar   0x46             	MOVAR	_GV_RunMonthTenDig
00039a   3ff0     addai   0xf0             	ADDAI	(_C_NumberTable + 0)
00039b   5619     movra   0x19             	MOVRA	r0x104D
00039c   3c0f     movai   0xf              	MOVAI	high (_C_NumberTable + 0)
00039d   f187     jbclr   0x187, 0         	JBCLR	PFLAG,0
00039e   3f01     addai   0x1              	ADDAI	0x01
00039f   561a     movra   0x1a             	MOVRA	r0x104E
0003a0   5819     movar   0x19             	MOVAR	r0x104D
0003a1   5605     movra   0x5              	MOVRA	STK01
0003a2   581a     movar   0x1a             	MOVAR	r0x104E
0003a3   5606     movra   0x6              	MOVRA	STK00
0003a4   3c80     movai   0x80             	MOVAI	0x80
0003a5   8c9b     call    0xc9b            	CALL	__gptrget1
0003a6   565e     movra   0x5e             	MOVRA	_LV_Dig1_SG1_8
                                           ;	.line	2208; "123.c"	LV_Dig13_SG1_8 |= 0x01;//0000 0001;//Dig13/A13 	MONTH
0003a7   c06a     bset    0x6a, 0          	BSET	_LV_Dig13_SG1_8,0
                                           ;	.line	2210; "123.c"	LV_Dig2_SG1_8 |= 0x80;//1000 0000;//On Dig2/H2 (  :  )
0003a8   ce5f     bset    0x5f, 0x7        	BSET	_LV_Dig2_SG1_8,7
                                           ;	.line	2211; "123.c"	LV_Dig1_SG1_8 |= 0x80;//1000 0000;//On Dig1/H1 (  :  ) 	   	
0003a9   ce5e     bset    0x5e, 0x7        	BSET	_LV_Dig1_SG1_8,7
                                           ;	.line	2214; "123.c"	Sub_Read1302(C_DS1302_Day);//C_DS1302_Day
0003aa   3c86     movai   0x86             	MOVAI	0x86
0003ab   8c50     call    0xc50            	CALL	_Sub_Read1302
                                           ;	.line	2215; "123.c"	GV_RunDaySingleDig = GV_GetByteFromDs1302 & 0x0F;
0003ac   3c0f     movai   0xf              	MOVAI	0x0f
0003ad   7839     andar   0x39             	ANDAR	_GV_GetByteFromDs1302
0003ae   5649     movra   0x49             	MOVRA	_GV_RunDaySingleDig
                                           ;	.line	2216; "123.c"	GV_RunDayTenDig = GV_GetByteFromDs1302 >> 4;
0003af   4439     swapar  0x39             	SWAPAR	_GV_GetByteFromDs1302
0003b0   3e0f     andai   0xf              	ANDAI	0x0f
0003b1   564a     movra   0x4a             	MOVRA	_GV_RunDayTenDig
                                           ;	.line	2217; "123.c"	LV_Dig4_SG1_8 = C_NumberTable[GV_RunDaySingleDig];//Dig4 Day Single Digit  	   	   	
0003b2   5849     movar   0x49             	MOVAR	_GV_RunDaySingleDig
0003b3   3ff0     addai   0xf0             	ADDAI	(_C_NumberTable + 0)
0003b4   5619     movra   0x19             	MOVRA	r0x104D
0003b5   3c0f     movai   0xf              	MOVAI	high (_C_NumberTable + 0)
0003b6   f187     jbclr   0x187, 0         	JBCLR	PFLAG,0
0003b7   3f01     addai   0x1              	ADDAI	0x01
0003b8   561a     movra   0x1a             	MOVRA	r0x104E
0003b9   5819     movar   0x19             	MOVAR	r0x104D
0003ba   5605     movra   0x5              	MOVRA	STK01
0003bb   581a     movar   0x1a             	MOVAR	r0x104E
0003bc   5606     movra   0x6              	MOVRA	STK00
0003bd   3c80     movai   0x80             	MOVAI	0x80
0003be   8c9b     call    0xc9b            	CALL	__gptrget1
0003bf   5661     movra   0x61             	MOVRA	_LV_Dig4_SG1_8
                                           ;	.line	2218; "123.c"	LV_Dig3_SG1_8 = C_NumberTable[GV_RunDayTenDig];   //Dig3 Day Ten Digit 
0003c0   584a     movar   0x4a             	MOVAR	_GV_RunDayTenDig
0003c1   3ff0     addai   0xf0             	ADDAI	(_C_NumberTable + 0)
0003c2   5619     movra   0x19             	MOVRA	r0x104D
0003c3   3c0f     movai   0xf              	MOVAI	high (_C_NumberTable + 0)
0003c4   f187     jbclr   0x187, 0         	JBCLR	PFLAG,0
0003c5   3f01     addai   0x1              	ADDAI	0x01
0003c6   561a     movra   0x1a             	MOVRA	r0x104E
0003c7   5819     movar   0x19             	MOVAR	r0x104D
0003c8   5605     movra   0x5              	MOVRA	STK01
0003c9   581a     movar   0x1a             	MOVAR	r0x104E
0003ca   5606     movra   0x6              	MOVRA	STK00
0003cb   3c80     movai   0x80             	MOVAI	0x80
0003cc   8c9b     call    0xc9b            	CALL	__gptrget1
0003cd   5660     movra   0x60             	MOVRA	_LV_Dig3_SG1_8
                                           ;	.line	2220; "123.c"	LV_Dig13_SG1_8 |= 0x80;//1000 0000;//Dig13/H13 	DAY
0003ce   ce6a     bset    0x6a, 0x7        	BSET	_LV_Dig13_SG1_8,7
                                           ;	.line	2223; "123.c"	Sub_Read1302(C_DS1302_Hour);//C_DS1302_Hour
0003cf   3c84     movai   0x84             	MOVAI	0x84
0003d0   8c50     call    0xc50            	CALL	_Sub_Read1302
                                           ;	.line	2224; "123.c"	GV_RunRealTimeClockHrSingleDig = GV_GetByteFromDs1302 & 0x0F;
0003d1   3c0f     movai   0xf              	MOVAI	0x0f
0003d2   7839     andar   0x39             	ANDAR	_GV_GetByteFromDs1302
0003d3   564f     movra   0x4f             	MOVRA	_GV_RunRealTimeClockHrSingleDig
                                           ;	.line	2225; "123.c"	LV_TempA = GV_GetByteFromDs1302 >> 4;
0003d4   4439     swapar  0x39             	SWAPAR	_GV_GetByteFromDs1302
0003d5   3e0f     andai   0xf              	ANDAI	0x0f
0003d6   566b     movra   0x6b             	MOVRA	_LV_TempA
                                           ;	.line	2226; "123.c"	LV_TempB = LV_TempA;
0003d7   586b     movar   0x6b             	MOVAR	_LV_TempA
0003d8   566c     movra   0x6c             	MOVRA	_LV_TempB
                                           ;	.line	2227; "123.c"	GV_RunRealTimeClockHrTenDig = LV_TempB & 0x01; 
0003d9   3c01     movai   0x1              	MOVAI	0x01
0003da   786c     andar   0x6c             	ANDAR	_LV_TempB
0003db   5650     movra   0x50             	MOVRA	_GV_RunRealTimeClockHrTenDig
                                           ;	.line	2229; "123.c"	LV_Dig10_SG1_8 = C_NumberTable[GV_RunRealTimeClockHrSingleDig];//Dig10 RealTimeClockHr Single Digit    	   	   	
0003dc   584f     movar   0x4f             	MOVAR	_GV_RunRealTimeClockHrSingleDig
0003dd   3ff0     addai   0xf0             	ADDAI	(_C_NumberTable + 0)
0003de   5619     movra   0x19             	MOVRA	r0x104D
0003df   3c0f     movai   0xf              	MOVAI	high (_C_NumberTable + 0)
0003e0   f187     jbclr   0x187, 0         	JBCLR	PFLAG,0
0003e1   3f01     addai   0x1              	ADDAI	0x01
0003e2   561a     movra   0x1a             	MOVRA	r0x104E
0003e3   5819     movar   0x19             	MOVAR	r0x104D
0003e4   5605     movra   0x5              	MOVRA	STK01
0003e5   581a     movar   0x1a             	MOVAR	r0x104E
0003e6   5606     movra   0x6              	MOVRA	STK00
0003e7   3c80     movai   0x80             	MOVAI	0x80
0003e8   8c9b     call    0xc9b            	CALL	__gptrget1
0003e9   5667     movra   0x67             	MOVRA	_LV_Dig10_SG1_8
                                           ;	.line	2230; "123.c"	LV_Dig9_SG1_8 = C_NumberTable[GV_RunRealTimeClockHrTenDig];    //Dig9 RealTimeClockHr Ten Digit
0003ea   5850     movar   0x50             	MOVAR	_GV_RunRealTimeClockHrTenDig
0003eb   3ff0     addai   0xf0             	ADDAI	(_C_NumberTable + 0)
0003ec   5619     movra   0x19             	MOVRA	r0x104D
0003ed   3c0f     movai   0xf              	MOVAI	high (_C_NumberTable + 0)
0003ee   f187     jbclr   0x187, 0         	JBCLR	PFLAG,0
0003ef   3f01     addai   0x1              	ADDAI	0x01
0003f0   561a     movra   0x1a             	MOVRA	r0x104E
0003f1   5819     movar   0x19             	MOVAR	r0x104D
0003f2   5605     movra   0x5              	MOVRA	STK01
0003f3   581a     movar   0x1a             	MOVAR	r0x104E
0003f4   5606     movra   0x6              	MOVRA	STK00
0003f5   3c80     movai   0x80             	MOVAI	0x80
0003f6   8c9b     call    0xc9b            	CALL	__gptrget1
0003f7   5666     movra   0x66             	MOVRA	_LV_Dig9_SG1_8
                                           ;	.line	2231; "123.c"	LV_TempA = LV_TempA & 0x02;//0000 0010
0003f8   3c02     movai   0x2              	MOVAI	0x02
0003f9   7a6b     andra   0x6b             	ANDRA	_LV_TempA
                                           ;	.line	2232; "123.c"	if(LV_TempA) 
0003fa   3c00     movai   0                	MOVAI	0x00
0003fb   5c6b     orar    0x6b             	ORAR	_LV_TempA
0003fc   f587     jbclr   0x187, 0x2       	JBCLR	PFLAG,2
0003fd   a401     goto    0x401            	GOTO	_01213_DS_
                                           ;	.line	2234; "123.c"	LV_Dig13_SG1_8 |= 0x07;//0111 0000;//Dig13/E13/F13/G13 	RTC PM
0003fe   3c07     movai   0x7              	MOVAI	0x07
0003ff   5e6a     orra    0x6a             	ORRA	_LV_Dig13_SG1_8
000400   a403     goto    0x403            	GOTO	_01214_DS_
                                           _01213_DS_
                                           ;	.line	2238; "123.c"	LV_Dig13_SG1_8 |= 0x0E;//0000 1110;//Dig13/B13/C13/D13 	RTC AM
000401   3c0e     movai   0xe              	MOVAI	0x0e
000402   5e6a     orra    0x6a             	ORRA	_LV_Dig13_SG1_8
                                           _01214_DS_
                                           ;	.line	2242; "123.c"	Sub_Read1302(C_DS1302_Minute);//C_DS1302_Minute
000403   3c82     movai   0x82             	MOVAI	0x82
000404   8c50     call    0xc50            	CALL	_Sub_Read1302
                                           ;	.line	2243; "123.c"	GV_RunRealTimeClockMinSingleDig = GV_GetByteFromDs1302 & 0x0F;
000405   3c0f     movai   0xf              	MOVAI	0x0f
000406   7839     andar   0x39             	ANDAR	_GV_GetByteFromDs1302
000407   5651     movra   0x51             	MOVRA	_GV_RunRealTimeClockMinSingleDig
                                           ;	.line	2244; "123.c"	GV_RunRealTimeClockMinTenDig = GV_GetByteFromDs1302 >> 4;
000408   4439     swapar  0x39             	SWAPAR	_GV_GetByteFromDs1302
000409   3e0f     andai   0xf              	ANDAI	0x0f
00040a   5652     movra   0x52             	MOVRA	_GV_RunRealTimeClockMinTenDig
                                           ;	.line	2245; "123.c"	LV_Dig12_SG1_8 = C_NumberTable[GV_RunRealTimeClockMinSingleDig];//Dig12 RealTimeClockMin Single Digit  	   	   	
00040b   5851     movar   0x51             	MOVAR	_GV_RunRealTimeClockMinSingleDig
00040c   3ff0     addai   0xf0             	ADDAI	(_C_NumberTable + 0)
00040d   5619     movra   0x19             	MOVRA	r0x104D
00040e   3c0f     movai   0xf              	MOVAI	high (_C_NumberTable + 0)
00040f   f187     jbclr   0x187, 0         	JBCLR	PFLAG,0
000410   3f01     addai   0x1              	ADDAI	0x01
000411   561a     movra   0x1a             	MOVRA	r0x104E
000412   5819     movar   0x19             	MOVAR	r0x104D
000413   5605     movra   0x5              	MOVRA	STK01
000414   581a     movar   0x1a             	MOVAR	r0x104E
000415   5606     movra   0x6              	MOVRA	STK00
000416   3c80     movai   0x80             	MOVAI	0x80
000417   8c9b     call    0xc9b            	CALL	__gptrget1
000418   5669     movra   0x69             	MOVRA	_LV_Dig12_SG1_8
                                           ;	.line	2246; "123.c"	LV_Dig11_SG1_8 = C_NumberTable[GV_RunRealTimeClockMinTenDig];   //Dig11 RealTimeClockMin Ten Digit 
000419   5852     movar   0x52             	MOVAR	_GV_RunRealTimeClockMinTenDig
00041a   3ff0     addai   0xf0             	ADDAI	(_C_NumberTable + 0)
00041b   5619     movra   0x19             	MOVRA	r0x104D
00041c   3c0f     movai   0xf              	MOVAI	high (_C_NumberTable + 0)
00041d   f187     jbclr   0x187, 0         	JBCLR	PFLAG,0
00041e   3f01     addai   0x1              	ADDAI	0x01
00041f   561a     movra   0x1a             	MOVRA	r0x104E
000420   5819     movar   0x19             	MOVAR	r0x104D
000421   5605     movra   0x5              	MOVRA	STK01
000422   581a     movar   0x1a             	MOVAR	r0x104E
000423   5606     movra   0x6              	MOVRA	STK00
000424   3c80     movai   0x80             	MOVAI	0x80
000425   8c9b     call    0xc9b            	CALL	__gptrget1
000426   5668     movra   0x68             	MOVRA	_LV_Dig11_SG1_8
                                           ;	.line	2249; "123.c"	if((BF_Up_AlLongKeyPressesd == 0)&&(BF_DownLongKeyPressesd == 0))
000427   fa27     jbclr   0x27, 0x5        	JBCLR	_UserFlag,5
000428   a45c     goto    0x45c            	GOTO	_01238_DS_
000429   fe27     jbclr   0x27, 0x7        	JBCLR	_UserFlag,7
00042a   a45c     goto    0x45c            	GOTO	_01238_DS_
                                           ;	.line	2251; "123.c"	if(BF_Clock500ms == 0)//Off Alarm Timer set Digit
00042b   f227     jbclr   0x27, 0x1        	JBCLR	_UserFlag,1
00042c   a45c     goto    0x45c            	GOTO	_01238_DS_
                                           ;	.line	2253; "123.c"	if(GV_AlarmClockSetStep==0)
00042d   3c00     movai   0                	MOVAI	0x00
00042e   5c36     orar    0x36             	ORAR	_GV_AlarmClockSetStep
00042f   e587     jbset   0x187, 0x2       	JBSET	PFLAG,2
000430   a437     goto    0x437            	GOTO	_01224_DS_
                                           ;	.line	2255; "123.c"	if(BF_SetAlarmOnOff)//0 = Set alarm off; 1 = Set alarm on
000431   ea28     jbset   0x28, 0x5        	JBSET	_UserFlag1,5
000432   a435     goto    0x435            	GOTO	_01216_DS_
                                           ;	.line	2257; "123.c"	LV_Dig7_SG1_8 |= 0x80;//1000 0000;//On Dig7/H7 alarm  icons
000433   ce64     bset    0x64, 0x7        	BSET	_LV_Dig7_SG1_8,7
000434   a45c     goto    0x45c            	GOTO	_01238_DS_
                                           _01216_DS_
                                           ;	.line	2261; "123.c"	LV_Dig7_SG1_8 &= 0x7f;//0111 1111;//Off Dig7/H7 alarm  icons
000435   de64     bclr    0x64, 0x7        	BCLR	_LV_Dig7_SG1_8,7
000436   a45c     goto    0x45c            	GOTO	_01238_DS_
                                           _01224_DS_
                                           ;	.line	2264; "123.c"	else if(GV_AlarmClockSetStep==1)
000437   5836     movar   0x36             	MOVAR	_GV_AlarmClockSetStep
000438   3901     xorai   0x1              	XORAI	0x01
000439   e587     jbset   0x187, 0x2       	JBSET	PFLAG,2
00043a   a44a     goto    0x44a            	GOTO	_01221_DS_
                                           ;	.line	2266; "123.c"	LV_Dig6_SG1_8 = C_NumberTable[11]; //Dig6 AlarmClockHrSingle Digit No Display
00043b   3cfb     movai   0xfb             	MOVAI	(_C_NumberTable + 11)
00043c   5605     movra   0x5              	MOVRA	STK01
00043d   3c0f     movai   0xf              	MOVAI	high (_C_NumberTable + 11)
00043e   5606     movra   0x6              	MOVRA	STK00
00043f   3c80     movai   0x80             	MOVAI	0x80
000440   8c9b     call    0xc9b            	CALL	__gptrget1
000441   5663     movra   0x63             	MOVRA	_LV_Dig6_SG1_8
                                           ;	.line	2267; "123.c"	LV_Dig5_SG1_8 = C_NumberTable[11]; //Dig5 AlarmClockHrTen Digit No Display 	   	   	   	   	   	   	   	   	   	   	   	   	   	   	   	   	   	   	   	   	       	   	   	   	   
000442   3cfb     movai   0xfb             	MOVAI	(_C_NumberTable + 11)
000443   5605     movra   0x5              	MOVRA	STK01
000444   3c0f     movai   0xf              	MOVAI	high (_C_NumberTable + 11)
000445   5606     movra   0x6              	MOVRA	STK00
000446   3c80     movai   0x80             	MOVAI	0x80
000447   8c9b     call    0xc9b            	CALL	__gptrget1
000448   5662     movra   0x62             	MOVRA	_LV_Dig5_SG1_8
000449   a45c     goto    0x45c            	GOTO	_01238_DS_
                                           _01221_DS_
                                           ;	.line	2269; "123.c"	else if(GV_AlarmClockSetStep==2)
00044a   5836     movar   0x36             	MOVAR	_GV_AlarmClockSetStep
00044b   3902     xorai   0x2              	XORAI	0x02
00044c   e587     jbset   0x187, 0x2       	JBSET	PFLAG,2
00044d   a45c     goto    0x45c            	GOTO	_01238_DS_
                                           ;	.line	2271; "123.c"	LV_Dig8_SG1_8 = C_NumberTable[11]; //Dig8 AlarmClockMinSingle Digit No Display 	   	   	   	   	
00044e   3cfb     movai   0xfb             	MOVAI	(_C_NumberTable + 11)
00044f   5605     movra   0x5              	MOVRA	STK01
000450   3c0f     movai   0xf              	MOVAI	high (_C_NumberTable + 11)
000451   5606     movra   0x6              	MOVRA	STK00
000452   3c80     movai   0x80             	MOVAI	0x80
000453   8c9b     call    0xc9b            	CALL	__gptrget1
000454   5665     movra   0x65             	MOVRA	_LV_Dig8_SG1_8
                                           ;	.line	2272; "123.c"	LV_Dig7_SG1_8 = C_NumberTable[11]; //Dig7 AlarmClockMinTen Digit No Display    	   	   	   	   	   	   	   	   	   	   	   	   	   	   	   	   	   	   	   	       	   	   	   	   
000455   3cfb     movai   0xfb             	MOVAI	(_C_NumberTable + 11)
000456   5605     movra   0x5              	MOVRA	STK01
000457   3c0f     movai   0xf              	MOVAI	high (_C_NumberTable + 11)
000458   5606     movra   0x6              	MOVRA	STK00
000459   3c80     movai   0x80             	MOVAI	0x80
00045a   8c9b     call    0xc9b            	CALL	__gptrget1
00045b   5664     movra   0x64             	MOVRA	_LV_Dig7_SG1_8
                                           _01238_DS_
                                           ;	.line	2288; "123.c"	SetSTB0();
00045c   d798     bclr    0x198, 0x3       	BCLR	_IOP2bits,3
                                           ;	.line	2289; "123.c"	Sub_SendByteToPT6964(C_DataWrite);//Data W/R command
00045d   3c40     movai   0x40             	MOVAI	0x40
00045e   84b5     call    0x4b5            	CALL	_Sub_SendByteToPT6964
                                           ;	.line	2290; "123.c"	SetSTB1();
00045f   c798     bset    0x198, 0x3       	BSET	_IOP2bits,3
                                           ;	.line	2292; "123.c"	Nop();
000460   0000     nop                      	nop
                                           ;	.line	2293; "123.c"	Nop();
000461   0000     nop                      	nop
                                           ;	.line	2294; "123.c"	SetSTB0();
000462   d798     bclr    0x198, 0x3       	BCLR	_IOP2bits,3
                                           ;	.line	2295; "123.c"	Sub_SendByteToPT6964(C_Address0);//Address control command
000463   3cc0     movai   0xc0             	MOVAI	0xc0
000464   84b5     call    0x4b5            	CALL	_Sub_SendByteToPT6964
                                           ;	.line	2297; "123.c"	Sub_SendByteToPT6964(LV_Dig1_SG1_8);
000465   585e     movar   0x5e             	MOVAR	_LV_Dig1_SG1_8
000466   84b5     call    0x4b5            	CALL	_Sub_SendByteToPT6964
                                           ;	.line	2298; "123.c"	Sub_SendByteToPT6964(LV_Dig2_SG1_8);
000467   585f     movar   0x5f             	MOVAR	_LV_Dig2_SG1_8
000468   84b5     call    0x4b5            	CALL	_Sub_SendByteToPT6964
                                           ;	.line	2300; "123.c"	Sub_SendByteToPT6964(LV_Dig3_SG1_8);
000469   5860     movar   0x60             	MOVAR	_LV_Dig3_SG1_8
00046a   84b5     call    0x4b5            	CALL	_Sub_SendByteToPT6964
                                           ;	.line	2301; "123.c"	Sub_SendByteToPT6964(LV_Dig4_SG1_8);
00046b   5861     movar   0x61             	MOVAR	_LV_Dig4_SG1_8
00046c   84b5     call    0x4b5            	CALL	_Sub_SendByteToPT6964
                                           ;	.line	2303; "123.c"	Sub_SendByteToPT6964(LV_Dig5_SG1_8);
00046d   5862     movar   0x62             	MOVAR	_LV_Dig5_SG1_8
00046e   84b5     call    0x4b5            	CALL	_Sub_SendByteToPT6964
                                           ;	.line	2304; "123.c"	Sub_SendByteToPT6964(LV_Dig6_SG1_8);
00046f   5863     movar   0x63             	MOVAR	_LV_Dig6_SG1_8
000470   84b5     call    0x4b5            	CALL	_Sub_SendByteToPT6964
                                           ;	.line	2306; "123.c"	Sub_SendByteToPT6964(LV_Dig7_SG1_8);
000471   5864     movar   0x64             	MOVAR	_LV_Dig7_SG1_8
000472   84b5     call    0x4b5            	CALL	_Sub_SendByteToPT6964
                                           ;	.line	2307; "123.c"	Sub_SendByteToPT6964(LV_Dig8_SG1_8);
000473   5865     movar   0x65             	MOVAR	_LV_Dig8_SG1_8
000474   84b5     call    0x4b5            	CALL	_Sub_SendByteToPT6964
                                           ;	.line	2309; "123.c"	Sub_SendByteToPT6964(LV_Dig9_SG1_8);
000475   5866     movar   0x66             	MOVAR	_LV_Dig9_SG1_8
000476   84b5     call    0x4b5            	CALL	_Sub_SendByteToPT6964
                                           ;	.line	2310; "123.c"	Sub_SendByteToPT6964(LV_Dig10_SG1_8);
000477   5867     movar   0x67             	MOVAR	_LV_Dig10_SG1_8
000478   84b5     call    0x4b5            	CALL	_Sub_SendByteToPT6964
                                           ;	.line	2312; "123.c"	Sub_SendByteToPT6964(LV_Dig11_SG1_8);
000479   5868     movar   0x68             	MOVAR	_LV_Dig11_SG1_8
00047a   84b5     call    0x4b5            	CALL	_Sub_SendByteToPT6964
                                           ;	.line	2313; "123.c"	Sub_SendByteToPT6964(LV_Dig12_SG1_8);
00047b   5869     movar   0x69             	MOVAR	_LV_Dig12_SG1_8
00047c   84b5     call    0x4b5            	CALL	_Sub_SendByteToPT6964
                                           ;	.line	2315; "123.c"	Sub_SendByteToPT6964(LV_Dig13_SG1_8);
00047d   586a     movar   0x6a             	MOVAR	_LV_Dig13_SG1_8
00047e   84b5     call    0x4b5            	CALL	_Sub_SendByteToPT6964
                                           ;	.line	2317; "123.c"	SetSTB1(); 	
00047f   c798     bset    0x198, 0x3       	BSET	_IOP2bits,3
                                           ;	.line	2319; "123.c"	Nop();
000480   0000     nop                      	nop
                                           ;	.line	2320; "123.c"	Nop(); 	   	   	   	   	   	   	   	   	
000481   0000     nop                      	nop
                                           ;	.line	2321; "123.c"	SetSTB0();
000482   d798     bclr    0x198, 0x3       	BCLR	_IOP2bits,3
                                           ;	.line	2322; "123.c"	if(GV_DisplayBrightnessLevel==0)
000483   3c00     movai   0                	MOVAI	0x00
000484   5c5c     orar    0x5c             	ORAR	_GV_DisplayBrightnessLevel
000485   e587     jbset   0x187, 0x2       	JBSET	PFLAG,2
000486   a48a     goto    0x48a            	GOTO	_01245_DS_
                                           ;	.line	2324; "123.c"	Sub_SendByteToPT6964(C_DisplayOnDuty14_16);
000487   3c8f     movai   0x8f             	MOVAI	0x8f
000488   84b5     call    0x4b5            	CALL	_Sub_SendByteToPT6964
000489   a497     goto    0x497            	GOTO	_01246_DS_
                                           _01245_DS_
                                           ;	.line	2326; "123.c"	else if(GV_DisplayBrightnessLevel==1)
00048a   585c     movar   0x5c             	MOVAR	_GV_DisplayBrightnessLevel
00048b   3901     xorai   0x1              	XORAI	0x01
00048c   e587     jbset   0x187, 0x2       	JBSET	PFLAG,2
00048d   a491     goto    0x491            	GOTO	_01242_DS_
                                           ;	.line	2328; "123.c"	Sub_SendByteToPT6964(C_DisplayOnDuty4_16);
00048e   3c8a     movai   0x8a             	MOVAI	0x8a
00048f   84b5     call    0x4b5            	CALL	_Sub_SendByteToPT6964
000490   a497     goto    0x497            	GOTO	_01246_DS_
                                           _01242_DS_
                                           ;	.line	2330; "123.c"	else if(GV_DisplayBrightnessLevel==2)
000491   585c     movar   0x5c             	MOVAR	_GV_DisplayBrightnessLevel
000492   3902     xorai   0x2              	XORAI	0x02
000493   e587     jbset   0x187, 0x2       	JBSET	PFLAG,2
000494   a497     goto    0x497            	GOTO	_01246_DS_
                                           ;	.line	2332; "123.c"	Sub_SendByteToPT6964(C_DisplayOnDuty1_16);
000495   3c88     movai   0x88             	MOVAI	0x88
000496   84b5     call    0x4b5            	CALL	_Sub_SendByteToPT6964
                                           _01246_DS_
                                           ;	.line	2338; "123.c"	SetSTB1();
000497   c798     bset    0x198, 0x3       	BSET	_IOP2bits,3
000498   000c     return                   	RETURN	
                                           ; exit point of _Sub_SendDispDataToTA6932
                                           
                                           ;***
                                           ;  pBlock Stats: dbName = C
                                           ;***
                                           ;entry:  _Sub_GetByteFromPT6964	;Function start
                                           ; 2 exit points
                                           ;has an exit
                                           ;1 compiler assigned register :
                                           ;   r0x104F
                                           ;; Starting pCode block
                                           _Sub_GetByteFromPT6964	;Function start
                                           ; 2 exit points
                                           ;	.line	1963; "123.c"	GV_GetPT6964Data = 0;
000499   763a     clrr    0x3a             	CLRR	_GV_GetPT6964Data
                                           ;	.line	1964; "123.c"	SetDIOInput();
00049a   db95     bclr    0x195, 0x5       	BCLR	_OEP1bits,5
                                           ;	.line	1965; "123.c"	Nop();
00049b   0000     nop                      	nop
                                           ;	.line	1966; "123.c"	Nop();
00049c   0000     nop                      	nop
                                           ;	.line	1967; "123.c"	for(LV_TempPT6964=0x80; LV_TempPT6964; LV_TempPT6964>>=1)
00049d   3c80     movai   0x80             	MOVAI	0x80
00049e   5618     movra   0x18             	MOVRA	r0x104F
                                           _01166_DS_
00049f   3c00     movai   0                	MOVAI	0x00
0004a0   5c18     orar    0x18             	ORAR	r0x104F
0004a1   f587     jbclr   0x187, 0x2       	JBCLR	PFLAG,2
0004a2   a4b1     goto    0x4b1            	GOTO	_01169_DS_
                                           ;	.line	1969; "123.c"	GV_GetPT6964Data<<=1;
0004a3   d187     bclr    0x187, 0         	BCLR	PFLAG,0
0004a4   523a     rlr     0x3a             	RLR	_GV_GetPT6964Data
                                           ;	.line	1970; "123.c"	SetSCK1();
0004a5   c994     bset    0x194, 0x4       	BSET	_IOP1bits,4
                                           ;	.line	1971; "123.c"	Nop();
0004a6   0000     nop                      	nop
                                           ;	.line	1972; "123.c"	Nop();
0004a7   0000     nop                      	nop
                                           ;	.line	1973; "123.c"	if(GetDIO()) {GV_GetPT6964Data++; }
0004a8   eb94     jbset   0x194, 0x5       	JBSET	_IOP1bits,5
0004a9   a4ab     goto    0x4ab            	GOTO	_01165_DS_
0004aa   663a     incr    0x3a             	INCR	_GV_GetPT6964Data
                                           _01165_DS_
                                           ;	.line	1974; "123.c"	SetSCK0();
0004ab   d994     bclr    0x194, 0x4       	BCLR	_IOP1bits,4
                                           ;	.line	1975; "123.c"	Nop();
0004ac   0000     nop                      	nop
                                           ;	.line	1976; "123.c"	Nop();
0004ad   0000     nop                      	nop
                                           ;;shiftRight_Left2ResultLit:5216: shCount=1, size=1, sign=0, same=1, offr=0
                                           ;	.line	1967; "123.c"	for(LV_TempPT6964=0x80; LV_TempPT6964; LV_TempPT6964>>=1)
0004ae   d187     bclr    0x187, 0         	BCLR	PFLAG,0
0004af   4e18     rrr     0x18             	RRR	r0x104F
0004b0   a49f     goto    0x49f            	GOTO	_01166_DS_
                                           _01169_DS_
                                           ;	.line	1979; "123.c"	SetDIOOutput();
0004b1   cb95     bset    0x195, 0x5       	BSET	_OEP1bits,5
                                           ;	.line	1980; "123.c"	Nop();
0004b2   0000     nop                      	nop
                                           ;	.line	1981; "123.c"	Nop();
0004b3   0000     nop                      	nop
0004b4   000c     return                   	RETURN	
                                           ; exit point of _Sub_GetByteFromPT6964
                                           
                                           ;***
                                           ;  pBlock Stats: dbName = C
                                           ;***
                                           ;entry:  _Sub_SendByteToPT6964	;Function start
                                           ; 2 exit points
                                           ;has an exit
                                           ;3 compiler assigned registers:
                                           ;   r0x1048
                                           ;   r0x1049
                                           ;   r0x104A
                                           ;; Starting pCode block
                                           _Sub_SendByteToPT6964	;Function start
                                           ; 2 exit points
                                           ;	.line	1931; "123.c"	void Sub_SendByteToPT6964(unsigned char	LV_SendTodata)  
0004b5   5615     movra   0x15             	MOVRA	r0x1048
                                           ;	.line	1934; "123.c"	SetDIOOutput();  
0004b6   cb95     bset    0x195, 0x5       	BSET	_OEP1bits,5
                                           ;	.line	1935; "123.c"	SetDIO0();
0004b7   db94     bclr    0x194, 0x5       	BCLR	_IOP1bits,5
                                           ;	.line	1936; "123.c"	for(i=0x01; i; i<<=1)
0004b8   3c01     movai   0x1              	MOVAI	0x01
0004b9   5616     movra   0x16             	MOVRA	r0x1049
                                           _01156_DS_
0004ba   3c00     movai   0                	MOVAI	0x00
0004bb   5c16     orar    0x16             	ORAR	r0x1049
0004bc   f587     jbclr   0x187, 0x2       	JBCLR	PFLAG,2
0004bd   a4d0     goto    0x4d0            	GOTO	_01159_DS_
                                           ;	.line	1938; "123.c"	SetSCK0();
0004be   d994     bclr    0x194, 0x4       	BCLR	_IOP1bits,4
                                           ;	.line	1939; "123.c"	if(i & LV_SendTodata) {SetDIO1();} else {SetDIO0();}
0004bf   5815     movar   0x15             	MOVAR	r0x1048
0004c0   7816     andar   0x16             	ANDAR	r0x1049
0004c1   5617     movra   0x17             	MOVRA	r0x104A
0004c2   3c00     movai   0                	MOVAI	0x00
0004c3   5c17     orar    0x17             	ORAR	r0x104A
0004c4   f587     jbclr   0x187, 0x2       	JBCLR	PFLAG,2
0004c5   a4c8     goto    0x4c8            	GOTO	_01154_DS_
0004c6   cb94     bset    0x194, 0x5       	BSET	_IOP1bits,5
0004c7   a4c9     goto    0x4c9            	GOTO	_01155_DS_
                                           _01154_DS_
0004c8   db94     bclr    0x194, 0x5       	BCLR	_IOP1bits,5
                                           _01155_DS_
                                           ;	.line	1940; "123.c"	SetSCK1();
0004c9   c994     bset    0x194, 0x4       	BSET	_IOP1bits,4
                                           ;	.line	1941; "123.c"	Nop();
0004ca   0000     nop                      	nop
                                           ;	.line	1942; "123.c"	Nop();
0004cb   0000     nop                      	nop
                                           ;	.line	1943; "123.c"	SetSCK0();
0004cc   d994     bclr    0x194, 0x4       	BCLR	_IOP1bits,4
                                           ;	.line	1936; "123.c"	for(i=0x01; i; i<<=1)
0004cd   d187     bclr    0x187, 0         	BCLR	PFLAG,0
0004ce   5216     rlr     0x16             	RLR	r0x1049
0004cf   a4ba     goto    0x4ba            	GOTO	_01156_DS_
                                           _01159_DS_
                                           ;	.line	1945; "123.c"	SetDIO0();
0004d0   db94     bclr    0x194, 0x5       	BCLR	_IOP1bits,5
0004d1   000c     return                   	RETURN	
                                           ; exit point of _Sub_SendByteToPT6964
                                           
                                           ;***
                                           ;  pBlock Stats: dbName = C
                                           ;***
                                           ;entry:  _Sub_Buzzer	;Function start
                                           ; 2 exit points
                                           ;has an exit
                                           ;functions called:
                                           ;   _Sub_BuzzerBBB
                                           ;   _Sub_BuzzerBBB
                                           ;; Starting pCode block
                                           _Sub_Buzzer	;Function start
                                           ; 2 exit points
                                           ;	.line	1896; "123.c"	if(BF_BuzzerBBB)
0004d2   e828     jbset   0x28, 0x4        	JBSET	_UserFlag1,4
0004d3   a4d6     goto    0x4d6            	GOTO	_01146_DS_
                                           ;	.line	1898; "123.c"	Sub_BuzzerBBB();
0004d4   84da     call    0x4da            	CALL	_Sub_BuzzerBBB
0004d5   a4d9     goto    0x4d9            	GOTO	_01148_DS_
                                           _01146_DS_
                                           ;	.line	1902; "123.c"	GV_BuzzerIndex = 0;
0004d6   7637     clrr    0x37             	CLRR	_GV_BuzzerIndex
                                           ;	.line	1903; "123.c"	GV_BuzzerDuty = 0;
0004d7   7638     clrr    0x38             	CLRR	_GV_BuzzerDuty
                                           ;	.line	1904; "123.c"	DisableBuzzer();
0004d8   d399     bclr    0x199, 0x1       	BCLR	_OEP2bits,1
                                           _01148_DS_
0004d9   000c     return                   	RETURN	
                                           ; exit point of _Sub_Buzzer
                                           
                                           ;***
                                           ;  pBlock Stats: dbName = C
                                           ;***
                                           ;entry:  _Sub_BuzzerBBB	;Function start
                                           ; 2 exit points
                                           ;has an exit
                                           ;; Starting pCode block
                                           _Sub_BuzzerBBB	;Function start
                                           ; 2 exit points
                                           ;	.line	1808; "123.c"	if(GV_BuzzerIndex==0)
0004da   3c00     movai   0                	MOVAI	0x00
0004db   5c37     orar    0x37             	ORAR	_GV_BuzzerIndex
0004dc   e587     jbset   0x187, 0x2       	JBSET	PFLAG,2
0004dd   a4e4     goto    0x4e4            	GOTO	_01138_DS_
                                           ;	.line	1810; "123.c"	GV_BuzzerDuty=50;
0004de   3c32     movai   0x32             	MOVAI	0x32
0004df   5638     movra   0x38             	MOVRA	_GV_BuzzerDuty
                                           ;	.line	1811; "123.c"	EnableBuzzer();
0004e0   c399     bset    0x199, 0x1       	BSET	_OEP2bits,1
                                           ;	.line	1812; "123.c"	GV_BuzzerIndex = 1;
0004e1   3c01     movai   0x1              	MOVAI	0x01
0004e2   5637     movra   0x37             	MOVRA	_GV_BuzzerIndex
0004e3   a549     goto    0x549            	GOTO	_01140_DS_
                                           _01138_DS_
                                           ;	.line	1814; "123.c"	else if(GV_BuzzerIndex==1)
0004e4   5837     movar   0x37             	MOVAR	_GV_BuzzerIndex
0004e5   3901     xorai   0x1              	XORAI	0x01
0004e6   e587     jbset   0x187, 0x2       	JBSET	PFLAG,2
0004e7   a4f3     goto    0x4f3            	GOTO	_01135_DS_
                                           ;	.line	1816; "123.c"	if(--GV_BuzzerDuty == 0)
0004e8   6e38     decr    0x38             	DECR	_GV_BuzzerDuty
0004e9   3c00     movai   0                	MOVAI	0x00
0004ea   5c38     orar    0x38             	ORAR	_GV_BuzzerDuty
0004eb   e587     jbset   0x187, 0x2       	JBSET	PFLAG,2
0004ec   a549     goto    0x549            	GOTO	_01140_DS_
                                           ;	.line	1818; "123.c"	GV_BuzzerIndex = 2;
0004ed   3c02     movai   0x2              	MOVAI	0x02
0004ee   5637     movra   0x37             	MOVRA	_GV_BuzzerIndex
                                           ;	.line	1819; "123.c"	DisableBuzzer();
0004ef   d399     bclr    0x199, 0x1       	BCLR	_OEP2bits,1
                                           ;	.line	1820; "123.c"	GV_BuzzerDuty = 50;
0004f0   3c32     movai   0x32             	MOVAI	0x32
0004f1   5638     movra   0x38             	MOVRA	_GV_BuzzerDuty
0004f2   a549     goto    0x549            	GOTO	_01140_DS_
                                           _01135_DS_
                                           ;	.line	1823; "123.c"	else if(GV_BuzzerIndex==2)
0004f3   5837     movar   0x37             	MOVAR	_GV_BuzzerIndex
0004f4   3902     xorai   0x2              	XORAI	0x02
0004f5   e587     jbset   0x187, 0x2       	JBSET	PFLAG,2
0004f6   a4ff     goto    0x4ff            	GOTO	_01132_DS_
                                           ;	.line	1825; "123.c"	if(--GV_BuzzerDuty == 0)
0004f7   6e38     decr    0x38             	DECR	_GV_BuzzerDuty
0004f8   3c00     movai   0                	MOVAI	0x00
0004f9   5c38     orar    0x38             	ORAR	_GV_BuzzerDuty
0004fa   e587     jbset   0x187, 0x2       	JBSET	PFLAG,2
0004fb   a549     goto    0x549            	GOTO	_01140_DS_
                                           ;	.line	1827; "123.c"	GV_BuzzerIndex = 3;
0004fc   3c03     movai   0x3              	MOVAI	0x03
0004fd   5637     movra   0x37             	MOVRA	_GV_BuzzerIndex
0004fe   a549     goto    0x549            	GOTO	_01140_DS_
                                           _01132_DS_
                                           ;	.line	1830; "123.c"	else if(GV_BuzzerIndex==3)
0004ff   5837     movar   0x37             	MOVAR	_GV_BuzzerIndex
000500   3903     xorai   0x3              	XORAI	0x03
000501   e587     jbset   0x187, 0x2       	JBSET	PFLAG,2
000502   a509     goto    0x509            	GOTO	_01129_DS_
                                           ;	.line	1832; "123.c"	GV_BuzzerDuty=50;
000503   3c32     movai   0x32             	MOVAI	0x32
000504   5638     movra   0x38             	MOVRA	_GV_BuzzerDuty
                                           ;	.line	1833; "123.c"	EnableBuzzer();
000505   c399     bset    0x199, 0x1       	BSET	_OEP2bits,1
                                           ;	.line	1834; "123.c"	GV_BuzzerIndex = 4;
000506   3c04     movai   0x4              	MOVAI	0x04
000507   5637     movra   0x37             	MOVRA	_GV_BuzzerIndex
000508   a549     goto    0x549            	GOTO	_01140_DS_
                                           _01129_DS_
                                           ;	.line	1836; "123.c"	else if(GV_BuzzerIndex==4)
000509   5837     movar   0x37             	MOVAR	_GV_BuzzerIndex
00050a   3904     xorai   0x4              	XORAI	0x04
00050b   e587     jbset   0x187, 0x2       	JBSET	PFLAG,2
00050c   a518     goto    0x518            	GOTO	_01126_DS_
                                           ;	.line	1838; "123.c"	if(--GV_BuzzerDuty == 0)
00050d   6e38     decr    0x38             	DECR	_GV_BuzzerDuty
00050e   3c00     movai   0                	MOVAI	0x00
00050f   5c38     orar    0x38             	ORAR	_GV_BuzzerDuty
000510   e587     jbset   0x187, 0x2       	JBSET	PFLAG,2
000511   a549     goto    0x549            	GOTO	_01140_DS_
                                           ;	.line	1840; "123.c"	GV_BuzzerIndex = 5;
000512   3c05     movai   0x5              	MOVAI	0x05
000513   5637     movra   0x37             	MOVRA	_GV_BuzzerIndex
                                           ;	.line	1841; "123.c"	DisableBuzzer();
000514   d399     bclr    0x199, 0x1       	BCLR	_OEP2bits,1
                                           ;	.line	1842; "123.c"	GV_BuzzerDuty = 50;
000515   3c32     movai   0x32             	MOVAI	0x32
000516   5638     movra   0x38             	MOVRA	_GV_BuzzerDuty
000517   a549     goto    0x549            	GOTO	_01140_DS_
                                           _01126_DS_
                                           ;	.line	1845; "123.c"	else if(GV_BuzzerIndex==5)
000518   5837     movar   0x37             	MOVAR	_GV_BuzzerIndex
000519   3905     xorai   0x5              	XORAI	0x05
00051a   e587     jbset   0x187, 0x2       	JBSET	PFLAG,2
00051b   a524     goto    0x524            	GOTO	_01123_DS_
                                           ;	.line	1847; "123.c"	if(--GV_BuzzerDuty == 0)
00051c   6e38     decr    0x38             	DECR	_GV_BuzzerDuty
00051d   3c00     movai   0                	MOVAI	0x00
00051e   5c38     orar    0x38             	ORAR	_GV_BuzzerDuty
00051f   e587     jbset   0x187, 0x2       	JBSET	PFLAG,2
000520   a549     goto    0x549            	GOTO	_01140_DS_
                                           ;	.line	1849; "123.c"	GV_BuzzerIndex = 6;
000521   3c06     movai   0x6              	MOVAI	0x06
000522   5637     movra   0x37             	MOVRA	_GV_BuzzerIndex
000523   a549     goto    0x549            	GOTO	_01140_DS_
                                           _01123_DS_
                                           ;	.line	1852; "123.c"	else if(GV_BuzzerIndex==6)
000524   5837     movar   0x37             	MOVAR	_GV_BuzzerIndex
000525   3906     xorai   0x6              	XORAI	0x06
000526   e587     jbset   0x187, 0x2       	JBSET	PFLAG,2
000527   a52e     goto    0x52e            	GOTO	_01120_DS_
                                           ;	.line	1854; "123.c"	GV_BuzzerDuty=50;
000528   3c32     movai   0x32             	MOVAI	0x32
000529   5638     movra   0x38             	MOVRA	_GV_BuzzerDuty
                                           ;	.line	1855; "123.c"	EnableBuzzer();
00052a   c399     bset    0x199, 0x1       	BSET	_OEP2bits,1
                                           ;	.line	1856; "123.c"	GV_BuzzerIndex = 7;
00052b   3c07     movai   0x7              	MOVAI	0x07
00052c   5637     movra   0x37             	MOVRA	_GV_BuzzerIndex
00052d   a549     goto    0x549            	GOTO	_01140_DS_
                                           _01120_DS_
                                           ;	.line	1858; "123.c"	else if(GV_BuzzerIndex==7)
00052e   5837     movar   0x37             	MOVAR	_GV_BuzzerIndex
00052f   3907     xorai   0x7              	XORAI	0x07
000530   e587     jbset   0x187, 0x2       	JBSET	PFLAG,2
000531   a53d     goto    0x53d            	GOTO	_01117_DS_
                                           ;	.line	1860; "123.c"	if(--GV_BuzzerDuty == 0)
000532   6e38     decr    0x38             	DECR	_GV_BuzzerDuty
000533   3c00     movai   0                	MOVAI	0x00
000534   5c38     orar    0x38             	ORAR	_GV_BuzzerDuty
000535   e587     jbset   0x187, 0x2       	JBSET	PFLAG,2
000536   a549     goto    0x549            	GOTO	_01140_DS_
                                           ;	.line	1862; "123.c"	GV_BuzzerIndex = 8;
000537   3c08     movai   0x8              	MOVAI	0x08
000538   5637     movra   0x37             	MOVRA	_GV_BuzzerIndex
                                           ;	.line	1863; "123.c"	DisableBuzzer();
000539   d399     bclr    0x199, 0x1       	BCLR	_OEP2bits,1
                                           ;	.line	1864; "123.c"	GV_BuzzerDuty = 150;
00053a   3c96     movai   0x96             	MOVAI	0x96
00053b   5638     movra   0x38             	MOVRA	_GV_BuzzerDuty
00053c   a549     goto    0x549            	GOTO	_01140_DS_
                                           _01117_DS_
                                           ;	.line	1867; "123.c"	else if(GV_BuzzerIndex==8)
00053d   5837     movar   0x37             	MOVAR	_GV_BuzzerIndex
00053e   3908     xorai   0x8              	XORAI	0x08
00053f   e587     jbset   0x187, 0x2       	JBSET	PFLAG,2
000540   a548     goto    0x548            	GOTO	_01114_DS_
                                           ;	.line	1869; "123.c"	if(--GV_BuzzerDuty == 0)
000541   6e38     decr    0x38             	DECR	_GV_BuzzerDuty
000542   3c00     movai   0                	MOVAI	0x00
000543   5c38     orar    0x38             	ORAR	_GV_BuzzerDuty
000544   e587     jbset   0x187, 0x2       	JBSET	PFLAG,2
000545   a549     goto    0x549            	GOTO	_01140_DS_
                                           ;	.line	1871; "123.c"	GV_BuzzerIndex = 0;
000546   7637     clrr    0x37             	CLRR	_GV_BuzzerIndex
000547   a549     goto    0x549            	GOTO	_01140_DS_
                                           _01114_DS_
                                           ;	.line	1876; "123.c"	GV_BuzzerIndex = 0;
000548   7637     clrr    0x37             	CLRR	_GV_BuzzerIndex
                                           _01140_DS_
000549   000c     return                   	RETURN	
                                           ; exit point of _Sub_BuzzerBBB
                                           
                                           ;***
                                           ;  pBlock Stats: dbName = C
                                           ;***
                                           ;entry:  _Sub_KeyScan	;Function start
                                           ; 2 exit points
                                           ;has an exit
                                           ;functions called:
                                           ;   _Sub_Up_AlLongKeyGetAlarmSetMode
                                           ;   _Sub_Up_AlShortLongKeyClockSet
                                           ;   _Sub_Up_AlShortLongKeyAlarmSet
                                           ;   _Sub_RealTimeClockAdd
                                           ;   _Sub_SetAlarmAddTimer
                                           ;   _Sub_DownShortLongKeyClockSet
                                           ;   _Sub_DownShortLongKeyAlarmSet
                                           ;   _Sub_RealTimeClockDec
                                           ;   _Sub_SetAlarmDecTimer
                                           ;   _Sub_SetLongKeyGetRealTimeClockSetMode
                                           ;   _Sub_SetKeyRealTimeClockEnter
                                           ;   _Sub_SetKeyAlarmEnter
                                           ;   _Sub_Up_AlLongKeyGetAlarmSetMode
                                           ;   _Sub_Up_AlShortLongKeyClockSet
                                           ;   _Sub_Up_AlShortLongKeyAlarmSet
                                           ;   _Sub_RealTimeClockAdd
                                           ;   _Sub_SetAlarmAddTimer
                                           ;   _Sub_DownShortLongKeyClockSet
                                           ;   _Sub_DownShortLongKeyAlarmSet
                                           ;   _Sub_RealTimeClockDec
                                           ;   _Sub_SetAlarmDecTimer
                                           ;   _Sub_SetLongKeyGetRealTimeClockSetMode
                                           ;   _Sub_SetKeyRealTimeClockEnter
                                           ;   _Sub_SetKeyAlarmEnter
                                           ;1 compiler assigned register :
                                           ;   r0x1057
                                           ;; Starting pCode block
                                           _Sub_KeyScan	;Function start
                                           ; 2 exit points
                                           ;	.line	1589; "123.c"	Nop();
00054a   0000     nop                      	nop
                                           ;	.line	1590; "123.c"	Nop();
00054b   0000     nop                      	nop
                                           ;	.line	1591; "123.c"	Nop();
00054c   0000     nop                      	nop
                                           ;	.line	1592; "123.c"	Nop();
00054d   0000     nop                      	nop
                                           ;	.line	1593; "123.c"	Nop();
00054e   0000     nop                      	nop
                                           ;	.line	1594; "123.c"	Nop();
00054f   0000     nop                      	nop
                                           ;	.line	1595; "123.c"	Nop();
000550   0000     nop                      	nop
                                           ;	.line	1596; "123.c"	Nop();
000551   0000     nop                      	nop
                                           ;	.line	1597; "123.c"	Nop();
000552   0000     nop                      	nop
                                           ;	.line	1598; "123.c"	Nop();
000553   0000     nop                      	nop
                                           ;	.line	1602; "123.c"	LV_TempB = IOP0;
000554   5990     movar   0x190            	MOVAR	_IOP0
000555   5614     movra   0x14             	MOVRA	r0x1057
                                           ;	.line	1603; "123.c"	LV_TempB = LV_TempB>>4;
000556   4414     swapar  0x14             	SWAPAR	r0x1057
000557   3e0f     andai   0xf              	ANDAI	0x0f
000558   5614     movra   0x14             	MOVRA	r0x1057
                                           ;	.line	1604; "123.c"	LV_TempB = LV_TempB&0X0C;
000559   3c0c     movai   0xc              	MOVAI	0x0c
00055a   7a14     andra   0x14             	ANDRA	r0x1057
                                           ;	.line	1605; "123.c"	LV_TempB = LV_TempB|IOP2;
00055b   5998     movar   0x198            	MOVAR	_IOP2
00055c   5e14     orra    0x14             	ORRA	r0x1057
                                           ;	.line	1606; "123.c"	LV_TempB = LV_TempB<<1;
00055d   d187     bclr    0x187, 0         	BCLR	PFLAG,0
00055e   5214     rlr     0x14             	RLR	r0x1057
                                           ;	.line	1607; "123.c"	LV_TempB = LV_TempB & C_KeysNaturalState;//0b0111 1000;
00055f   3c78     movai   0x78             	MOVAI	0x78
000560   7a14     andra   0x14             	ANDRA	r0x1057
                                           ;	.line	1609; "123.c"	if(GV_CurKey != LV_TempB)
000561   5814     movar   0x14             	MOVAR	r0x1057
000562   4033     xorar   0x33             	XORAR	_GV_CurKey
000563   e587     jbset   0x187, 0x2       	JBSET	PFLAG,2
000564   a566     goto    0x566            	GOTO	_01096_DS_
000565   a56f     goto    0x56f            	GOTO	_00970_DS_
                                           _01096_DS_
                                           ;	.line	1611; "123.c"	GV_KeyDebounce = 0;
000566   7631     clrr    0x31             	CLRR	_GV_KeyDebounce
                                           ;	.line	1612; "123.c"	GV_CurKey = LV_TempB;
000567   5814     movar   0x14             	MOVAR	r0x1057
000568   5633     movra   0x33             	MOVRA	_GV_CurKey
                                           ;	.line	1613; "123.c"	GV_LongKeyTimer = 0;
000569   7621     clrr    0x21             	CLRR	_GV_LongKeyTimer
00056a   7622     clrr    0x22             	CLRR	(_GV_LongKeyTimer + 1)
                                           ;	.line	1614; "123.c"	BF_Up_AlLongKeyPressesd = 0;
00056b   da27     bclr    0x27, 0x5        	BCLR	_UserFlag,5
                                           ;	.line	1615; "123.c"	BF_DownLongKeyPressesd = 0;
00056c   de27     bclr    0x27, 0x7        	BCLR	_UserFlag,7
                                           ;	.line	1616; "123.c"	BF_SetLongKeyPressesd = 0;
00056d   d228     bclr    0x28, 0x1        	BCLR	_UserFlag1,1
                                           ;	.line	1618; "123.c"	return;
00056e   a60d     goto    0x60d            	GOTO	_01038_DS_
                                           _00970_DS_
                                           ;	.line	1621; "123.c"	if(++GV_KeyDebounce < 30) return;  	
00056f   6631     incr    0x31             	INCR	_GV_KeyDebounce
                                           ;;unsigned compare: left < lit(0x1E=30), size=1
000570   3c1e     movai   0x1e             	MOVAI	0x1e
000571   4831     rsubar  0x31             	RSUBAR	_GV_KeyDebounce
000572   f187     jbclr   0x187, 0         	JBCLR	PFLAG,0
000573   a575     goto    0x575            	GOTO	_00972_DS_
                                           ;;genSkipc:3195: created from rifx:00DE608C
000574   a60d     goto    0x60d            	GOTO	_01038_DS_
                                           _00972_DS_
                                           ;	.line	1622; "123.c"	if(GV_PreKey == C_KeysNaturalState)
000575   5832     movar   0x32             	MOVAR	_GV_PreKey
000576   3978     xorai   0x78             	XORAI	0x78
000577   e587     jbset   0x187, 0x2       	JBSET	PFLAG,2
000578   a60b     goto    0x60b            	GOTO	_01037_DS_
                                           ;	.line	1625; "123.c"	if(GV_CurKey == 0x38)//0011 1000 Short/long UP/AL key Pressed,return;
000579   5833     movar   0x33             	MOVAR	_GV_CurKey
00057a   3938     xorai   0x38             	XORAI	0x38
00057b   e587     jbset   0x187, 0x2       	JBSET	PFLAG,2
00057c   a593     goto    0x593            	GOTO	_00992_DS_
                                           ;	.line	1627; "123.c"	if(GV_Mode==0)
00057d   3c00     movai   0                	MOVAI	0x00
00057e   5c34     orar    0x34             	ORAR	_GV_Mode
00057f   e587     jbset   0x187, 0x2       	JBSET	PFLAG,2
000580   a583     goto    0x583            	GOTO	_00979_DS_
                                           ;	.line	1629; "123.c"	Sub_Up_AlLongKeyGetAlarmSetMode();//Long key return
000581   8b4f     call    0xb4f            	CALL	_Sub_Up_AlLongKeyGetAlarmSetMode
                                           ;	.line	1630; "123.c"	return;	 
000582   a60d     goto    0x60d            	GOTO	_01038_DS_
                                           _00979_DS_
                                           ;	.line	1632; "123.c"	else if(GV_Mode==1)
000583   5834     movar   0x34             	MOVAR	_GV_Mode
000584   3901     xorai   0x1              	XORAI	0x01
000585   e587     jbset   0x187, 0x2       	JBSET	PFLAG,2
000586   a58b     goto    0x58b            	GOTO	_00976_DS_
                                           ;	.line	1634; "123.c"	GV_15sNoOperationCnt = C_15sNoOperationCnt;
000587   3c1e     movai   0x1e             	MOVAI	0x1e
000588   565b     movra   0x5b             	MOVRA	_GV_15sNoOperationCnt
                                           ;	.line	1635; "123.c"	Sub_Up_AlShortLongKeyClockSet();//Long/Short key return
000589   89a5     call    0x9a5            	CALL	_Sub_Up_AlShortLongKeyClockSet
                                           ;	.line	1636; "123.c"	return;	 
00058a   a60d     goto    0x60d            	GOTO	_01038_DS_
                                           _00976_DS_
                                           ;	.line	1638; "123.c"	else if(GV_Mode==2)
00058b   5834     movar   0x34             	MOVAR	_GV_Mode
00058c   3902     xorai   0x2              	XORAI	0x02
00058d   e587     jbset   0x187, 0x2       	JBSET	PFLAG,2
00058e   a5a9     goto    0x5a9            	GOTO	_00993_DS_
                                           ;	.line	1640; "123.c"	GV_15sNoOperationCnt = C_15sNoOperationCnt;
00058f   3c1e     movai   0x1e             	MOVAI	0x1e
000590   565b     movra   0x5b             	MOVRA	_GV_15sNoOperationCnt
                                           ;	.line	1641; "123.c"	Sub_Up_AlShortLongKeyAlarmSet();//Long/Short key return
000591   8ad8     call    0xad8            	CALL	_Sub_Up_AlShortLongKeyAlarmSet
                                           ;	.line	1642; "123.c"	return;	
000592   a60d     goto    0x60d            	GOTO	_01038_DS_
                                           _00992_DS_
                                           ;	.line	1652; "123.c"	if(BF_Up_AlKeyPressesd)
000593   e827     jbset   0x27, 0x4        	JBSET	_UserFlag,4
000594   a5a9     goto    0x5a9            	GOTO	_00993_DS_
                                           ;	.line	1654; "123.c"	BF_Up_AlKeyPressesd = 0;
000595   d827     bclr    0x27, 0x4        	BCLR	_UserFlag,4
                                           ;	.line	1655; "123.c"	if(GV_Mode==0)
000596   3c00     movai   0                	MOVAI	0x00
000597   5c34     orar    0x34             	ORAR	_GV_Mode
000598   f587     jbclr   0x187, 0x2       	JBCLR	PFLAG,2
000599   a5a9     goto    0x5a9            	GOTO	_00993_DS_
                                           ;	.line	1659; "123.c"	else if(GV_Mode==1)
00059a   5834     movar   0x34             	MOVAR	_GV_Mode
00059b   3901     xorai   0x1              	XORAI	0x01
00059c   e587     jbset   0x187, 0x2       	JBSET	PFLAG,2
00059d   a5a2     goto    0x5a2            	GOTO	_00984_DS_
                                           ;	.line	1661; "123.c"	GV_15sNoOperationCnt = C_15sNoOperationCnt;
00059e   3c1e     movai   0x1e             	MOVAI	0x1e
00059f   565b     movra   0x5b             	MOVRA	_GV_15sNoOperationCnt
                                           ;	.line	1662; "123.c"	Sub_RealTimeClockAdd();	//Long/Short key return	 
0005a0   89c9     call    0x9c9            	CALL	_Sub_RealTimeClockAdd
0005a1   a5a9     goto    0x5a9            	GOTO	_00993_DS_
                                           _00984_DS_
                                           ;	.line	1664; "123.c"	else if(GV_Mode==2)
0005a2   5834     movar   0x34             	MOVAR	_GV_Mode
0005a3   3902     xorai   0x2              	XORAI	0x02
0005a4   e587     jbset   0x187, 0x2       	JBSET	PFLAG,2
0005a5   a5a9     goto    0x5a9            	GOTO	_00993_DS_
                                           ;	.line	1666; "123.c"	GV_15sNoOperationCnt = C_15sNoOperationCnt;
0005a6   3c1e     movai   0x1e             	MOVAI	0x1e
0005a7   565b     movra   0x5b             	MOVRA	_GV_15sNoOperationCnt
                                           ;	.line	1667; "123.c"	Sub_SetAlarmAddTimer();	//Long/Short key return
0005a8   8b19     call    0xb19            	CALL	_Sub_SetAlarmAddTimer
                                           _00993_DS_
                                           ;	.line	1678; "123.c"	if(GV_CurKey == 0x58)//0101 1000 ShortKey,no return;
0005a9   5833     movar   0x33             	MOVAR	_GV_CurKey
0005aa   3958     xorai   0x58             	XORAI	0x58
0005ab   e587     jbset   0x187, 0x2       	JBSET	PFLAG,2
0005ac   a5c1     goto    0x5c1            	GOTO	_01013_DS_
                                           ;	.line	1680; "123.c"	if(GV_Mode==0)
0005ad   3c00     movai   0                	MOVAI	0x00
0005ae   5c34     orar    0x34             	ORAR	_GV_Mode
0005af   f587     jbclr   0x187, 0x2       	JBCLR	PFLAG,2
0005b0   a5d7     goto    0x5d7            	GOTO	_01014_DS_
                                           ;	.line	1684; "123.c"	else if(GV_Mode==1)
0005b1   5834     movar   0x34             	MOVAR	_GV_Mode
0005b2   3901     xorai   0x1              	XORAI	0x01
0005b3   e587     jbset   0x187, 0x2       	JBSET	PFLAG,2
0005b4   a5b9     goto    0x5b9            	GOTO	_00997_DS_
                                           ;	.line	1686; "123.c"	GV_15sNoOperationCnt = C_15sNoOperationCnt;
0005b5   3c1e     movai   0x1e             	MOVAI	0x1e
0005b6   565b     movra   0x5b             	MOVRA	_GV_15sNoOperationCnt
                                           ;	.line	1687; "123.c"	Sub_DownShortLongKeyClockSet();//Long/Short key return
0005b7   87dd     call    0x7dd            	CALL	_Sub_DownShortLongKeyClockSet
                                           ;	.line	1688; "123.c"	return;	
0005b8   a60d     goto    0x60d            	GOTO	_01038_DS_
                                           _00997_DS_
                                           ;	.line	1690; "123.c"	else if(GV_Mode==2)
0005b9   5834     movar   0x34             	MOVAR	_GV_Mode
0005ba   3902     xorai   0x2              	XORAI	0x02
0005bb   e587     jbset   0x187, 0x2       	JBSET	PFLAG,2
0005bc   a5d7     goto    0x5d7            	GOTO	_01014_DS_
                                           ;	.line	1692; "123.c"	GV_15sNoOperationCnt = C_15sNoOperationCnt;
0005bd   3c1e     movai   0x1e             	MOVAI	0x1e
0005be   565b     movra   0x5b             	MOVRA	_GV_15sNoOperationCnt
                                           ;	.line	1693; "123.c"	Sub_DownShortLongKeyAlarmSet();//Long/Short key return
0005bf   8943     call    0x943            	CALL	_Sub_DownShortLongKeyAlarmSet
                                           ;	.line	1694; "123.c"	return;	
0005c0   a60d     goto    0x60d            	GOTO	_01038_DS_
                                           _01013_DS_
                                           ;	.line	1705; "123.c"	if(BF_DownKeyPressesd)
0005c1   ec27     jbset   0x27, 0x6        	JBSET	_UserFlag,6
0005c2   a5d7     goto    0x5d7            	GOTO	_01014_DS_
                                           ;	.line	1707; "123.c"	BF_DownKeyPressesd = 0;
0005c3   dc27     bclr    0x27, 0x6        	BCLR	_UserFlag,6
                                           ;	.line	1709; "123.c"	if(GV_Mode==0)
0005c4   3c00     movai   0                	MOVAI	0x00
0005c5   5c34     orar    0x34             	ORAR	_GV_Mode
0005c6   f587     jbclr   0x187, 0x2       	JBCLR	PFLAG,2
0005c7   a5d7     goto    0x5d7            	GOTO	_01014_DS_
                                           ;	.line	1713; "123.c"	else if(GV_Mode==1)
0005c8   5834     movar   0x34             	MOVAR	_GV_Mode
0005c9   3901     xorai   0x1              	XORAI	0x01
0005ca   e587     jbset   0x187, 0x2       	JBSET	PFLAG,2
0005cb   a5d0     goto    0x5d0            	GOTO	_01005_DS_
                                           ;	.line	1715; "123.c"	GV_15sNoOperationCnt = C_15sNoOperationCnt;
0005cc   3c1e     movai   0x1e             	MOVAI	0x1e
0005cd   565b     movra   0x5b             	MOVRA	_GV_15sNoOperationCnt
                                           ;	.line	1716; "123.c"	Sub_RealTimeClockDec();	//Long/Short key return	
0005ce   8801     call    0x801            	CALL	_Sub_RealTimeClockDec
0005cf   a5d7     goto    0x5d7            	GOTO	_01014_DS_
                                           _01005_DS_
                                           ;	.line	1718; "123.c"	else if(GV_Mode==2)
0005d0   5834     movar   0x34             	MOVAR	_GV_Mode
0005d1   3902     xorai   0x2              	XORAI	0x02
0005d2   e587     jbset   0x187, 0x2       	JBSET	PFLAG,2
0005d3   a5d7     goto    0x5d7            	GOTO	_01014_DS_
                                           ;	.line	1720; "123.c"	GV_15sNoOperationCnt = C_15sNoOperationCnt;
0005d4   3c1e     movai   0x1e             	MOVAI	0x1e
0005d5   565b     movra   0x5b             	MOVRA	_GV_15sNoOperationCnt
                                           ;	.line	1721; "123.c"	Sub_SetAlarmDecTimer();	//Long/Short key return	
0005d6   8967     call    0x967            	CALL	_Sub_SetAlarmDecTimer
                                           _01014_DS_
                                           ;	.line	1730; "123.c"	if(GV_CurKey == 0x68)//0110 1000 ShortKey,no return;
0005d7   5833     movar   0x33             	MOVAR	_GV_CurKey
0005d8   3968     xorai   0x68             	XORAI	0x68
0005d9   e587     jbset   0x187, 0x2       	JBSET	PFLAG,2
0005da   a5f0     goto    0x5f0            	GOTO	_01024_DS_
                                           ;	.line	1732; "123.c"	if(GV_Mode==0)
0005db   3c00     movai   0                	MOVAI	0x00
0005dc   5c34     orar    0x34             	ORAR	_GV_Mode
0005dd   e587     jbset   0x187, 0x2       	JBSET	PFLAG,2
0005de   a5e1     goto    0x5e1            	GOTO	_01021_DS_
                                           ;	.line	1734; "123.c"	Sub_SetLongKeyGetRealTimeClockSetMode();
0005df   8793     call    0x793            	CALL	_Sub_SetLongKeyGetRealTimeClockSetMode
                                           ;	.line	1735; "123.c"	return;
0005e0   a60d     goto    0x60d            	GOTO	_01038_DS_
                                           _01021_DS_
                                           ;	.line	1737; "123.c"	else if(GV_Mode==1)
0005e1   5834     movar   0x34             	MOVAR	_GV_Mode
0005e2   3901     xorai   0x1              	XORAI	0x01
0005e3   e587     jbset   0x187, 0x2       	JBSET	PFLAG,2
0005e4   a5e9     goto    0x5e9            	GOTO	_01018_DS_
                                           ;	.line	1739; "123.c"	GV_15sNoOperationCnt = C_15sNoOperationCnt;
0005e5   3c1e     movai   0x1e             	MOVAI	0x1e
0005e6   565b     movra   0x5b             	MOVRA	_GV_15sNoOperationCnt
                                           ;	.line	1740; "123.c"	Sub_SetKeyRealTimeClockEnter();//Long/Short key return 	
0005e7   8655     call    0x655            	CALL	_Sub_SetKeyRealTimeClockEnter
0005e8   a5f0     goto    0x5f0            	GOTO	_01024_DS_
                                           _01018_DS_
                                           ;	.line	1742; "123.c"	else if(GV_Mode==2)
0005e9   5834     movar   0x34             	MOVAR	_GV_Mode
0005ea   3902     xorai   0x2              	XORAI	0x02
0005eb   e587     jbset   0x187, 0x2       	JBSET	PFLAG,2
0005ec   a5f0     goto    0x5f0            	GOTO	_01024_DS_
                                           ;	.line	1744; "123.c"	GV_15sNoOperationCnt = C_15sNoOperationCnt;
0005ed   3c1e     movai   0x1e             	MOVAI	0x1e
0005ee   565b     movra   0x5b             	MOVRA	_GV_15sNoOperationCnt
                                           ;	.line	1745; "123.c"	Sub_SetKeyAlarmEnter();//Long/Short key return 	
0005ef   860e     call    0x60e            	CALL	_Sub_SetKeyAlarmEnter
                                           _01024_DS_
                                           ;	.line	1755; "123.c"	if(GV_CurKey == 0x70)//0111 0000 ShortKey,no return;
0005f0   5833     movar   0x33             	MOVAR	_GV_CurKey
0005f1   3970     xorai   0x70             	XORAI	0x70
0005f2   e587     jbset   0x187, 0x2       	JBSET	PFLAG,2
0005f3   a60b     goto    0x60b            	GOTO	_01037_DS_
                                           ;	.line	1757; "123.c"	if(BF_BuzzerBBB)
0005f4   e828     jbset   0x28, 0x4        	JBSET	_UserFlag1,4
0005f5   a601     goto    0x601            	GOTO	_01032_DS_
                                           ;	.line	1759; "123.c"	BF_BuzzerBBB = 0;
0005f6   d828     bclr    0x28, 0x4        	BCLR	_UserFlag1,4
                                           ;	.line	1760; "123.c"	GV_BuzzerIndex = 0;
0005f7   7637     clrr    0x37             	CLRR	_GV_BuzzerIndex
                                           ;	.line	1761; "123.c"	GV_BuzzerDuty = 0;
0005f8   7638     clrr    0x38             	CLRR	_GV_BuzzerDuty
                                           ;	.line	1762; "123.c"	DisableBuzzer();
0005f9   d399     bclr    0x199, 0x1       	BCLR	_OEP2bits,1
                                           ;	.line	1763; "123.c"	if(GV_SnoozeTimer == 0)
0005fa   3c00     movai   0                	MOVAI	0x00
0005fb   5c5d     orar    0x5d             	ORAR	_GV_SnoozeTimer
0005fc   e587     jbset   0x187, 0x2       	JBSET	PFLAG,2
0005fd   a60b     goto    0x60b            	GOTO	_01037_DS_
                                           ;	.line	1765; "123.c"	GV_SnoozeTimer = C_SnoozeTimer;//0.5s*120=60s
0005fe   3c78     movai   0x78             	MOVAI	0x78
0005ff   565d     movra   0x5d             	MOVRA	_GV_SnoozeTimer
000600   a60b     goto    0x60b            	GOTO	_01037_DS_
                                           _01032_DS_
                                           ;	.line	1770; "123.c"	if(GV_Mode == 0)
000601   3c00     movai   0                	MOVAI	0x00
000602   5c34     orar    0x34             	ORAR	_GV_Mode
000603   e587     jbset   0x187, 0x2       	JBSET	PFLAG,2
000604   a60b     goto    0x60b            	GOTO	_01037_DS_
                                           ;	.line	1772; "123.c"	if(++GV_DisplayBrightnessLevel > 2)//3
000605   665c     incr    0x5c             	INCR	_GV_DisplayBrightnessLevel
                                           ;;swapping arguments (AOP_TYPEs 1/3)
                                           ;;unsigned compare: left >= lit(0x3=3), size=1
000606   3c03     movai   0x3              	MOVAI	0x03
000607   485c     rsubar  0x5c             	RSUBAR	_GV_DisplayBrightnessLevel
000608   e187     jbset   0x187, 0         	JBSET	PFLAG,0
000609   a60b     goto    0x60b            	GOTO	_01037_DS_
                                           ;;genSkipc:3195: created from rifx:00DE608C
                                           ;	.line	1774; "123.c"	GV_DisplayBrightnessLevel = 0;
00060a   765c     clrr    0x5c             	CLRR	_GV_DisplayBrightnessLevel
                                           _01037_DS_
                                           ;	.line	1782; "123.c"	GV_PreKey = GV_CurKey; 	
00060b   5833     movar   0x33             	MOVAR	_GV_CurKey
00060c   5632     movra   0x32             	MOVRA	_GV_PreKey
                                           _01038_DS_
00060d   000c     return                   	RETURN	
                                           ; exit point of _Sub_KeyScan
                                           
                                           ;***
                                           ;  pBlock Stats: dbName = C
                                           ;***
                                           ;entry:  _Sub_SetKeyAlarmEnter	;Function start
                                           ; 2 exit points
                                           ;has an exit
                                           ;2 compiler assigned registers:
                                           ;   r0x1050
                                           ;   r0x1051
                                           ;; Starting pCode block
                                           _Sub_SetKeyAlarmEnter	;Function start
                                           ; 2 exit points
                                           ;	.line	1532; "123.c"	if(GV_AlarmClockSetStep==0)
00060e   3c00     movai   0                	MOVAI	0x00
00060f   5c36     orar    0x36             	ORAR	_GV_AlarmClockSetStep
000610   e587     jbset   0x187, 0x2       	JBSET	PFLAG,2
000611   a632     goto    0x632            	GOTO	_00962_DS_
                                           ;	.line	1534; "123.c"	BF_RunAlarmOnOff = BF_SetAlarmOnOff;
000612   760b     clrr    0xb              	CLRR	r0x1050
000613   fa28     jbclr   0x28, 0x5        	JBCLR	_UserFlag1,5
000614   660b     incr    0xb              	INCR	r0x1050
000615   580b     movar   0xb              	MOVAR	r0x1050
000616   560c     movra   0xc              	MOVRA	r0x1051
000617   4c0c     rrar    0xc              	RRAR	r0x1051
000618   e187     jbset   0x187, 0         	JBSET	PFLAG,0
000619   dc28     bclr    0x28, 0x6        	BCLR	_UserFlag1,6
00061a   f187     jbclr   0x187, 0         	JBCLR	PFLAG,0
00061b   cc28     bset    0x28, 0x6        	BSET	_UserFlag1,6
                                           ;	.line	1535; "123.c"	if(BF_RunAlarmOnOff)//0 = Run alarm off; 1 = Run alarm on
00061c   ec28     jbset   0x28, 0x6        	JBSET	_UserFlag1,6
00061d   a62e     goto    0x62e            	GOTO	_00954_DS_
                                           ;	.line	1537; "123.c"	GV_SetAlarmClockHrSingleDig = GV_RunAlarmClockHrSingleDig;
00061e   5857     movar   0x57             	MOVAR	_GV_RunAlarmClockHrSingleDig
00061f   5653     movra   0x53             	MOVRA	_GV_SetAlarmClockHrSingleDig
                                           ;	.line	1538; "123.c"	GV_SetAlarmClockHrTenDig = GV_RunAlarmClockHrTenDig;
000620   5858     movar   0x58             	MOVAR	_GV_RunAlarmClockHrTenDig
000621   5654     movra   0x54             	MOVRA	_GV_SetAlarmClockHrTenDig
                                           ;	.line	1539; "123.c"	BF_SetAlarmAM_PM = BF_RunAlarmAM_PM;
000622   760b     clrr    0xb              	CLRR	r0x1050
000623   f628     jbclr   0x28, 0x3        	JBCLR	_UserFlag1,3
000624   660b     incr    0xb              	INCR	r0x1050
000625   580b     movar   0xb              	MOVAR	r0x1050
000626   560c     movra   0xc              	MOVRA	r0x1051
000627   4c0c     rrar    0xc              	RRAR	r0x1051
000628   e187     jbset   0x187, 0         	JBSET	PFLAG,0
000629   d428     bclr    0x28, 0x2        	BCLR	_UserFlag1,2
00062a   f187     jbclr   0x187, 0         	JBCLR	PFLAG,0
00062b   c428     bset    0x28, 0x2        	BSET	_UserFlag1,2
                                           ;	.line	1540; "123.c"	GV_AlarmClockSetStep++;
00062c   6636     incr    0x36             	INCR	_GV_AlarmClockSetStep
00062d   a62f     goto    0x62f            	GOTO	_00955_DS_
                                           _00954_DS_
                                           ;	.line	1544; "123.c"	GV_Mode = 0;//0=Normal mode;mode;
00062e   7634     clrr    0x34             	CLRR	_GV_Mode
                                           _00955_DS_
                                           ;	.line	1546; "123.c"	GV_PreKey = GV_CurKey;     	   	
00062f   5833     movar   0x33             	MOVAR	_GV_CurKey
000630   5632     movra   0x32             	MOVRA	_GV_PreKey
000631   a654     goto    0x654            	GOTO	_00964_DS_
                                           _00962_DS_
                                           ;	.line	1548; "123.c"	else if(GV_AlarmClockSetStep==1)
000632   5836     movar   0x36             	MOVAR	_GV_AlarmClockSetStep
000633   3901     xorai   0x1              	XORAI	0x01
000634   e587     jbset   0x187, 0x2       	JBSET	PFLAG,2
000635   a64a     goto    0x64a            	GOTO	_00959_DS_
                                           ;	.line	1550; "123.c"	GV_RunAlarmClockHrSingleDig = GV_SetAlarmClockHrSingleDig;
000636   5853     movar   0x53             	MOVAR	_GV_SetAlarmClockHrSingleDig
000637   5657     movra   0x57             	MOVRA	_GV_RunAlarmClockHrSingleDig
                                           ;	.line	1551; "123.c"	GV_RunAlarmClockHrTenDig = GV_SetAlarmClockHrTenDig;
000638   5854     movar   0x54             	MOVAR	_GV_SetAlarmClockHrTenDig
000639   5658     movra   0x58             	MOVRA	_GV_RunAlarmClockHrTenDig
                                           ;	.line	1552; "123.c"	BF_RunAlarmAM_PM = BF_SetAlarmAM_PM;
00063a   760b     clrr    0xb              	CLRR	r0x1050
00063b   f428     jbclr   0x28, 0x2        	JBCLR	_UserFlag1,2
00063c   660b     incr    0xb              	INCR	r0x1050
00063d   580b     movar   0xb              	MOVAR	r0x1050
00063e   560c     movra   0xc              	MOVRA	r0x1051
00063f   4c0c     rrar    0xc              	RRAR	r0x1051
000640   e187     jbset   0x187, 0         	JBSET	PFLAG,0
000641   d628     bclr    0x28, 0x3        	BCLR	_UserFlag1,3
000642   f187     jbclr   0x187, 0         	JBCLR	PFLAG,0
000643   c628     bset    0x28, 0x3        	BSET	_UserFlag1,3
                                           ;	.line	1554; "123.c"	GV_SetAlarmClockMinSingleDig = GV_RunAlarmClockMinSingleDig;
000644   5859     movar   0x59             	MOVAR	_GV_RunAlarmClockMinSingleDig
000645   5655     movra   0x55             	MOVRA	_GV_SetAlarmClockMinSingleDig
                                           ;	.line	1555; "123.c"	GV_SetAlarmClockMinTenDig = GV_RunAlarmClockMinTenDig;
000646   585a     movar   0x5a             	MOVAR	_GV_RunAlarmClockMinTenDig
000647   5656     movra   0x56             	MOVRA	_GV_SetAlarmClockMinTenDig
                                           ;	.line	1556; "123.c"	GV_AlarmClockSetStep++;    	   	
000648   6636     incr    0x36             	INCR	_GV_AlarmClockSetStep
000649   a654     goto    0x654            	GOTO	_00964_DS_
                                           _00959_DS_
                                           ;	.line	1558; "123.c"	else if(GV_AlarmClockSetStep==2)
00064a   5836     movar   0x36             	MOVAR	_GV_AlarmClockSetStep
00064b   3902     xorai   0x2              	XORAI	0x02
00064c   e587     jbset   0x187, 0x2       	JBSET	PFLAG,2
00064d   a654     goto    0x654            	GOTO	_00964_DS_
                                           ;	.line	1560; "123.c"	GV_RunAlarmClockMinSingleDig = GV_SetAlarmClockMinSingleDig;
00064e   5855     movar   0x55             	MOVAR	_GV_SetAlarmClockMinSingleDig
00064f   5659     movra   0x59             	MOVRA	_GV_RunAlarmClockMinSingleDig
                                           ;	.line	1561; "123.c"	GV_RunAlarmClockMinTenDig = GV_SetAlarmClockMinTenDig;
000650   5856     movar   0x56             	MOVAR	_GV_SetAlarmClockMinTenDig
000651   565a     movra   0x5a             	MOVRA	_GV_RunAlarmClockMinTenDig
                                           ;	.line	1562; "123.c"	GV_Mode = 0;//0=Normal mode;mode;
000652   7634     clrr    0x34             	CLRR	_GV_Mode
                                           ;	.line	1563; "123.c"	GV_AlarmClockSetStep = 0;      	   	
000653   7636     clrr    0x36             	CLRR	_GV_AlarmClockSetStep
                                           _00964_DS_
000654   000c     return                   	RETURN	
                                           ; exit point of _Sub_SetKeyAlarmEnter
                                           
                                           ;***
                                           ;  pBlock Stats: dbName = C
                                           ;***
                                           ;entry:  _Sub_SetKeyRealTimeClockEnter	;Function start
                                           ; 2 exit points
                                           ;has an exit
                                           ;functions called:
                                           ;   _Sub_Write1302
                                           ;   _Sub_Write1302
                                           ;   _Sub_Write1302
                                           ;   _Sub_Write1302
                                           ;   _Sub_Write1302
                                           ;   _Sub_Write1302
                                           ;   _Sub_Read1302
                                           ;   __mulchar
                                           ;   _Sub_Read1302
                                           ;   __mulchar
                                           ;   _Sub_Read1302
                                           ;   __mulchar
                                           ;   _Sub_Write1302
                                           ;   _Sub_Write1302
                                           ;   _Sub_Write1302
                                           ;   _Sub_Write1302
                                           ;   _Sub_Write1302
                                           ;   _Sub_Write1302
                                           ;   _Sub_Write1302
                                           ;   _Sub_Write1302
                                           ;   _Sub_Write1302
                                           ;   _Sub_Write1302
                                           ;   _Sub_Write1302
                                           ;   _Sub_Write1302
                                           ;   _Sub_Write1302
                                           ;   _Sub_Write1302
                                           ;   _Sub_Write1302
                                           ;   _Sub_Read1302
                                           ;   __mulchar
                                           ;   _Sub_Read1302
                                           ;   __mulchar
                                           ;   _Sub_Read1302
                                           ;   __mulchar
                                           ;   _Sub_Write1302
                                           ;   _Sub_Write1302
                                           ;   _Sub_Write1302
                                           ;   _Sub_Write1302
                                           ;   _Sub_Write1302
                                           ;   _Sub_Write1302
                                           ;   _Sub_Write1302
                                           ;   _Sub_Write1302
                                           ;   _Sub_Write1302
                                           ;5 compiler assigned registers:
                                           ;   r0x1053
                                           ;   STK00
                                           ;   r0x1054
                                           ;   r0x1055
                                           ;   r0x1056
                                           ;; Starting pCode block
                                           _Sub_SetKeyRealTimeClockEnter	;Function start
                                           ; 2 exit points
                                           ;	.line	1359; "123.c"	if(GV_RealTimeClockSetStep==0)
000655   3c00     movai   0                	MOVAI	0x00
000656   5c35     orar    0x35             	ORAR	_GV_RealTimeClockSetStep
000657   e587     jbset   0x187, 0x2       	JBSET	PFLAG,2
000658   a674     goto    0x674            	GOTO	_00884_DS_
                                           ;	.line	1361; "123.c"	LV_TenTemp = GV_SetYearTenDig;
000659   583c     movar   0x3c             	MOVAR	_GV_SetYearTenDig
00065a   5610     movra   0x10             	MOVRA	r0x1053
                                           ;	.line	1362; "123.c"	LV_TenTemp <<= 4;
00065b   4410     swapar  0x10             	SWAPAR	r0x1053
00065c   3ef0     andai   0xf0             	ANDAI	0xf0
00065d   5610     movra   0x10             	MOVRA	r0x1053
                                           ;	.line	1363; "123.c"	GV_GetByteFromDs1302 = (GV_SetYearSingleDig | LV_TenTemp);
00065e   5810     movar   0x10             	MOVAR	r0x1053
00065f   5c3b     orar    0x3b             	ORAR	_GV_SetYearSingleDig
000660   5639     movra   0x39             	MOVRA	_GV_GetByteFromDs1302
                                           ;	.line	1364; "123.c"	Sub_Write1302(C_DS1302_WriteProtect,C_DS1302_DisableWriteProtect); //Disable write protect
000661   3c00     movai   0                	MOVAI	0x00
000662   5606     movra   0x6              	MOVRA	STK00
000663   3c8e     movai   0x8e             	MOVAI	0x8e
000664   8c22     call    0xc22            	CALL	_Sub_Write1302
                                           ;	.line	1365; "123.c"	Nop();
000665   0000     nop                      	nop
                                           ;	.line	1366; "123.c"	Nop();
000666   0000     nop                      	nop
                                           ;	.line	1367; "123.c"	Sub_Write1302(C_DS1302_Year,GV_GetByteFromDs1302); 	   	
000667   5839     movar   0x39             	MOVAR	_GV_GetByteFromDs1302
000668   5606     movra   0x6              	MOVRA	STK00
000669   3c8c     movai   0x8c             	MOVAI	0x8c
00066a   8c22     call    0xc22            	CALL	_Sub_Write1302
                                           ;	.line	1368; "123.c"	Nop();
00066b   0000     nop                      	nop
                                           ;	.line	1369; "123.c"	Nop();
00066c   0000     nop                      	nop
                                           ;	.line	1370; "123.c"	Sub_Write1302(C_DS1302_WriteProtect,C_DS1302_EnableWriteProtect); //Enable write protect
00066d   3c80     movai   0x80             	MOVAI	0x80
00066e   5606     movra   0x6              	MOVRA	STK00
00066f   3c8e     movai   0x8e             	MOVAI	0x8e
000670   8c22     call    0xc22            	CALL	_Sub_Write1302
                                           ;	.line	1371; "123.c"	Nop();
000671   0000     nop                      	nop
                                           ;	.line	1372; "123.c"	Nop();     	   	
000672   0000     nop                      	nop
000673   a78b     goto    0x78b            	GOTO	_00885_DS_
                                           _00884_DS_
                                           ;	.line	1374; "123.c"	else if(GV_RealTimeClockSetStep==1)
000674   5835     movar   0x35             	MOVAR	_GV_RealTimeClockSetStep
000675   3901     xorai   0x1              	XORAI	0x01
000676   e587     jbset   0x187, 0x2       	JBSET	PFLAG,2
000677   a729     goto    0x729            	GOTO	_00881_DS_
                                           ;	.line	1376; "123.c"	LV_TenTemp = GV_SetMonthTenDig;
000678   5844     movar   0x44             	MOVAR	_GV_SetMonthTenDig
000679   5610     movra   0x10             	MOVRA	r0x1053
                                           ;	.line	1377; "123.c"	LV_TenTemp <<= 4;
00067a   4410     swapar  0x10             	SWAPAR	r0x1053
00067b   3ef0     andai   0xf0             	ANDAI	0xf0
00067c   5610     movra   0x10             	MOVRA	r0x1053
                                           ;	.line	1378; "123.c"	GV_GetByteFromDs1302 = (GV_SetMonthSingleDig | LV_TenTemp);
00067d   5810     movar   0x10             	MOVAR	r0x1053
00067e   5c43     orar    0x43             	ORAR	_GV_SetMonthSingleDig
00067f   5639     movra   0x39             	MOVRA	_GV_GetByteFromDs1302
                                           ;	.line	1379; "123.c"	Sub_Write1302(C_DS1302_WriteProtect,C_DS1302_DisableWriteProtect); //Disable write protect
000680   3c00     movai   0                	MOVAI	0x00
000681   5606     movra   0x6              	MOVRA	STK00
000682   3c8e     movai   0x8e             	MOVAI	0x8e
000683   8c22     call    0xc22            	CALL	_Sub_Write1302
                                           ;	.line	1380; "123.c"	Nop();
000684   0000     nop                      	nop
                                           ;	.line	1381; "123.c"	Nop();
000685   0000     nop                      	nop
                                           ;	.line	1382; "123.c"	Sub_Write1302(C_DS1302_Month,GV_GetByteFromDs1302);	   	
000686   5839     movar   0x39             	MOVAR	_GV_GetByteFromDs1302
000687   5606     movra   0x6              	MOVRA	STK00
000688   3c88     movai   0x88             	MOVAI	0x88
000689   8c22     call    0xc22            	CALL	_Sub_Write1302
                                           ;	.line	1383; "123.c"	Nop();
00068a   0000     nop                      	nop
                                           ;	.line	1384; "123.c"	Nop();
00068b   0000     nop                      	nop
                                           ;	.line	1385; "123.c"	Sub_Write1302(C_DS1302_WriteProtect,C_DS1302_EnableWriteProtect); //Enable write protect
00068c   3c80     movai   0x80             	MOVAI	0x80
00068d   5606     movra   0x6              	MOVRA	STK00
00068e   3c8e     movai   0x8e             	MOVAI	0x8e
00068f   8c22     call    0xc22            	CALL	_Sub_Write1302
                                           ;	.line	1386; "123.c"	Nop();
000690   0000     nop                      	nop
                                           ;	.line	1387; "123.c"	Nop();
000691   0000     nop                      	nop
                                           ;	.line	1389; "123.c"	Sub_Read1302(C_DS1302_Year);//C_DS1302_Year
000692   3c8c     movai   0x8c             	MOVAI	0x8c
000693   8c50     call    0xc50            	CALL	_Sub_Read1302
                                           ;	.line	1390; "123.c"	LV_TempA = GV_GetByteFromDs1302;
000694   5839     movar   0x39             	MOVAR	_GV_GetByteFromDs1302
000695   566b     movra   0x6b             	MOVRA	_LV_TempA
                                           ;	.line	1391; "123.c"	LV_TempB = (LV_TempA>>4)*10;//BCD_TO_HEX
000696   446b     swapar  0x6b             	SWAPAR	_LV_TempA
000697   3e0f     andai   0xf              	ANDAI	0x0f
000698   5611     movra   0x11             	MOVRA	r0x1054
000699   3c0a     movai   0xa              	MOVAI	0x0a
00069a   5606     movra   0x6              	MOVRA	STK00
00069b   5811     movar   0x11             	MOVAR	r0x1054
00069c   8c7e     call    0xc7e            	CALL	__mulchar
00069d   566c     movra   0x6c             	MOVRA	_LV_TempB
                                           ;	.line	1392; "123.c"	LV_TempYear = LV_TempA & 0x0f;
00069e   3c0f     movai   0xf              	MOVAI	0x0f
00069f   786b     andar   0x6b             	ANDAR	_LV_TempA
0006a0   5611     movra   0x11             	MOVRA	r0x1054
                                           ;	.line	1393; "123.c"	LV_TempYear = LV_TempYear + LV_TempB;
0006a1   586c     movar   0x6c             	MOVAR	_LV_TempB
0006a2   7e11     addra   0x11             	ADDRA	r0x1054
                                           ;	.line	1395; "123.c"	Sub_Read1302(C_DS1302_Month);//C_DS1302_Month
0006a3   3c88     movai   0x88             	MOVAI	0x88
0006a4   8c50     call    0xc50            	CALL	_Sub_Read1302
                                           ;	.line	1396; "123.c"	LV_TempA = GV_GetByteFromDs1302;
0006a5   5839     movar   0x39             	MOVAR	_GV_GetByteFromDs1302
0006a6   566b     movra   0x6b             	MOVRA	_LV_TempA
                                           ;	.line	1397; "123.c"	LV_TempB = (LV_TempA>>4)*10;//BCD_TO_HEX
0006a7   446b     swapar  0x6b             	SWAPAR	_LV_TempA
0006a8   3e0f     andai   0xf              	ANDAI	0x0f
0006a9   5612     movra   0x12             	MOVRA	r0x1055
0006aa   3c0a     movai   0xa              	MOVAI	0x0a
0006ab   5606     movra   0x6              	MOVRA	STK00
0006ac   5812     movar   0x12             	MOVAR	r0x1055
0006ad   8c7e     call    0xc7e            	CALL	__mulchar
0006ae   566c     movra   0x6c             	MOVRA	_LV_TempB
                                           ;	.line	1398; "123.c"	LV_TempMonth = LV_TempA & 0x0f;
0006af   3c0f     movai   0xf              	MOVAI	0x0f
0006b0   786b     andar   0x6b             	ANDAR	_LV_TempA
0006b1   5612     movra   0x12             	MOVRA	r0x1055
                                           ;	.line	1399; "123.c"	LV_TempMonth = LV_TempMonth + LV_TempB;
0006b2   586c     movar   0x6c             	MOVAR	_LV_TempB
0006b3   7e12     addra   0x12             	ADDRA	r0x1055
                                           ;	.line	1401; "123.c"	Sub_Read1302(C_DS1302_Day);//C_DS1302_Day
0006b4   3c86     movai   0x86             	MOVAI	0x86
0006b5   8c50     call    0xc50            	CALL	_Sub_Read1302
                                           ;	.line	1402; "123.c"	LV_TempA = GV_GetByteFromDs1302;
0006b6   5839     movar   0x39             	MOVAR	_GV_GetByteFromDs1302
0006b7   566b     movra   0x6b             	MOVRA	_LV_TempA
                                           ;	.line	1403; "123.c"	LV_TempB = (LV_TempA>>4)*10;//BCD_TO_HEX
0006b8   446b     swapar  0x6b             	SWAPAR	_LV_TempA
0006b9   3e0f     andai   0xf              	ANDAI	0x0f
0006ba   5613     movra   0x13             	MOVRA	r0x1056
0006bb   3c0a     movai   0xa              	MOVAI	0x0a
0006bc   5606     movra   0x6              	MOVRA	STK00
0006bd   5813     movar   0x13             	MOVAR	r0x1056
0006be   8c7e     call    0xc7e            	CALL	__mulchar
0006bf   566c     movra   0x6c             	MOVRA	_LV_TempB
                                           ;	.line	1404; "123.c"	LV_TempDay = LV_TempA & 0x0f;
0006c0   3c0f     movai   0xf              	MOVAI	0x0f
0006c1   786b     andar   0x6b             	ANDAR	_LV_TempA
0006c2   5613     movra   0x13             	MOVRA	r0x1056
                                           ;	.line	1405; "123.c"	LV_TempDay = LV_TempDay + LV_TempB;	
0006c3   586c     movar   0x6c             	MOVAR	_LV_TempB
0006c4   7e13     addra   0x13             	ADDRA	r0x1056
                                           ;	.line	1407; "123.c"	if(LV_TempMonth==0)
0006c5   3c00     movai   0                	MOVAI	0x00
0006c6   5c12     orar    0x12             	ORAR	r0x1055
0006c7   f587     jbclr   0x187, 0x2       	JBCLR	PFLAG,2
0006c8   a78b     goto    0x78b            	GOTO	_00885_DS_
                                           ;	.line	1411; "123.c"	else if((LV_TempMonth==1)||(LV_TempMonth==3)||(LV_TempMonth==5)||(LV_TempMonth==7)||(LV_TempMonth==8)||(LV_TempMonth==10)||(LV_TempMonth==12))
0006c9   5812     movar   0x12             	MOVAR	r0x1055
0006ca   3901     xorai   0x1              	XORAI	0x01
0006cb   e587     jbset   0x187, 0x2       	JBSET	PFLAG,2
0006cc   a6ce     goto    0x6ce            	GOTO	_00936_DS_
0006cd   a6eb     goto    0x6eb            	GOTO	_00857_DS_
                                           _00936_DS_
0006ce   5812     movar   0x12             	MOVAR	r0x1055
0006cf   3903     xorai   0x3              	XORAI	0x03
0006d0   e587     jbset   0x187, 0x2       	JBSET	PFLAG,2
0006d1   a6d3     goto    0x6d3            	GOTO	_00937_DS_
0006d2   a6eb     goto    0x6eb            	GOTO	_00857_DS_
                                           _00937_DS_
0006d3   5812     movar   0x12             	MOVAR	r0x1055
0006d4   3905     xorai   0x5              	XORAI	0x05
0006d5   e587     jbset   0x187, 0x2       	JBSET	PFLAG,2
0006d6   a6d8     goto    0x6d8            	GOTO	_00938_DS_
0006d7   a6eb     goto    0x6eb            	GOTO	_00857_DS_
                                           _00938_DS_
0006d8   5812     movar   0x12             	MOVAR	r0x1055
0006d9   3907     xorai   0x7              	XORAI	0x07
0006da   e587     jbset   0x187, 0x2       	JBSET	PFLAG,2
0006db   a6dd     goto    0x6dd            	GOTO	_00939_DS_
0006dc   a6eb     goto    0x6eb            	GOTO	_00857_DS_
                                           _00939_DS_
0006dd   5812     movar   0x12             	MOVAR	r0x1055
0006de   3908     xorai   0x8              	XORAI	0x08
0006df   e587     jbset   0x187, 0x2       	JBSET	PFLAG,2
0006e0   a6e2     goto    0x6e2            	GOTO	_00940_DS_
0006e1   a6eb     goto    0x6eb            	GOTO	_00857_DS_
                                           _00940_DS_
0006e2   5812     movar   0x12             	MOVAR	r0x1055
0006e3   390a     xorai   0xa              	XORAI	0x0a
0006e4   e587     jbset   0x187, 0x2       	JBSET	PFLAG,2
0006e5   a6e7     goto    0x6e7            	GOTO	_00941_DS_
0006e6   a6eb     goto    0x6eb            	GOTO	_00857_DS_
                                           _00941_DS_
0006e7   5812     movar   0x12             	MOVAR	r0x1055
0006e8   390c     xorai   0xc              	XORAI	0x0c
0006e9   e587     jbset   0x187, 0x2       	JBSET	PFLAG,2
0006ea   a6f4     goto    0x6f4            	GOTO	_00858_DS_
                                           ;;unsigned compare: left < lit(0x20=32), size=1
                                           _00857_DS_
                                           ;	.line	1413; "123.c"	if(LV_TempDay >= 32)
0006eb   3c20     movai   0x20             	MOVAI	0x20
0006ec   4813     rsubar  0x13             	RSUBAR	r0x1056
0006ed   e187     jbset   0x187, 0         	JBSET	PFLAG,0
0006ee   a78b     goto    0x78b            	GOTO	_00885_DS_
                                           ;;genSkipc:3195: created from rifx:00DE608C
                                           ;	.line	1415; "123.c"	GV_SetDaySingleDig = 1;
0006ef   3c01     movai   0x1              	MOVAI	0x01
0006f0   5647     movra   0x47             	MOVRA	_GV_SetDaySingleDig
                                           ;	.line	1416; "123.c"	GV_SetDayTenDig = 3;
0006f1   3c03     movai   0x3              	MOVAI	0x03
0006f2   5648     movra   0x48             	MOVRA	_GV_SetDayTenDig
0006f3   a78b     goto    0x78b            	GOTO	_00885_DS_
                                           _00858_DS_
                                           ;	.line	1419; "123.c"	else if(LV_TempMonth==2)
0006f4   5812     movar   0x12             	MOVAR	r0x1055
0006f5   3902     xorai   0x2              	XORAI	0x02
0006f6   e587     jbset   0x187, 0x2       	JBSET	PFLAG,2
0006f7   a70e     goto    0x70e            	GOTO	_00855_DS_
                                           ;	.line	1421; "123.c"	if(LV_TempYear % 4)//4(229),(228)
0006f8   5811     movar   0x11             	MOVAR	r0x1054
0006f9   3e03     andai   0x3              	ANDAI	0x03
0006fa   f587     jbclr   0x187, 0x2       	JBCLR	PFLAG,2
0006fb   a705     goto    0x705            	GOTO	_00845_DS_
                                           ;;unsigned compare: left < lit(0x1E=30), size=1
                                           ;	.line	1423; "123.c"	if(LV_TempDay >= 30)
0006fc   3c1e     movai   0x1e             	MOVAI	0x1e
0006fd   4813     rsubar  0x13             	RSUBAR	r0x1056
0006fe   e187     jbset   0x187, 0         	JBSET	PFLAG,0
0006ff   a78b     goto    0x78b            	GOTO	_00885_DS_
                                           ;;genSkipc:3195: created from rifx:00DE608C
                                           ;	.line	1425; "123.c"	GV_SetDaySingleDig = 9;
000700   3c09     movai   0x9              	MOVAI	0x09
000701   5647     movra   0x47             	MOVRA	_GV_SetDaySingleDig
                                           ;	.line	1426; "123.c"	GV_SetDayTenDig = 2;
000702   3c02     movai   0x2              	MOVAI	0x02
000703   5648     movra   0x48             	MOVRA	_GV_SetDayTenDig
000704   a78b     goto    0x78b            	GOTO	_00885_DS_
                                           ;;unsigned compare: left < lit(0x1D=29), size=1
                                           _00845_DS_
                                           ;	.line	1431; "123.c"	if(LV_TempDay >= 29)
000705   3c1d     movai   0x1d             	MOVAI	0x1d
000706   4813     rsubar  0x13             	RSUBAR	r0x1056
000707   e187     jbset   0x187, 0         	JBSET	PFLAG,0
000708   a78b     goto    0x78b            	GOTO	_00885_DS_
                                           ;;genSkipc:3195: created from rifx:00DE608C
                                           ;	.line	1433; "123.c"	GV_SetDaySingleDig = 8;
000709   3c08     movai   0x8              	MOVAI	0x08
00070a   5647     movra   0x47             	MOVRA	_GV_SetDaySingleDig
                                           ;	.line	1434; "123.c"	GV_SetDayTenDig = 2;
00070b   3c02     movai   0x2              	MOVAI	0x02
00070c   5648     movra   0x48             	MOVRA	_GV_SetDayTenDig
00070d   a78b     goto    0x78b            	GOTO	_00885_DS_
                                           _00855_DS_
                                           ;	.line	1438; "123.c"	else if((LV_TempMonth==4)||(LV_TempMonth==6)||(LV_TempMonth==9)||(LV_TempMonth==11))
00070e   5812     movar   0x12             	MOVAR	r0x1055
00070f   3904     xorai   0x4              	XORAI	0x04
000710   e587     jbset   0x187, 0x2       	JBSET	PFLAG,2
000711   a713     goto    0x713            	GOTO	_00946_DS_
000712   a721     goto    0x721            	GOTO	_00849_DS_
                                           _00946_DS_
000713   5812     movar   0x12             	MOVAR	r0x1055
000714   3906     xorai   0x6              	XORAI	0x06
000715   e587     jbset   0x187, 0x2       	JBSET	PFLAG,2
000716   a718     goto    0x718            	GOTO	_00947_DS_
000717   a721     goto    0x721            	GOTO	_00849_DS_
                                           _00947_DS_
000718   5812     movar   0x12             	MOVAR	r0x1055
000719   3909     xorai   0x9              	XORAI	0x09
00071a   e587     jbset   0x187, 0x2       	JBSET	PFLAG,2
00071b   a71d     goto    0x71d            	GOTO	_00948_DS_
00071c   a721     goto    0x721            	GOTO	_00849_DS_
                                           _00948_DS_
00071d   5812     movar   0x12             	MOVAR	r0x1055
00071e   390b     xorai   0xb              	XORAI	0x0b
00071f   e587     jbset   0x187, 0x2       	JBSET	PFLAG,2
000720   a78b     goto    0x78b            	GOTO	_00885_DS_
                                           ;;unsigned compare: left < lit(0x1F=31), size=1
                                           _00849_DS_
                                           ;	.line	1440; "123.c"	if(LV_TempDay >= 31)
000721   3c1f     movai   0x1f             	MOVAI	0x1f
000722   4813     rsubar  0x13             	RSUBAR	r0x1056
000723   e187     jbset   0x187, 0         	JBSET	PFLAG,0
000724   a78b     goto    0x78b            	GOTO	_00885_DS_
                                           ;;genSkipc:3195: created from rifx:00DE608C
                                           ;	.line	1442; "123.c"	GV_SetDaySingleDig = 0;
000725   7647     clrr    0x47             	CLRR	_GV_SetDaySingleDig
                                           ;	.line	1443; "123.c"	GV_SetDayTenDig = 3;   	   	   	   	   	   	   	
000726   3c03     movai   0x3              	MOVAI	0x03
000727   5648     movra   0x48             	MOVRA	_GV_SetDayTenDig
000728   a78b     goto    0x78b            	GOTO	_00885_DS_
                                           _00881_DS_
                                           ;	.line	1451; "123.c"	else if(GV_RealTimeClockSetStep==2)
000729   5835     movar   0x35             	MOVAR	_GV_RealTimeClockSetStep
00072a   3902     xorai   0x2              	XORAI	0x02
00072b   e587     jbset   0x187, 0x2       	JBSET	PFLAG,2
00072c   a748     goto    0x748            	GOTO	_00878_DS_
                                           ;	.line	1453; "123.c"	LV_TenTemp = GV_SetDayTenDig;
00072d   5848     movar   0x48             	MOVAR	_GV_SetDayTenDig
00072e   5610     movra   0x10             	MOVRA	r0x1053
                                           ;	.line	1454; "123.c"	LV_TenTemp <<= 4;
00072f   4410     swapar  0x10             	SWAPAR	r0x1053
000730   3ef0     andai   0xf0             	ANDAI	0xf0
000731   5610     movra   0x10             	MOVRA	r0x1053
                                           ;	.line	1455; "123.c"	GV_GetByteFromDs1302 = (GV_SetDaySingleDig | LV_TenTemp);
000732   5810     movar   0x10             	MOVAR	r0x1053
000733   5c47     orar    0x47             	ORAR	_GV_SetDaySingleDig
000734   5639     movra   0x39             	MOVRA	_GV_GetByteFromDs1302
                                           ;	.line	1456; "123.c"	Sub_Write1302(C_DS1302_WriteProtect,C_DS1302_DisableWriteProtect); //Disable write protect
000735   3c00     movai   0                	MOVAI	0x00
000736   5606     movra   0x6              	MOVRA	STK00
000737   3c8e     movai   0x8e             	MOVAI	0x8e
000738   8c22     call    0xc22            	CALL	_Sub_Write1302
                                           ;	.line	1457; "123.c"	Nop();
000739   0000     nop                      	nop
                                           ;	.line	1458; "123.c"	Nop();
00073a   0000     nop                      	nop
                                           ;	.line	1459; "123.c"	Sub_Write1302(C_DS1302_Day,GV_GetByteFromDs1302);  	   	
00073b   5839     movar   0x39             	MOVAR	_GV_GetByteFromDs1302
00073c   5606     movra   0x6              	MOVRA	STK00
00073d   3c86     movai   0x86             	MOVAI	0x86
00073e   8c22     call    0xc22            	CALL	_Sub_Write1302
                                           ;	.line	1460; "123.c"	Nop();
00073f   0000     nop                      	nop
                                           ;	.line	1461; "123.c"	Nop();
000740   0000     nop                      	nop
                                           ;	.line	1462; "123.c"	Sub_Write1302(C_DS1302_WriteProtect,C_DS1302_EnableWriteProtect); //Enable write protect
000741   3c80     movai   0x80             	MOVAI	0x80
000742   5606     movra   0x6              	MOVRA	STK00
000743   3c8e     movai   0x8e             	MOVAI	0x8e
000744   8c22     call    0xc22            	CALL	_Sub_Write1302
                                           ;	.line	1463; "123.c"	Nop();
000745   0000     nop                      	nop
                                           ;	.line	1464; "123.c"	Nop();     	   	
000746   0000     nop                      	nop
000747   a78b     goto    0x78b            	GOTO	_00885_DS_
                                           _00878_DS_
                                           ;	.line	1466; "123.c"	else if(GV_RealTimeClockSetStep==3)
000748   5835     movar   0x35             	MOVAR	_GV_RealTimeClockSetStep
000749   3903     xorai   0x3              	XORAI	0x03
00074a   e587     jbset   0x187, 0x2       	JBSET	PFLAG,2
00074b   a76d     goto    0x76d            	GOTO	_00875_DS_
                                           ;	.line	1468; "123.c"	LV_TenTemp = GV_SetRealTimeClockHrTenDig;
00074c   584c     movar   0x4c             	MOVAR	_GV_SetRealTimeClockHrTenDig
00074d   5610     movra   0x10             	MOVRA	r0x1053
                                           ;	.line	1469; "123.c"	LV_TenTemp <<= 4;
00074e   4410     swapar  0x10             	SWAPAR	r0x1053
00074f   3ef0     andai   0xf0             	ANDAI	0xf0
000750   5610     movra   0x10             	MOVRA	r0x1053
                                           ;	.line	1470; "123.c"	if(BF_SetRealTimeClockAM_PM)//0=AM1=PM
000751   e427     jbset   0x27, 0x2        	JBSET	_UserFlag,2
000752   a756     goto    0x756            	GOTO	_00870_DS_
                                           ;	.line	1472; "123.c"	LV_TenTemp |= 0xA0;//(RTCBit7=024Bit7=11212Bit50=AM1=PM
000753   3ca0     movai   0xa0             	MOVAI	0xa0
000754   5e10     orra    0x10             	ORRA	r0x1053
000755   a757     goto    0x757            	GOTO	_00871_DS_
                                           _00870_DS_
                                           ;	.line	1476; "123.c"	LV_TenTemp |= 0x80;//(RTCBit7=024Bit7=11212Bit50=AM1=PM)
000756   ce10     bset    0x10, 0x7        	BSET	r0x1053,7
                                           _00871_DS_
                                           ;	.line	1479; "123.c"	GV_GetByteFromDs1302 = (GV_SetRealTimeClockHrSingleDig | LV_TenTemp);
000757   5810     movar   0x10             	MOVAR	r0x1053
000758   5c4b     orar    0x4b             	ORAR	_GV_SetRealTimeClockHrSingleDig
000759   5639     movra   0x39             	MOVRA	_GV_GetByteFromDs1302
                                           ;	.line	1480; "123.c"	Sub_Write1302(C_DS1302_WriteProtect,C_DS1302_DisableWriteProtect); //Disable write protect
00075a   3c00     movai   0                	MOVAI	0x00
00075b   5606     movra   0x6              	MOVRA	STK00
00075c   3c8e     movai   0x8e             	MOVAI	0x8e
00075d   8c22     call    0xc22            	CALL	_Sub_Write1302
                                           ;	.line	1481; "123.c"	Nop();
00075e   0000     nop                      	nop
                                           ;	.line	1482; "123.c"	Nop();
00075f   0000     nop                      	nop
                                           ;	.line	1483; "123.c"	Sub_Write1302(C_DS1302_Hour,GV_GetByteFromDs1302); 	   	
000760   5839     movar   0x39             	MOVAR	_GV_GetByteFromDs1302
000761   5606     movra   0x6              	MOVRA	STK00
000762   3c84     movai   0x84             	MOVAI	0x84
000763   8c22     call    0xc22            	CALL	_Sub_Write1302
                                           ;	.line	1484; "123.c"	Nop();
000764   0000     nop                      	nop
                                           ;	.line	1485; "123.c"	Nop();
000765   0000     nop                      	nop
                                           ;	.line	1486; "123.c"	Sub_Write1302(C_DS1302_WriteProtect,C_DS1302_EnableWriteProtect); //Enable write protect
000766   3c80     movai   0x80             	MOVAI	0x80
000767   5606     movra   0x6              	MOVRA	STK00
000768   3c8e     movai   0x8e             	MOVAI	0x8e
000769   8c22     call    0xc22            	CALL	_Sub_Write1302
                                           ;	.line	1487; "123.c"	Nop();
00076a   0000     nop                      	nop
                                           ;	.line	1488; "123.c"	Nop();     	   	
00076b   0000     nop                      	nop
00076c   a78b     goto    0x78b            	GOTO	_00885_DS_
                                           _00875_DS_
                                           ;	.line	1490; "123.c"	else if(GV_RealTimeClockSetStep==4)
00076d   5835     movar   0x35             	MOVAR	_GV_RealTimeClockSetStep
00076e   3904     xorai   0x4              	XORAI	0x04
00076f   e587     jbset   0x187, 0x2       	JBSET	PFLAG,2
000770   a78b     goto    0x78b            	GOTO	_00885_DS_
                                           ;	.line	1492; "123.c"	LV_TenTemp = GV_SetRealTimeClockMinTenDig;
000771   584e     movar   0x4e             	MOVAR	_GV_SetRealTimeClockMinTenDig
000772   5610     movra   0x10             	MOVRA	r0x1053
                                           ;	.line	1493; "123.c"	LV_TenTemp <<= 4;
000773   4410     swapar  0x10             	SWAPAR	r0x1053
000774   3ef0     andai   0xf0             	ANDAI	0xf0
000775   5610     movra   0x10             	MOVRA	r0x1053
                                           ;	.line	1494; "123.c"	GV_GetByteFromDs1302 = (GV_SetRealTimeClockMinSingleDig | LV_TenTemp);
000776   5810     movar   0x10             	MOVAR	r0x1053
000777   5c4d     orar    0x4d             	ORAR	_GV_SetRealTimeClockMinSingleDig
000778   5639     movra   0x39             	MOVRA	_GV_GetByteFromDs1302
                                           ;	.line	1495; "123.c"	Sub_Write1302(C_DS1302_WriteProtect,C_DS1302_DisableWriteProtect); //Disable write protect
000779   3c00     movai   0                	MOVAI	0x00
00077a   5606     movra   0x6              	MOVRA	STK00
00077b   3c8e     movai   0x8e             	MOVAI	0x8e
00077c   8c22     call    0xc22            	CALL	_Sub_Write1302
                                           ;	.line	1496; "123.c"	Nop();
00077d   0000     nop                      	nop
                                           ;	.line	1497; "123.c"	Nop();
00077e   0000     nop                      	nop
                                           ;	.line	1498; "123.c"	Sub_Write1302(C_DS1302_Minute,GV_GetByteFromDs1302);   	   	
00077f   5839     movar   0x39             	MOVAR	_GV_GetByteFromDs1302
000780   5606     movra   0x6              	MOVRA	STK00
000781   3c82     movai   0x82             	MOVAI	0x82
000782   8c22     call    0xc22            	CALL	_Sub_Write1302
                                           ;	.line	1499; "123.c"	Nop();
000783   0000     nop                      	nop
                                           ;	.line	1500; "123.c"	Nop();
000784   0000     nop                      	nop
                                           ;	.line	1501; "123.c"	Sub_Write1302(C_DS1302_WriteProtect,C_DS1302_EnableWriteProtect); //Enable write protect
000785   3c80     movai   0x80             	MOVAI	0x80
000786   5606     movra   0x6              	MOVRA	STK00
000787   3c8e     movai   0x8e             	MOVAI	0x8e
000788   8c22     call    0xc22            	CALL	_Sub_Write1302
                                           ;	.line	1502; "123.c"	Nop();
000789   0000     nop                      	nop
                                           ;	.line	1503; "123.c"	Nop();     	   	
00078a   0000     nop                      	nop
                                           _00885_DS_
                                           ;	.line	1511; "123.c"	if(++GV_RealTimeClockSetStep >= 5)
00078b   6635     incr    0x35             	INCR	_GV_RealTimeClockSetStep
                                           ;;unsigned compare: left < lit(0x5=5), size=1
00078c   3c05     movai   0x5              	MOVAI	0x05
00078d   4835     rsubar  0x35             	RSUBAR	_GV_RealTimeClockSetStep
00078e   e187     jbset   0x187, 0         	JBSET	PFLAG,0
00078f   a792     goto    0x792            	GOTO	_00888_DS_
                                           ;;genSkipc:3195: created from rifx:00DE608C
                                           ;	.line	1513; "123.c"	GV_RealTimeClockSetStep = 0;
000790   7635     clrr    0x35             	CLRR	_GV_RealTimeClockSetStep
                                           ;	.line	1514; "123.c"	GV_Mode = 0;//0=Normal mode;mode;  	   	 
000791   7634     clrr    0x34             	CLRR	_GV_Mode
                                           _00888_DS_
000792   000c     return                   	RETURN	
                                           ; exit point of _Sub_SetKeyRealTimeClockEnter
                                           
                                           ;***
                                           ;  pBlock Stats: dbName = C
                                           ;***
                                           ;entry:  _Sub_SetLongKeyGetRealTimeClockSetMode	;Function start
                                           ; 2 exit points
                                           ;has an exit
                                           ;functions called:
                                           ;   _Sub_Read1302
                                           ;   _Sub_Read1302
                                           ;   _Sub_Read1302
                                           ;   _Sub_Read1302
                                           ;   _Sub_Read1302
                                           ;   _Sub_Read1302
                                           ;   _Sub_Read1302
                                           ;   _Sub_Read1302
                                           ;   _Sub_Read1302
                                           ;   _Sub_Read1302
                                           ;; Starting pCode block
                                           _Sub_SetLongKeyGetRealTimeClockSetMode	;Function start
                                           ; 2 exit points
                                           ;	.line	1300; "123.c"	LV_TempA = 0;
000793   766b     clrr    0x6b             	CLRR	_LV_TempA
                                           ;	.line	1301; "123.c"	LV_TempB = 0;
000794   766c     clrr    0x6c             	CLRR	_LV_TempB
                                           ;	.line	1304; "123.c"	if(++GV_LongKeyTimer < 1500) return;//1500*2ms=3s
000795   6621     incr    0x21             	INCR	_GV_LongKeyTimer
000796   f587     jbclr   0x187, 0x2       	JBCLR	PFLAG,2
000797   6622     incr    0x22             	INCR	(_GV_LongKeyTimer + 1)
                                           ;;unsigned compare: left < lit(0x5DC=1500), size=2
000798   3c05     movai   0x5              	MOVAI	0x05
000799   4822     rsubar  0x22             	RSUBAR	(_GV_LongKeyTimer + 1)
00079a   e587     jbset   0x187, 0x2       	JBSET	PFLAG,2
00079b   a79e     goto    0x79e            	GOTO	_00833_DS_
00079c   3cdc     movai   0xdc             	MOVAI	0xdc
00079d   4821     rsubar  0x21             	RSUBAR	_GV_LongKeyTimer
                                           _00833_DS_
00079e   f187     jbclr   0x187, 0         	JBCLR	PFLAG,0
00079f   a7a1     goto    0x7a1            	GOTO	_00823_DS_
                                           ;;genSkipc:3195: created from rifx:00DE608C
0007a0   a7dc     goto    0x7dc            	GOTO	_00827_DS_
                                           _00823_DS_
                                           ;	.line	1305; "123.c"	GV_PreKey = GV_CurKey;
0007a1   5833     movar   0x33             	MOVAR	_GV_CurKey
0007a2   5632     movra   0x32             	MOVRA	_GV_PreKey
                                           ;	.line	1308; "123.c"	GV_RealTimeClockSetStep = 0;
0007a3   7635     clrr    0x35             	CLRR	_GV_RealTimeClockSetStep
                                           ;	.line	1310; "123.c"	Sub_Read1302(C_DS1302_Year);//C_DS1302_Year
0007a4   3c8c     movai   0x8c             	MOVAI	0x8c
0007a5   8c50     call    0xc50            	CALL	_Sub_Read1302
                                           ;	.line	1311; "123.c"	GV_SetYearSingleDig = GV_GetByteFromDs1302 & 0x0F;
0007a6   3c0f     movai   0xf              	MOVAI	0x0f
0007a7   7839     andar   0x39             	ANDAR	_GV_GetByteFromDs1302
0007a8   563b     movra   0x3b             	MOVRA	_GV_SetYearSingleDig
                                           ;	.line	1312; "123.c"	GV_SetYearTenDig = GV_GetByteFromDs1302 >> 4;
0007a9   4439     swapar  0x39             	SWAPAR	_GV_GetByteFromDs1302
0007aa   3e0f     andai   0xf              	ANDAI	0x0f
0007ab   563c     movra   0x3c             	MOVRA	_GV_SetYearTenDig
                                           ;	.line	1315; "123.c"	Sub_Read1302(C_DS1302_Month);//C_DS1302_Month
0007ac   3c88     movai   0x88             	MOVAI	0x88
0007ad   8c50     call    0xc50            	CALL	_Sub_Read1302
                                           ;	.line	1316; "123.c"	GV_SetMonthSingleDig = GV_GetByteFromDs1302  &0x0F;
0007ae   3c0f     movai   0xf              	MOVAI	0x0f
0007af   7839     andar   0x39             	ANDAR	_GV_GetByteFromDs1302
0007b0   5643     movra   0x43             	MOVRA	_GV_SetMonthSingleDig
                                           ;	.line	1317; "123.c"	GV_SetMonthTenDig = GV_GetByteFromDs1302 >> 4;
0007b1   4439     swapar  0x39             	SWAPAR	_GV_GetByteFromDs1302
0007b2   3e0f     andai   0xf              	ANDAI	0x0f
0007b3   5644     movra   0x44             	MOVRA	_GV_SetMonthTenDig
                                           ;	.line	1319; "123.c"	Sub_Read1302(C_DS1302_Day);//C_DS1302_Day
0007b4   3c86     movai   0x86             	MOVAI	0x86
0007b5   8c50     call    0xc50            	CALL	_Sub_Read1302
                                           ;	.line	1320; "123.c"	GV_SetDaySingleDig = GV_GetByteFromDs1302 & 0x0F;
0007b6   3c0f     movai   0xf              	MOVAI	0x0f
0007b7   7839     andar   0x39             	ANDAR	_GV_GetByteFromDs1302
0007b8   5647     movra   0x47             	MOVRA	_GV_SetDaySingleDig
                                           ;	.line	1321; "123.c"	GV_SetDayTenDig = GV_GetByteFromDs1302 >> 4;
0007b9   4439     swapar  0x39             	SWAPAR	_GV_GetByteFromDs1302
0007ba   3e0f     andai   0xf              	ANDAI	0x0f
0007bb   5648     movra   0x48             	MOVRA	_GV_SetDayTenDig
                                           ;	.line	1323; "123.c"	Sub_Read1302(C_DS1302_Hour);//C_DS1302_Hour
0007bc   3c84     movai   0x84             	MOVAI	0x84
0007bd   8c50     call    0xc50            	CALL	_Sub_Read1302
                                           ;	.line	1324; "123.c"	GV_SetRealTimeClockHrSingleDig = GV_GetByteFromDs1302 & 0x0F;
0007be   3c0f     movai   0xf              	MOVAI	0x0f
0007bf   7839     andar   0x39             	ANDAR	_GV_GetByteFromDs1302
0007c0   564b     movra   0x4b             	MOVRA	_GV_SetRealTimeClockHrSingleDig
                                           ;	.line	1326; "123.c"	LV_TempA = GV_GetByteFromDs1302 >> 4;
0007c1   4439     swapar  0x39             	SWAPAR	_GV_GetByteFromDs1302
0007c2   3e0f     andai   0xf              	ANDAI	0x0f
0007c3   566b     movra   0x6b             	MOVRA	_LV_TempA
                                           ;	.line	1327; "123.c"	LV_TempB = LV_TempA;
0007c4   586b     movar   0x6b             	MOVAR	_LV_TempA
0007c5   566c     movra   0x6c             	MOVRA	_LV_TempB
                                           ;	.line	1328; "123.c"	GV_SetRealTimeClockHrTenDig = LV_TempB & 0x01;
0007c6   3c01     movai   0x1              	MOVAI	0x01
0007c7   786c     andar   0x6c             	ANDAR	_LV_TempB
0007c8   564c     movra   0x4c             	MOVRA	_GV_SetRealTimeClockHrTenDig
                                           ;	.line	1329; "123.c"	LV_TempA = LV_TempA & 0x02;//Get AM/PM
0007c9   3c02     movai   0x2              	MOVAI	0x02
0007ca   7a6b     andra   0x6b             	ANDRA	_LV_TempA
                                           ;	.line	1330; "123.c"	if(LV_TempA)
0007cb   3c00     movai   0                	MOVAI	0x00
0007cc   5c6b     orar    0x6b             	ORAR	_LV_TempA
0007cd   f587     jbclr   0x187, 0x2       	JBCLR	PFLAG,2
0007ce   a7d1     goto    0x7d1            	GOTO	_00825_DS_
                                           ;	.line	1332; "123.c"	BF_SetRealTimeClockAM_PM = 1;
0007cf   c427     bset    0x27, 0x2        	BSET	_UserFlag,2
0007d0   a7d2     goto    0x7d2            	GOTO	_00826_DS_
                                           _00825_DS_
                                           ;	.line	1336; "123.c"	BF_SetRealTimeClockAM_PM = 0;
0007d1   d427     bclr    0x27, 0x2        	BCLR	_UserFlag,2
                                           _00826_DS_
                                           ;	.line	1338; "123.c"	Sub_Read1302(C_DS1302_Minute);//C_DS1302_Minute
0007d2   3c82     movai   0x82             	MOVAI	0x82
0007d3   8c50     call    0xc50            	CALL	_Sub_Read1302
                                           ;	.line	1339; "123.c"	GV_SetRealTimeClockMinSingleDig = GV_GetByteFromDs1302 & 0x0F;
0007d4   3c0f     movai   0xf              	MOVAI	0x0f
0007d5   7839     andar   0x39             	ANDAR	_GV_GetByteFromDs1302
0007d6   564d     movra   0x4d             	MOVRA	_GV_SetRealTimeClockMinSingleDig
                                           ;	.line	1340; "123.c"	GV_SetRealTimeClockMinTenDig = GV_GetByteFromDs1302 >> 4;
0007d7   4439     swapar  0x39             	SWAPAR	_GV_GetByteFromDs1302
0007d8   3e0f     andai   0xf              	ANDAI	0x0f
0007d9   564e     movra   0x4e             	MOVRA	_GV_SetRealTimeClockMinTenDig
                                           ;	.line	1342; "123.c"	GV_Mode = 1;//1=Clock set mode
0007da   3c01     movai   0x1              	MOVAI	0x01
0007db   5634     movra   0x34             	MOVRA	_GV_Mode
                                           _00827_DS_
0007dc   000c     return                   	RETURN	
                                           ; exit point of _Sub_SetLongKeyGetRealTimeClockSetMode
                                           
                                           ;***
                                           ;  pBlock Stats: dbName = C
                                           ;***
                                           ;entry:  _Sub_DownShortLongKeyClockSet	;Function start
                                           ; 2 exit points
                                           ;has an exit
                                           ;functions called:
                                           ;   _Sub_RealTimeClockDec
                                           ;   _Sub_RealTimeClockDec
                                           ;   _Sub_RealTimeClockDec
                                           ;   _Sub_RealTimeClockDec
                                           ;; Starting pCode block
                                           _Sub_DownShortLongKeyClockSet	;Function start
                                           ; 2 exit points
                                           ;	.line	1263; "123.c"	BF_DownKeyPressesd = 1;
0007dd   cc27     bset    0x27, 0x6        	BSET	_UserFlag,6
                                           ;	.line	1264; "123.c"	if(BF_DownLongKeyPressesd)//
0007de   ee27     jbset   0x27, 0x7        	JBSET	_UserFlag,7
0007df   a7f0     goto    0x7f0            	GOTO	_00806_DS_
                                           ;	.line	1266; "123.c"	if(++GV_LongKeyTimer < 125) return;//125*2ms=250ms
0007e0   6621     incr    0x21             	INCR	_GV_LongKeyTimer
0007e1   f587     jbclr   0x187, 0x2       	JBCLR	PFLAG,2
0007e2   6622     incr    0x22             	INCR	(_GV_LongKeyTimer + 1)
                                           ;;unsigned compare: left < lit(0x7D=125), size=2
0007e3   3c00     movai   0                	MOVAI	0x00
0007e4   4822     rsubar  0x22             	RSUBAR	(_GV_LongKeyTimer + 1)
0007e5   e587     jbset   0x187, 0x2       	JBSET	PFLAG,2
0007e6   a7e9     goto    0x7e9            	GOTO	_00816_DS_
0007e7   3c7d     movai   0x7d             	MOVAI	0x7d
0007e8   4821     rsubar  0x21             	RSUBAR	_GV_LongKeyTimer
                                           _00816_DS_
0007e9   f187     jbclr   0x187, 0         	JBCLR	PFLAG,0
0007ea   a7ec     goto    0x7ec            	GOTO	_00802_DS_
                                           ;;genSkipc:3195: created from rifx:00DE608C
0007eb   a800     goto    0x800            	GOTO	_00808_DS_
                                           _00802_DS_
                                           ;	.line	1269; "123.c"	GV_LongKeyTimer = 0;
0007ec   7621     clrr    0x21             	CLRR	_GV_LongKeyTimer
0007ed   7622     clrr    0x22             	CLRR	(_GV_LongKeyTimer + 1)
                                           ;	.line	1270; "123.c"	Sub_RealTimeClockDec();
0007ee   8801     call    0x801            	CALL	_Sub_RealTimeClockDec
0007ef   a800     goto    0x800            	GOTO	_00808_DS_
                                           _00806_DS_
                                           ;	.line	1275; "123.c"	if(++GV_LongKeyTimer < 500) return;//500*2ms=1s
0007f0   6621     incr    0x21             	INCR	_GV_LongKeyTimer
0007f1   f587     jbclr   0x187, 0x2       	JBCLR	PFLAG,2
0007f2   6622     incr    0x22             	INCR	(_GV_LongKeyTimer + 1)
                                           ;;unsigned compare: left < lit(0x1F4=500), size=2
0007f3   3c01     movai   0x1              	MOVAI	0x01
0007f4   4822     rsubar  0x22             	RSUBAR	(_GV_LongKeyTimer + 1)
0007f5   e587     jbset   0x187, 0x2       	JBSET	PFLAG,2
0007f6   a7f9     goto    0x7f9            	GOTO	_00817_DS_
0007f7   3cf4     movai   0xf4             	MOVAI	0xf4
0007f8   4821     rsubar  0x21             	RSUBAR	_GV_LongKeyTimer
                                           _00817_DS_
0007f9   f187     jbclr   0x187, 0         	JBCLR	PFLAG,0
0007fa   a7fc     goto    0x7fc            	GOTO	_00804_DS_
                                           ;;genSkipc:3195: created from rifx:00DE608C
0007fb   a800     goto    0x800            	GOTO	_00808_DS_
                                           _00804_DS_
                                           ;	.line	1278; "123.c"	GV_LongKeyTimer = 0;
0007fc   7621     clrr    0x21             	CLRR	_GV_LongKeyTimer
0007fd   7622     clrr    0x22             	CLRR	(_GV_LongKeyTimer + 1)
                                           ;	.line	1279; "123.c"	BF_DownLongKeyPressesd = 1;
0007fe   ce27     bset    0x27, 0x7        	BSET	_UserFlag,7
                                           ;	.line	1280; "123.c"	Sub_RealTimeClockDec();
0007ff   8801     call    0x801            	CALL	_Sub_RealTimeClockDec
                                           _00808_DS_
000800   000c     return                   	RETURN	
                                           ; exit point of _Sub_DownShortLongKeyClockSet
                                           
                                           ;***
                                           ;  pBlock Stats: dbName = C
                                           ;***
                                           ;entry:  _Sub_RealTimeClockDec	;Function start
                                           ; 2 exit points
                                           ;has an exit
                                           ;functions called:
                                           ;   _Sub_Read1302
                                           ;   __mulchar
                                           ;   _Sub_Read1302
                                           ;   __mulchar
                                           ;   _Sub_Read1302
                                           ;   __mulchar
                                           ;   _Sub_Read1302
                                           ;   __mulchar
                                           ;3 compiler assigned registers:
                                           ;   r0x1050
                                           ;   STK00
                                           ;   r0x1051
                                           ;; Starting pCode block
                                           _Sub_RealTimeClockDec	;Function start
                                           ; 2 exit points
                                           ;	.line	1044; "123.c"	if(GV_RealTimeClockSetStep==0)
000801   3c00     movai   0                	MOVAI	0x00
000802   5c35     orar    0x35             	ORAR	_GV_RealTimeClockSetStep
000803   e587     jbset   0x187, 0x2       	JBSET	PFLAG,2
000804   a818     goto    0x818            	GOTO	_00691_DS_
                                           ;	.line	1046; "123.c"	if(GV_SetYearSingleDig)
000805   3c00     movai   0                	MOVAI	0x00
000806   5c3b     orar    0x3b             	ORAR	_GV_SetYearSingleDig
000807   f587     jbclr   0x187, 0x2       	JBCLR	PFLAG,2
000808   a80b     goto    0x80b            	GOTO	_00596_DS_
                                           ;	.line	1048; "123.c"	GV_SetYearSingleDig--;
000809   6e3b     decr    0x3b             	DECR	_GV_SetYearSingleDig
00080a   a942     goto    0x942            	GOTO	_00693_DS_
                                           _00596_DS_
                                           ;	.line	1052; "123.c"	if(GV_SetYearTenDig)
00080b   3c00     movai   0                	MOVAI	0x00
00080c   5c3c     orar    0x3c             	ORAR	_GV_SetYearTenDig
00080d   f587     jbclr   0x187, 0x2       	JBCLR	PFLAG,2
00080e   a813     goto    0x813            	GOTO	_00593_DS_
                                           ;	.line	1054; "123.c"	GV_SetYearSingleDig = 9;
00080f   3c09     movai   0x9              	MOVAI	0x09
000810   563b     movra   0x3b             	MOVRA	_GV_SetYearSingleDig
                                           ;	.line	1055; "123.c"	GV_SetYearTenDig--;
000811   6e3c     decr    0x3c             	DECR	_GV_SetYearTenDig
000812   a942     goto    0x942            	GOTO	_00693_DS_
                                           _00593_DS_
                                           ;	.line	1059; "123.c"	GV_SetYearSingleDig = 9;
000813   3c09     movai   0x9              	MOVAI	0x09
000814   563b     movra   0x3b             	MOVRA	_GV_SetYearSingleDig
                                           ;	.line	1060; "123.c"	GV_SetYearTenDig = 9;
000815   3c09     movai   0x9              	MOVAI	0x09
000816   563c     movra   0x3c             	MOVRA	_GV_SetYearTenDig
000817   a942     goto    0x942            	GOTO	_00693_DS_
                                           _00691_DS_
                                           ;	.line	1064; "123.c"	else if(GV_RealTimeClockSetStep==1)
000818   5835     movar   0x35             	MOVAR	_GV_RealTimeClockSetStep
000819   3901     xorai   0x1              	XORAI	0x01
00081a   e587     jbset   0x187, 0x2       	JBSET	PFLAG,2
00081b   a836     goto    0x836            	GOTO	_00688_DS_
                                           ;	.line	1066; "123.c"	if(GV_SetMonthSingleDig)
00081c   3c00     movai   0                	MOVAI	0x00
00081d   5c43     orar    0x43             	ORAR	_GV_SetMonthSingleDig
00081e   f587     jbclr   0x187, 0x2       	JBCLR	PFLAG,2
00081f   a822     goto    0x822            	GOTO	_00601_DS_
                                           ;	.line	1068; "123.c"	GV_SetMonthSingleDig--;
000820   6e43     decr    0x43             	DECR	_GV_SetMonthSingleDig
000821   a829     goto    0x829            	GOTO	_00602_DS_
                                           _00601_DS_
                                           ;	.line	1072; "123.c"	if(GV_SetMonthTenDig)
000822   3c00     movai   0                	MOVAI	0x00
000823   5c44     orar    0x44             	ORAR	_GV_SetMonthTenDig
000824   f587     jbclr   0x187, 0x2       	JBCLR	PFLAG,2
000825   a829     goto    0x829            	GOTO	_00602_DS_
                                           ;	.line	1074; "123.c"	GV_SetMonthSingleDig = 9;
000826   3c09     movai   0x9              	MOVAI	0x09
000827   5643     movra   0x43             	MOVRA	_GV_SetMonthSingleDig
                                           ;	.line	1075; "123.c"	GV_SetMonthTenDig--;
000828   6e44     decr    0x44             	DECR	_GV_SetMonthTenDig
                                           _00602_DS_
                                           ;	.line	1079; "123.c"	if((GV_SetMonthSingleDig==0)&&(GV_SetMonthTenDig==0))
000829   3c00     movai   0                	MOVAI	0x00
00082a   5c43     orar    0x43             	ORAR	_GV_SetMonthSingleDig
00082b   e587     jbset   0x187, 0x2       	JBSET	PFLAG,2
00082c   a942     goto    0x942            	GOTO	_00693_DS_
00082d   3c00     movai   0                	MOVAI	0x00
00082e   5c44     orar    0x44             	ORAR	_GV_SetMonthTenDig
00082f   e587     jbset   0x187, 0x2       	JBSET	PFLAG,2
000830   a942     goto    0x942            	GOTO	_00693_DS_
                                           ;	.line	1081; "123.c"	GV_SetMonthSingleDig = 0x02;
000831   3c02     movai   0x2              	MOVAI	0x02
000832   5643     movra   0x43             	MOVRA	_GV_SetMonthSingleDig
                                           ;	.line	1082; "123.c"	GV_SetMonthTenDig = 0x01;
000833   3c01     movai   0x1              	MOVAI	0x01
000834   5644     movra   0x44             	MOVRA	_GV_SetMonthTenDig
000835   a942     goto    0x942            	GOTO	_00693_DS_
                                           _00688_DS_
                                           ;	.line	1085; "123.c"	else if(GV_RealTimeClockSetStep==2)
000836   5835     movar   0x35             	MOVAR	_GV_RealTimeClockSetStep
000837   3902     xorai   0x2              	XORAI	0x02
000838   e587     jbset   0x187, 0x2       	JBSET	PFLAG,2
000839   a904     goto    0x904            	GOTO	_00685_DS_
                                           ;	.line	1087; "123.c"	Sub_Read1302(C_DS1302_Year);//C_DS1302_Year
00083a   3c8c     movai   0x8c             	MOVAI	0x8c
00083b   8c50     call    0xc50            	CALL	_Sub_Read1302
                                           ;	.line	1088; "123.c"	LV_TempA = GV_GetByteFromDs1302;
00083c   5839     movar   0x39             	MOVAR	_GV_GetByteFromDs1302
00083d   566b     movra   0x6b             	MOVRA	_LV_TempA
                                           ;	.line	1089; "123.c"	LV_TempB = (LV_TempA>>4)*10;//BCD_TO_HEX
00083e   446b     swapar  0x6b             	SWAPAR	_LV_TempA
00083f   3e0f     andai   0xf              	ANDAI	0x0f
000840   560b     movra   0xb              	MOVRA	r0x1050
000841   3c0a     movai   0xa              	MOVAI	0x0a
000842   5606     movra   0x6              	MOVRA	STK00
000843   580b     movar   0xb              	MOVAR	r0x1050
000844   8c7e     call    0xc7e            	CALL	__mulchar
000845   566c     movra   0x6c             	MOVRA	_LV_TempB
                                           ;	.line	1090; "123.c"	LV_TempYear = LV_TempA & 0x0f;
000846   3c0f     movai   0xf              	MOVAI	0x0f
000847   786b     andar   0x6b             	ANDAR	_LV_TempA
000848   560b     movra   0xb              	MOVRA	r0x1050
                                           ;	.line	1091; "123.c"	LV_TempYear = LV_TempYear + LV_TempB;
000849   586c     movar   0x6c             	MOVAR	_LV_TempB
00084a   7e0b     addra   0xb              	ADDRA	r0x1050
                                           ;	.line	1093; "123.c"	Sub_Read1302(C_DS1302_Month);//C_DS1302_Month
00084b   3c88     movai   0x88             	MOVAI	0x88
00084c   8c50     call    0xc50            	CALL	_Sub_Read1302
                                           ;	.line	1094; "123.c"	LV_TempA = GV_GetByteFromDs1302;
00084d   5839     movar   0x39             	MOVAR	_GV_GetByteFromDs1302
00084e   566b     movra   0x6b             	MOVRA	_LV_TempA
                                           ;	.line	1095; "123.c"	LV_TempB = (LV_TempA>>4)*10;//BCD_TO_HEX
00084f   446b     swapar  0x6b             	SWAPAR	_LV_TempA
000850   3e0f     andai   0xf              	ANDAI	0x0f
000851   560c     movra   0xc              	MOVRA	r0x1051
000852   3c0a     movai   0xa              	MOVAI	0x0a
000853   5606     movra   0x6              	MOVRA	STK00
000854   580c     movar   0xc              	MOVAR	r0x1051
000855   8c7e     call    0xc7e            	CALL	__mulchar
000856   566c     movra   0x6c             	MOVRA	_LV_TempB
                                           ;	.line	1096; "123.c"	LV_TempMonth = LV_TempA & 0x0f;
000857   3c0f     movai   0xf              	MOVAI	0x0f
000858   786b     andar   0x6b             	ANDAR	_LV_TempA
000859   560c     movra   0xc              	MOVRA	r0x1051
                                           ;	.line	1097; "123.c"	LV_TempMonth = LV_TempMonth + LV_TempB;	 
00085a   586c     movar   0x6c             	MOVAR	_LV_TempB
00085b   7e0c     addra   0xc              	ADDRA	r0x1051
                                           ;	.line	1099; "123.c"	if(LV_TempMonth==0)
00085c   3c00     movai   0                	MOVAI	0x00
00085d   5c0c     orar    0xc              	ORAR	r0x1051
00085e   f587     jbclr   0x187, 0x2       	JBCLR	PFLAG,2
00085f   a942     goto    0x942            	GOTO	_00693_DS_
                                           ;	.line	1103; "123.c"	else if((LV_TempMonth==1)||(LV_TempMonth==3)||(LV_TempMonth==5)||(LV_TempMonth==7)||(LV_TempMonth==8)||(LV_TempMonth==10)||(LV_TempMonth==12))
000860   580c     movar   0xc              	MOVAR	r0x1051
000861   3901     xorai   0x1              	XORAI	0x01
000862   e587     jbset   0x187, 0x2       	JBSET	PFLAG,2
000863   a865     goto    0x865            	GOTO	_00787_DS_
000864   a882     goto    0x882            	GOTO	_00649_DS_
                                           _00787_DS_
000865   580c     movar   0xc              	MOVAR	r0x1051
000866   3903     xorai   0x3              	XORAI	0x03
000867   e587     jbset   0x187, 0x2       	JBSET	PFLAG,2
000868   a86a     goto    0x86a            	GOTO	_00788_DS_
000869   a882     goto    0x882            	GOTO	_00649_DS_
                                           _00788_DS_
00086a   580c     movar   0xc              	MOVAR	r0x1051
00086b   3905     xorai   0x5              	XORAI	0x05
00086c   e587     jbset   0x187, 0x2       	JBSET	PFLAG,2
00086d   a86f     goto    0x86f            	GOTO	_00789_DS_
00086e   a882     goto    0x882            	GOTO	_00649_DS_
                                           _00789_DS_
00086f   580c     movar   0xc              	MOVAR	r0x1051
000870   3907     xorai   0x7              	XORAI	0x07
000871   e587     jbset   0x187, 0x2       	JBSET	PFLAG,2
000872   a874     goto    0x874            	GOTO	_00790_DS_
000873   a882     goto    0x882            	GOTO	_00649_DS_
                                           _00790_DS_
000874   580c     movar   0xc              	MOVAR	r0x1051
000875   3908     xorai   0x8              	XORAI	0x08
000876   e587     jbset   0x187, 0x2       	JBSET	PFLAG,2
000877   a879     goto    0x879            	GOTO	_00791_DS_
000878   a882     goto    0x882            	GOTO	_00649_DS_
                                           _00791_DS_
000879   580c     movar   0xc              	MOVAR	r0x1051
00087a   390a     xorai   0xa              	XORAI	0x0a
00087b   e587     jbset   0x187, 0x2       	JBSET	PFLAG,2
00087c   a87e     goto    0x87e            	GOTO	_00792_DS_
00087d   a882     goto    0x882            	GOTO	_00649_DS_
                                           _00792_DS_
00087e   580c     movar   0xc              	MOVAR	r0x1051
00087f   390c     xorai   0xc              	XORAI	0x0c
000880   e587     jbset   0x187, 0x2       	JBSET	PFLAG,2
000881   a89c     goto    0x89c            	GOTO	_00650_DS_
                                           _00649_DS_
                                           ;	.line	1105; "123.c"	if(GV_SetDaySingleDig)
000882   3c00     movai   0                	MOVAI	0x00
000883   5c47     orar    0x47             	ORAR	_GV_SetDaySingleDig
000884   f587     jbclr   0x187, 0x2       	JBCLR	PFLAG,2
000885   a888     goto    0x888            	GOTO	_00609_DS_
                                           ;	.line	1107; "123.c"	GV_SetDaySingleDig--;
000886   6e47     decr    0x47             	DECR	_GV_SetDaySingleDig
000887   a88f     goto    0x88f            	GOTO	_00610_DS_
                                           _00609_DS_
                                           ;	.line	1111; "123.c"	if(GV_SetDayTenDig)
000888   3c00     movai   0                	MOVAI	0x00
000889   5c48     orar    0x48             	ORAR	_GV_SetDayTenDig
00088a   f587     jbclr   0x187, 0x2       	JBCLR	PFLAG,2
00088b   a88f     goto    0x88f            	GOTO	_00610_DS_
                                           ;	.line	1113; "123.c"	GV_SetDaySingleDig = 9;
00088c   3c09     movai   0x9              	MOVAI	0x09
00088d   5647     movra   0x47             	MOVRA	_GV_SetDaySingleDig
                                           ;	.line	1114; "123.c"	GV_SetDayTenDig--;
00088e   6e48     decr    0x48             	DECR	_GV_SetDayTenDig
                                           _00610_DS_
                                           ;	.line	1117; "123.c"	if((GV_SetDaySingleDig==0)&&(GV_SetDayTenDig==0))
00088f   3c00     movai   0                	MOVAI	0x00
000890   5c47     orar    0x47             	ORAR	_GV_SetDaySingleDig
000891   e587     jbset   0x187, 0x2       	JBSET	PFLAG,2
000892   a942     goto    0x942            	GOTO	_00693_DS_
000893   3c00     movai   0                	MOVAI	0x00
000894   5c48     orar    0x48             	ORAR	_GV_SetDayTenDig
000895   e587     jbset   0x187, 0x2       	JBSET	PFLAG,2
000896   a942     goto    0x942            	GOTO	_00693_DS_
                                           ;	.line	1119; "123.c"	GV_SetDaySingleDig = 0x01;
000897   3c01     movai   0x1              	MOVAI	0x01
000898   5647     movra   0x47             	MOVRA	_GV_SetDaySingleDig
                                           ;	.line	1120; "123.c"	GV_SetDayTenDig = 0x03;
000899   3c03     movai   0x3              	MOVAI	0x03
00089a   5648     movra   0x48             	MOVRA	_GV_SetDayTenDig
00089b   a942     goto    0x942            	GOTO	_00693_DS_
                                           _00650_DS_
                                           ;	.line	1123; "123.c"	else if(LV_TempMonth==2)
00089c   580c     movar   0xc              	MOVAR	r0x1051
00089d   3902     xorai   0x2              	XORAI	0x02
00089e   e587     jbset   0x187, 0x2       	JBSET	PFLAG,2
00089f   a8d8     goto    0x8d8            	GOTO	_00647_DS_
                                           ;	.line	1125; "123.c"	if(LV_TempYear % 4)//4(229),(228)
0008a0   580b     movar   0xb              	MOVAR	r0x1050
0008a1   3e03     andai   0x3              	ANDAI	0x03
0008a2   f587     jbclr   0x187, 0x2       	JBCLR	PFLAG,2
0008a3   a8be     goto    0x8be            	GOTO	_00631_DS_
                                           ;	.line	1127; "123.c"	if(GV_SetDaySingleDig)
0008a4   3c00     movai   0                	MOVAI	0x00
0008a5   5c47     orar    0x47             	ORAR	_GV_SetDaySingleDig
0008a6   f587     jbclr   0x187, 0x2       	JBCLR	PFLAG,2
0008a7   a8aa     goto    0x8aa            	GOTO	_00617_DS_
                                           ;	.line	1129; "123.c"	GV_SetDaySingleDig--;
0008a8   6e47     decr    0x47             	DECR	_GV_SetDaySingleDig
0008a9   a8b1     goto    0x8b1            	GOTO	_00618_DS_
                                           _00617_DS_
                                           ;	.line	1133; "123.c"	if(GV_SetDayTenDig)
0008aa   3c00     movai   0                	MOVAI	0x00
0008ab   5c48     orar    0x48             	ORAR	_GV_SetDayTenDig
0008ac   f587     jbclr   0x187, 0x2       	JBCLR	PFLAG,2
0008ad   a8b1     goto    0x8b1            	GOTO	_00618_DS_
                                           ;	.line	1135; "123.c"	GV_SetDaySingleDig = 9;
0008ae   3c09     movai   0x9              	MOVAI	0x09
0008af   5647     movra   0x47             	MOVRA	_GV_SetDaySingleDig
                                           ;	.line	1136; "123.c"	GV_SetDayTenDig--;
0008b0   6e48     decr    0x48             	DECR	_GV_SetDayTenDig
                                           _00618_DS_
                                           ;	.line	1139; "123.c"	if((GV_SetDaySingleDig==0)&&(GV_SetDayTenDig==0))
0008b1   3c00     movai   0                	MOVAI	0x00
0008b2   5c47     orar    0x47             	ORAR	_GV_SetDaySingleDig
0008b3   e587     jbset   0x187, 0x2       	JBSET	PFLAG,2
0008b4   a942     goto    0x942            	GOTO	_00693_DS_
0008b5   3c00     movai   0                	MOVAI	0x00
0008b6   5c48     orar    0x48             	ORAR	_GV_SetDayTenDig
0008b7   e587     jbset   0x187, 0x2       	JBSET	PFLAG,2
0008b8   a942     goto    0x942            	GOTO	_00693_DS_
                                           ;	.line	1141; "123.c"	GV_SetDaySingleDig = 9;
0008b9   3c09     movai   0x9              	MOVAI	0x09
0008ba   5647     movra   0x47             	MOVRA	_GV_SetDaySingleDig
                                           ;	.line	1142; "123.c"	GV_SetDayTenDig = 2;
0008bb   3c02     movai   0x2              	MOVAI	0x02
0008bc   5648     movra   0x48             	MOVRA	_GV_SetDayTenDig
0008bd   a942     goto    0x942            	GOTO	_00693_DS_
                                           _00631_DS_
                                           ;	.line	1147; "123.c"	if(GV_SetDaySingleDig)
0008be   3c00     movai   0                	MOVAI	0x00
0008bf   5c47     orar    0x47             	ORAR	_GV_SetDaySingleDig
0008c0   f587     jbclr   0x187, 0x2       	JBCLR	PFLAG,2
0008c1   a8c4     goto    0x8c4            	GOTO	_00625_DS_
                                           ;	.line	1149; "123.c"	GV_SetDaySingleDig--;
0008c2   6e47     decr    0x47             	DECR	_GV_SetDaySingleDig
0008c3   a8cb     goto    0x8cb            	GOTO	_00626_DS_
                                           _00625_DS_
                                           ;	.line	1153; "123.c"	if(GV_SetDayTenDig)
0008c4   3c00     movai   0                	MOVAI	0x00
0008c5   5c48     orar    0x48             	ORAR	_GV_SetDayTenDig
0008c6   f587     jbclr   0x187, 0x2       	JBCLR	PFLAG,2
0008c7   a8cb     goto    0x8cb            	GOTO	_00626_DS_
                                           ;	.line	1155; "123.c"	GV_SetDaySingleDig = 9;
0008c8   3c09     movai   0x9              	MOVAI	0x09
0008c9   5647     movra   0x47             	MOVRA	_GV_SetDaySingleDig
                                           ;	.line	1156; "123.c"	GV_SetDayTenDig--;
0008ca   6e48     decr    0x48             	DECR	_GV_SetDayTenDig
                                           _00626_DS_
                                           ;	.line	1159; "123.c"	if((GV_SetDaySingleDig==0)&&(GV_SetDayTenDig==0))
0008cb   3c00     movai   0                	MOVAI	0x00
0008cc   5c47     orar    0x47             	ORAR	_GV_SetDaySingleDig
0008cd   e587     jbset   0x187, 0x2       	JBSET	PFLAG,2
0008ce   a942     goto    0x942            	GOTO	_00693_DS_
0008cf   3c00     movai   0                	MOVAI	0x00
0008d0   5c48     orar    0x48             	ORAR	_GV_SetDayTenDig
0008d1   e587     jbset   0x187, 0x2       	JBSET	PFLAG,2
0008d2   a942     goto    0x942            	GOTO	_00693_DS_
                                           ;	.line	1161; "123.c"	GV_SetDaySingleDig = 8;
0008d3   3c08     movai   0x8              	MOVAI	0x08
0008d4   5647     movra   0x47             	MOVRA	_GV_SetDaySingleDig
                                           ;	.line	1162; "123.c"	GV_SetDayTenDig = 2;
0008d5   3c02     movai   0x2              	MOVAI	0x02
0008d6   5648     movra   0x48             	MOVRA	_GV_SetDayTenDig
0008d7   a942     goto    0x942            	GOTO	_00693_DS_
                                           _00647_DS_
                                           ;	.line	1167; "123.c"	else if((LV_TempMonth==4)||(LV_TempMonth==6)||(LV_TempMonth==9)||(LV_TempMonth==11))
0008d8   580c     movar   0xc              	MOVAR	r0x1051
0008d9   3904     xorai   0x4              	XORAI	0x04
0008da   e587     jbset   0x187, 0x2       	JBSET	PFLAG,2
0008db   a8dd     goto    0x8dd            	GOTO	_00794_DS_
0008dc   a8eb     goto    0x8eb            	GOTO	_00641_DS_
                                           _00794_DS_
0008dd   580c     movar   0xc              	MOVAR	r0x1051
0008de   3906     xorai   0x6              	XORAI	0x06
0008df   e587     jbset   0x187, 0x2       	JBSET	PFLAG,2
0008e0   a8e2     goto    0x8e2            	GOTO	_00795_DS_
0008e1   a8eb     goto    0x8eb            	GOTO	_00641_DS_
                                           _00795_DS_
0008e2   580c     movar   0xc              	MOVAR	r0x1051
0008e3   3909     xorai   0x9              	XORAI	0x09
0008e4   e587     jbset   0x187, 0x2       	JBSET	PFLAG,2
0008e5   a8e7     goto    0x8e7            	GOTO	_00796_DS_
0008e6   a8eb     goto    0x8eb            	GOTO	_00641_DS_
                                           _00796_DS_
0008e7   580c     movar   0xc              	MOVAR	r0x1051
0008e8   390b     xorai   0xb              	XORAI	0x0b
0008e9   e587     jbset   0x187, 0x2       	JBSET	PFLAG,2
0008ea   a942     goto    0x942            	GOTO	_00693_DS_
                                           _00641_DS_
                                           ;	.line	1169; "123.c"	if(GV_SetDaySingleDig)
0008eb   3c00     movai   0                	MOVAI	0x00
0008ec   5c47     orar    0x47             	ORAR	_GV_SetDaySingleDig
0008ed   f587     jbclr   0x187, 0x2       	JBCLR	PFLAG,2
0008ee   a8f1     goto    0x8f1            	GOTO	_00636_DS_
                                           ;	.line	1171; "123.c"	GV_SetDaySingleDig--;
0008ef   6e47     decr    0x47             	DECR	_GV_SetDaySingleDig
0008f0   a8f8     goto    0x8f8            	GOTO	_00637_DS_
                                           _00636_DS_
                                           ;	.line	1175; "123.c"	if(GV_SetDayTenDig)
0008f1   3c00     movai   0                	MOVAI	0x00
0008f2   5c48     orar    0x48             	ORAR	_GV_SetDayTenDig
0008f3   f587     jbclr   0x187, 0x2       	JBCLR	PFLAG,2
0008f4   a8f8     goto    0x8f8            	GOTO	_00637_DS_
                                           ;	.line	1177; "123.c"	GV_SetDaySingleDig = 9;
0008f5   3c09     movai   0x9              	MOVAI	0x09
0008f6   5647     movra   0x47             	MOVRA	_GV_SetDaySingleDig
                                           ;	.line	1178; "123.c"	GV_SetDayTenDig--;
0008f7   6e48     decr    0x48             	DECR	_GV_SetDayTenDig
                                           _00637_DS_
                                           ;	.line	1181; "123.c"	if((GV_SetDaySingleDig==0)&&(GV_SetDayTenDig==0))
0008f8   3c00     movai   0                	MOVAI	0x00
0008f9   5c47     orar    0x47             	ORAR	_GV_SetDaySingleDig
0008fa   e587     jbset   0x187, 0x2       	JBSET	PFLAG,2
0008fb   a942     goto    0x942            	GOTO	_00693_DS_
0008fc   3c00     movai   0                	MOVAI	0x00
0008fd   5c48     orar    0x48             	ORAR	_GV_SetDayTenDig
0008fe   e587     jbset   0x187, 0x2       	JBSET	PFLAG,2
0008ff   a942     goto    0x942            	GOTO	_00693_DS_
                                           ;	.line	1183; "123.c"	GV_SetDaySingleDig = 0;
000900   7647     clrr    0x47             	CLRR	_GV_SetDaySingleDig
                                           ;	.line	1184; "123.c"	GV_SetDayTenDig = 3;
000901   3c03     movai   0x3              	MOVAI	0x03
000902   5648     movra   0x48             	MOVRA	_GV_SetDayTenDig
000903   a942     goto    0x942            	GOTO	_00693_DS_
                                           _00685_DS_
                                           ;	.line	1192; "123.c"	else if(GV_RealTimeClockSetStep==3)
000904   5835     movar   0x35             	MOVAR	_GV_RealTimeClockSetStep
000905   3903     xorai   0x3              	XORAI	0x03
000906   e587     jbset   0x187, 0x2       	JBSET	PFLAG,2
000907   a92c     goto    0x92c            	GOTO	_00682_DS_
                                           ;	.line	1194; "123.c"	if(GV_SetRealTimeClockHrSingleDig)
000908   3c00     movai   0                	MOVAI	0x00
000909   5c4b     orar    0x4b             	ORAR	_GV_SetRealTimeClockHrSingleDig
00090a   f587     jbclr   0x187, 0x2       	JBCLR	PFLAG,2
00090b   a90e     goto    0x90e            	GOTO	_00665_DS_
                                           ;	.line	1196; "123.c"	GV_SetRealTimeClockHrSingleDig--;
00090c   6e4b     decr    0x4b             	DECR	_GV_SetRealTimeClockHrSingleDig
00090d   a91a     goto    0x91a            	GOTO	_00666_DS_
                                           _00665_DS_
                                           ;	.line	1200; "123.c"	if(GV_SetRealTimeClockHrTenDig)
00090e   3c00     movai   0                	MOVAI	0x00
00090f   5c4c     orar    0x4c             	ORAR	_GV_SetRealTimeClockHrTenDig
000910   f587     jbclr   0x187, 0x2       	JBCLR	PFLAG,2
000911   a916     goto    0x916            	GOTO	_00662_DS_
                                           ;	.line	1202; "123.c"	GV_SetRealTimeClockHrSingleDig = 9;
000912   3c09     movai   0x9              	MOVAI	0x09
000913   564b     movra   0x4b             	MOVRA	_GV_SetRealTimeClockHrSingleDig
                                           ;	.line	1203; "123.c"	GV_SetRealTimeClockHrTenDig--;
000914   6e4c     decr    0x4c             	DECR	_GV_SetRealTimeClockHrTenDig
000915   a91a     goto    0x91a            	GOTO	_00666_DS_
                                           _00662_DS_
                                           ;	.line	1207; "123.c"	GV_SetRealTimeClockHrSingleDig = 2;
000916   3c02     movai   0x2              	MOVAI	0x02
000917   564b     movra   0x4b             	MOVRA	_GV_SetRealTimeClockHrSingleDig
                                           ;	.line	1208; "123.c"	GV_SetRealTimeClockHrTenDig = 1;
000918   3c01     movai   0x1              	MOVAI	0x01
000919   564c     movra   0x4c             	MOVRA	_GV_SetRealTimeClockHrTenDig
                                           _00666_DS_
                                           ;	.line	1212; "123.c"	if((GV_SetRealTimeClockHrSingleDig==0)&&(GV_SetRealTimeClockHrTenDig==0))
00091a   3c00     movai   0                	MOVAI	0x00
00091b   5c4b     orar    0x4b             	ORAR	_GV_SetRealTimeClockHrSingleDig
00091c   e587     jbset   0x187, 0x2       	JBSET	PFLAG,2
00091d   a942     goto    0x942            	GOTO	_00693_DS_
00091e   3c00     movai   0                	MOVAI	0x00
00091f   5c4c     orar    0x4c             	ORAR	_GV_SetRealTimeClockHrTenDig
000920   e587     jbset   0x187, 0x2       	JBSET	PFLAG,2
000921   a942     goto    0x942            	GOTO	_00693_DS_
                                           ;	.line	1214; "123.c"	if(BF_SetRealTimeClockAM_PM)
000922   e427     jbset   0x27, 0x2        	JBSET	_UserFlag,2
000923   a926     goto    0x926            	GOTO	_00668_DS_
                                           ;	.line	1216; "123.c"	BF_SetRealTimeClockAM_PM = 0;
000924   d427     bclr    0x27, 0x2        	BCLR	_UserFlag,2
000925   a927     goto    0x927            	GOTO	_00669_DS_
                                           _00668_DS_
                                           ;	.line	1220; "123.c"	BF_SetRealTimeClockAM_PM = 1;
000926   c427     bset    0x27, 0x2        	BSET	_UserFlag,2
                                           _00669_DS_
                                           ;	.line	1222; "123.c"	GV_SetRealTimeClockHrSingleDig = 0x02;
000927   3c02     movai   0x2              	MOVAI	0x02
000928   564b     movra   0x4b             	MOVRA	_GV_SetRealTimeClockHrSingleDig
                                           ;	.line	1223; "123.c"	GV_SetRealTimeClockHrTenDig = 0x01;
000929   3c01     movai   0x1              	MOVAI	0x01
00092a   564c     movra   0x4c             	MOVRA	_GV_SetRealTimeClockHrTenDig
00092b   a942     goto    0x942            	GOTO	_00693_DS_
                                           _00682_DS_
                                           ;	.line	1226; "123.c"	else if(GV_RealTimeClockSetStep==4)
00092c   5835     movar   0x35             	MOVAR	_GV_RealTimeClockSetStep
00092d   3904     xorai   0x4              	XORAI	0x04
00092e   e587     jbset   0x187, 0x2       	JBSET	PFLAG,2
00092f   a942     goto    0x942            	GOTO	_00693_DS_
                                           ;	.line	1228; "123.c"	if(GV_SetRealTimeClockMinSingleDig)
000930   3c00     movai   0                	MOVAI	0x00
000931   5c4d     orar    0x4d             	ORAR	_GV_SetRealTimeClockMinSingleDig
000932   f587     jbclr   0x187, 0x2       	JBCLR	PFLAG,2
000933   a936     goto    0x936            	GOTO	_00677_DS_
                                           ;	.line	1230; "123.c"	GV_SetRealTimeClockMinSingleDig--;
000934   6e4d     decr    0x4d             	DECR	_GV_SetRealTimeClockMinSingleDig
000935   a942     goto    0x942            	GOTO	_00693_DS_
                                           _00677_DS_
                                           ;	.line	1234; "123.c"	if(GV_SetRealTimeClockMinTenDig)
000936   3c00     movai   0                	MOVAI	0x00
000937   5c4e     orar    0x4e             	ORAR	_GV_SetRealTimeClockMinTenDig
000938   f587     jbclr   0x187, 0x2       	JBCLR	PFLAG,2
000939   a93e     goto    0x93e            	GOTO	_00674_DS_
                                           ;	.line	1236; "123.c"	GV_SetRealTimeClockMinSingleDig = 9;
00093a   3c09     movai   0x9              	MOVAI	0x09
00093b   564d     movra   0x4d             	MOVRA	_GV_SetRealTimeClockMinSingleDig
                                           ;	.line	1237; "123.c"	GV_SetRealTimeClockMinTenDig--;
00093c   6e4e     decr    0x4e             	DECR	_GV_SetRealTimeClockMinTenDig
00093d   a942     goto    0x942            	GOTO	_00693_DS_
                                           _00674_DS_
                                           ;	.line	1241; "123.c"	GV_SetRealTimeClockMinSingleDig = 9;
00093e   3c09     movai   0x9              	MOVAI	0x09
00093f   564d     movra   0x4d             	MOVRA	_GV_SetRealTimeClockMinSingleDig
                                           ;	.line	1242; "123.c"	GV_SetRealTimeClockMinTenDig = 5;
000940   3c05     movai   0x5              	MOVAI	0x05
000941   564e     movra   0x4e             	MOVRA	_GV_SetRealTimeClockMinTenDig
                                           _00693_DS_
000942   000c     return                   	RETURN	
                                           ; exit point of _Sub_RealTimeClockDec
                                           
                                           ;***
                                           ;  pBlock Stats: dbName = C
                                           ;***
                                           ;entry:  _Sub_DownShortLongKeyAlarmSet	;Function start
                                           ; 2 exit points
                                           ;has an exit
                                           ;functions called:
                                           ;   _Sub_SetAlarmDecTimer
                                           ;   _Sub_SetAlarmDecTimer
                                           ;   _Sub_SetAlarmDecTimer
                                           ;   _Sub_SetAlarmDecTimer
                                           ;; Starting pCode block
                                           _Sub_DownShortLongKeyAlarmSet	;Function start
                                           ; 2 exit points
                                           ;	.line	1011; "123.c"	BF_DownKeyPressesd = 1;
000943   cc27     bset    0x27, 0x6        	BSET	_UserFlag,6
                                           ;	.line	1012; "123.c"	if(BF_DownLongKeyPressesd)//
000944   ee27     jbset   0x27, 0x7        	JBSET	_UserFlag,7
000945   a956     goto    0x956            	GOTO	_00576_DS_
                                           ;	.line	1014; "123.c"	if(++GV_LongKeyTimer < 125) return;//125*2ms=250ms
000946   6621     incr    0x21             	INCR	_GV_LongKeyTimer
000947   f587     jbclr   0x187, 0x2       	JBCLR	PFLAG,2
000948   6622     incr    0x22             	INCR	(_GV_LongKeyTimer + 1)
                                           ;;unsigned compare: left < lit(0x7D=125), size=2
000949   3c00     movai   0                	MOVAI	0x00
00094a   4822     rsubar  0x22             	RSUBAR	(_GV_LongKeyTimer + 1)
00094b   e587     jbset   0x187, 0x2       	JBSET	PFLAG,2
00094c   a94f     goto    0x94f            	GOTO	_00586_DS_
00094d   3c7d     movai   0x7d             	MOVAI	0x7d
00094e   4821     rsubar  0x21             	RSUBAR	_GV_LongKeyTimer
                                           _00586_DS_
00094f   f187     jbclr   0x187, 0         	JBCLR	PFLAG,0
000950   a952     goto    0x952            	GOTO	_00572_DS_
                                           ;;genSkipc:3195: created from rifx:00DE608C
000951   a966     goto    0x966            	GOTO	_00578_DS_
                                           _00572_DS_
                                           ;	.line	1016; "123.c"	GV_LongKeyTimer = 0;
000952   7621     clrr    0x21             	CLRR	_GV_LongKeyTimer
000953   7622     clrr    0x22             	CLRR	(_GV_LongKeyTimer + 1)
                                           ;	.line	1017; "123.c"	Sub_SetAlarmDecTimer();
000954   8967     call    0x967            	CALL	_Sub_SetAlarmDecTimer
000955   a966     goto    0x966            	GOTO	_00578_DS_
                                           _00576_DS_
                                           ;	.line	1022; "123.c"	if(++GV_LongKeyTimer < 500) return;//500*2ms=1s
000956   6621     incr    0x21             	INCR	_GV_LongKeyTimer
000957   f587     jbclr   0x187, 0x2       	JBCLR	PFLAG,2
000958   6622     incr    0x22             	INCR	(_GV_LongKeyTimer + 1)
                                           ;;unsigned compare: left < lit(0x1F4=500), size=2
000959   3c01     movai   0x1              	MOVAI	0x01
00095a   4822     rsubar  0x22             	RSUBAR	(_GV_LongKeyTimer + 1)
00095b   e587     jbset   0x187, 0x2       	JBSET	PFLAG,2
00095c   a95f     goto    0x95f            	GOTO	_00587_DS_
00095d   3cf4     movai   0xf4             	MOVAI	0xf4
00095e   4821     rsubar  0x21             	RSUBAR	_GV_LongKeyTimer
                                           _00587_DS_
00095f   f187     jbclr   0x187, 0         	JBCLR	PFLAG,0
000960   a962     goto    0x962            	GOTO	_00574_DS_
                                           ;;genSkipc:3195: created from rifx:00DE608C
000961   a966     goto    0x966            	GOTO	_00578_DS_
                                           _00574_DS_
                                           ;	.line	1024; "123.c"	GV_LongKeyTimer = 0;
000962   7621     clrr    0x21             	CLRR	_GV_LongKeyTimer
000963   7622     clrr    0x22             	CLRR	(_GV_LongKeyTimer + 1)
                                           ;	.line	1025; "123.c"	BF_DownLongKeyPressesd = 1;
000964   ce27     bset    0x27, 0x7        	BSET	_UserFlag,7
                                           ;	.line	1026; "123.c"	Sub_SetAlarmDecTimer();
000965   8967     call    0x967            	CALL	_Sub_SetAlarmDecTimer
                                           _00578_DS_
000966   000c     return                   	RETURN	
                                           ; exit point of _Sub_DownShortLongKeyAlarmSet
                                           
                                           ;***
                                           ;  pBlock Stats: dbName = C
                                           ;***
                                           ;entry:  _Sub_SetAlarmDecTimer	;Function start
                                           ; 2 exit points
                                           ;has an exit
                                           ;; Starting pCode block
                                           _Sub_SetAlarmDecTimer	;Function start
                                           ; 2 exit points
                                           ;	.line	939; "123.c"	if(GV_AlarmClockSetStep==0)
000967   3c00     movai   0                	MOVAI	0x00
000968   5c36     orar    0x36             	ORAR	_GV_AlarmClockSetStep
000969   f587     jbclr   0x187, 0x2       	JBCLR	PFLAG,2
00096a   a9a4     goto    0x9a4            	GOTO	_00566_DS_
                                           ;	.line	943; "123.c"	else if(GV_AlarmClockSetStep==1)
00096b   5836     movar   0x36             	MOVAR	_GV_AlarmClockSetStep
00096c   3901     xorai   0x1              	XORAI	0x01
00096d   e587     jbset   0x187, 0x2       	JBSET	PFLAG,2
00096e   a98e     goto    0x98e            	GOTO	_00561_DS_
                                           ;	.line	945; "123.c"	if(GV_SetAlarmClockHrSingleDig)
00096f   3c00     movai   0                	MOVAI	0x00
000970   5c53     orar    0x53             	ORAR	_GV_SetAlarmClockHrSingleDig
000971   f587     jbclr   0x187, 0x2       	JBCLR	PFLAG,2
000972   a975     goto    0x975            	GOTO	_00544_DS_
                                           ;	.line	947; "123.c"	GV_SetAlarmClockHrSingleDig--;
000973   6e53     decr    0x53             	DECR	_GV_SetAlarmClockHrSingleDig
000974   a97c     goto    0x97c            	GOTO	_00545_DS_
                                           _00544_DS_
                                           ;	.line	951; "123.c"	if(GV_SetAlarmClockHrTenDig)
000975   3c00     movai   0                	MOVAI	0x00
000976   5c54     orar    0x54             	ORAR	_GV_SetAlarmClockHrTenDig
000977   f587     jbclr   0x187, 0x2       	JBCLR	PFLAG,2
000978   a97c     goto    0x97c            	GOTO	_00545_DS_
                                           ;	.line	953; "123.c"	GV_SetAlarmClockHrSingleDig = 9;
000979   3c09     movai   0x9              	MOVAI	0x09
00097a   5653     movra   0x53             	MOVRA	_GV_SetAlarmClockHrSingleDig
                                           ;	.line	954; "123.c"	GV_SetAlarmClockHrTenDig--;
00097b   6e54     decr    0x54             	DECR	_GV_SetAlarmClockHrTenDig
                                           _00545_DS_
                                           ;	.line	957; "123.c"	if((GV_SetAlarmClockHrSingleDig==0)&&(GV_SetAlarmClockHrTenDig==0))
00097c   3c00     movai   0                	MOVAI	0x00
00097d   5c53     orar    0x53             	ORAR	_GV_SetAlarmClockHrSingleDig
00097e   e587     jbset   0x187, 0x2       	JBSET	PFLAG,2
00097f   a9a4     goto    0x9a4            	GOTO	_00566_DS_
000980   3c00     movai   0                	MOVAI	0x00
000981   5c54     orar    0x54             	ORAR	_GV_SetAlarmClockHrTenDig
000982   e587     jbset   0x187, 0x2       	JBSET	PFLAG,2
000983   a9a4     goto    0x9a4            	GOTO	_00566_DS_
                                           ;	.line	959; "123.c"	if(BF_SetAlarmAM_PM)
000984   e428     jbset   0x28, 0x2        	JBSET	_UserFlag1,2
000985   a988     goto    0x988            	GOTO	_00547_DS_
                                           ;	.line	961; "123.c"	BF_SetAlarmAM_PM = 0;
000986   d428     bclr    0x28, 0x2        	BCLR	_UserFlag1,2
000987   a989     goto    0x989            	GOTO	_00548_DS_
                                           _00547_DS_
                                           ;	.line	965; "123.c"	BF_SetAlarmAM_PM = 1;
000988   c428     bset    0x28, 0x2        	BSET	_UserFlag1,2
                                           _00548_DS_
                                           ;	.line	967; "123.c"	GV_SetAlarmClockHrSingleDig = 0x02;
000989   3c02     movai   0x2              	MOVAI	0x02
00098a   5653     movra   0x53             	MOVRA	_GV_SetAlarmClockHrSingleDig
                                           ;	.line	968; "123.c"	GV_SetAlarmClockHrTenDig = 0x01;
00098b   3c01     movai   0x1              	MOVAI	0x01
00098c   5654     movra   0x54             	MOVRA	_GV_SetAlarmClockHrTenDig
00098d   a9a4     goto    0x9a4            	GOTO	_00566_DS_
                                           _00561_DS_
                                           ;	.line	971; "123.c"	else if(GV_AlarmClockSetStep==2)
00098e   5836     movar   0x36             	MOVAR	_GV_AlarmClockSetStep
00098f   3902     xorai   0x2              	XORAI	0x02
000990   e587     jbset   0x187, 0x2       	JBSET	PFLAG,2
000991   a9a4     goto    0x9a4            	GOTO	_00566_DS_
                                           ;	.line	973; "123.c"	if(GV_SetAlarmClockMinSingleDig)
000992   3c00     movai   0                	MOVAI	0x00
000993   5c55     orar    0x55             	ORAR	_GV_SetAlarmClockMinSingleDig
000994   f587     jbclr   0x187, 0x2       	JBCLR	PFLAG,2
000995   a998     goto    0x998            	GOTO	_00556_DS_
                                           ;	.line	975; "123.c"	GV_SetAlarmClockMinSingleDig--;
000996   6e55     decr    0x55             	DECR	_GV_SetAlarmClockMinSingleDig
000997   a9a4     goto    0x9a4            	GOTO	_00566_DS_
                                           _00556_DS_
                                           ;	.line	979; "123.c"	if(GV_SetAlarmClockMinTenDig)
000998   3c00     movai   0                	MOVAI	0x00
000999   5c56     orar    0x56             	ORAR	_GV_SetAlarmClockMinTenDig
00099a   f587     jbclr   0x187, 0x2       	JBCLR	PFLAG,2
00099b   a9a0     goto    0x9a0            	GOTO	_00553_DS_
                                           ;	.line	981; "123.c"	GV_SetAlarmClockMinSingleDig = 9;
00099c   3c09     movai   0x9              	MOVAI	0x09
00099d   5655     movra   0x55             	MOVRA	_GV_SetAlarmClockMinSingleDig
                                           ;	.line	982; "123.c"	GV_SetAlarmClockMinTenDig--;
00099e   6e56     decr    0x56             	DECR	_GV_SetAlarmClockMinTenDig
00099f   a9a4     goto    0x9a4            	GOTO	_00566_DS_
                                           _00553_DS_
                                           ;	.line	986; "123.c"	GV_SetAlarmClockMinSingleDig = 9;
0009a0   3c09     movai   0x9              	MOVAI	0x09
0009a1   5655     movra   0x55             	MOVRA	_GV_SetAlarmClockMinSingleDig
                                           ;	.line	987; "123.c"	GV_SetAlarmClockMinTenDig = 5;
0009a2   3c05     movai   0x5              	MOVAI	0x05
0009a3   5656     movra   0x56             	MOVRA	_GV_SetAlarmClockMinTenDig
                                           _00566_DS_
0009a4   000c     return                   	RETURN	
                                           ; exit point of _Sub_SetAlarmDecTimer
                                           
                                           ;***
                                           ;  pBlock Stats: dbName = C
                                           ;***
                                           ;entry:  _Sub_Up_AlShortLongKeyClockSet	;Function start
                                           ; 2 exit points
                                           ;has an exit
                                           ;functions called:
                                           ;   _Sub_RealTimeClockAdd
                                           ;   _Sub_RealTimeClockAdd
                                           ;   _Sub_RealTimeClockAdd
                                           ;   _Sub_RealTimeClockAdd
                                           ;; Starting pCode block
                                           _Sub_Up_AlShortLongKeyClockSet	;Function start
                                           ; 2 exit points
                                           ;	.line	907; "123.c"	BF_Up_AlKeyPressesd = 1;
0009a5   c827     bset    0x27, 0x4        	BSET	_UserFlag,4
                                           ;	.line	908; "123.c"	if(BF_Up_AlLongKeyPressesd)//
0009a6   ea27     jbset   0x27, 0x5        	JBSET	_UserFlag,5
0009a7   a9b8     goto    0x9b8            	GOTO	_00525_DS_
                                           ;	.line	910; "123.c"	if(++GV_LongKeyTimer < 125) return;//125*2ms=250ms
0009a8   6621     incr    0x21             	INCR	_GV_LongKeyTimer
0009a9   f587     jbclr   0x187, 0x2       	JBCLR	PFLAG,2
0009aa   6622     incr    0x22             	INCR	(_GV_LongKeyTimer + 1)
                                           ;;unsigned compare: left < lit(0x7D=125), size=2
0009ab   3c00     movai   0                	MOVAI	0x00
0009ac   4822     rsubar  0x22             	RSUBAR	(_GV_LongKeyTimer + 1)
0009ad   e587     jbset   0x187, 0x2       	JBSET	PFLAG,2
0009ae   a9b1     goto    0x9b1            	GOTO	_00535_DS_
0009af   3c7d     movai   0x7d             	MOVAI	0x7d
0009b0   4821     rsubar  0x21             	RSUBAR	_GV_LongKeyTimer
                                           _00535_DS_
0009b1   f187     jbclr   0x187, 0         	JBCLR	PFLAG,0
0009b2   a9b4     goto    0x9b4            	GOTO	_00521_DS_
                                           ;;genSkipc:3195: created from rifx:00DE608C
0009b3   a9c8     goto    0x9c8            	GOTO	_00527_DS_
                                           _00521_DS_
                                           ;	.line	912; "123.c"	GV_LongKeyTimer = 0;
0009b4   7621     clrr    0x21             	CLRR	_GV_LongKeyTimer
0009b5   7622     clrr    0x22             	CLRR	(_GV_LongKeyTimer + 1)
                                           ;	.line	913; "123.c"	Sub_RealTimeClockAdd();
0009b6   89c9     call    0x9c9            	CALL	_Sub_RealTimeClockAdd
0009b7   a9c8     goto    0x9c8            	GOTO	_00527_DS_
                                           _00525_DS_
                                           ;	.line	918; "123.c"	if(++GV_LongKeyTimer < 500) return;//500*2ms=1s
0009b8   6621     incr    0x21             	INCR	_GV_LongKeyTimer
0009b9   f587     jbclr   0x187, 0x2       	JBCLR	PFLAG,2
0009ba   6622     incr    0x22             	INCR	(_GV_LongKeyTimer + 1)
                                           ;;unsigned compare: left < lit(0x1F4=500), size=2
0009bb   3c01     movai   0x1              	MOVAI	0x01
0009bc   4822     rsubar  0x22             	RSUBAR	(_GV_LongKeyTimer + 1)
0009bd   e587     jbset   0x187, 0x2       	JBSET	PFLAG,2
0009be   a9c1     goto    0x9c1            	GOTO	_00536_DS_
0009bf   3cf4     movai   0xf4             	MOVAI	0xf4
0009c0   4821     rsubar  0x21             	RSUBAR	_GV_LongKeyTimer
                                           _00536_DS_
0009c1   f187     jbclr   0x187, 0         	JBCLR	PFLAG,0
0009c2   a9c4     goto    0x9c4            	GOTO	_00523_DS_
                                           ;;genSkipc:3195: created from rifx:00DE608C
0009c3   a9c8     goto    0x9c8            	GOTO	_00527_DS_
                                           _00523_DS_
                                           ;	.line	920; "123.c"	GV_LongKeyTimer = 0;
0009c4   7621     clrr    0x21             	CLRR	_GV_LongKeyTimer
0009c5   7622     clrr    0x22             	CLRR	(_GV_LongKeyTimer + 1)
                                           ;	.line	921; "123.c"	BF_Up_AlLongKeyPressesd = 1;
0009c6   ca27     bset    0x27, 0x5        	BSET	_UserFlag,5
                                           ;	.line	922; "123.c"	Sub_RealTimeClockAdd();
0009c7   89c9     call    0x9c9            	CALL	_Sub_RealTimeClockAdd
                                           _00527_DS_
0009c8   000c     return                   	RETURN	
                                           ; exit point of _Sub_Up_AlShortLongKeyClockSet
                                           
                                           ;***
                                           ;  pBlock Stats: dbName = C
                                           ;***
                                           ;entry:  _Sub_RealTimeClockAdd	;Function start
                                           ; 2 exit points
                                           ;has an exit
                                           ;functions called:
                                           ;   _Sub_Read1302
                                           ;   __mulchar
                                           ;   _Sub_Read1302
                                           ;   __mulchar
                                           ;   _Sub_Read1302
                                           ;   __mulchar
                                           ;   _Sub_Read1302
                                           ;   __mulchar
                                           ;3 compiler assigned registers:
                                           ;   r0x1050
                                           ;   STK00
                                           ;   r0x1051
                                           ;; Starting pCode block
                                           _Sub_RealTimeClockAdd	;Function start
                                           ; 2 exit points
                                           ;	.line	741; "123.c"	if(GV_RealTimeClockSetStep==0)
0009c9   3c00     movai   0                	MOVAI	0x00
0009ca   5c35     orar    0x35             	ORAR	_GV_RealTimeClockSetStep
0009cb   e587     jbset   0x187, 0x2       	JBSET	PFLAG,2
0009cc   a9df     goto    0x9df            	GOTO	_00405_DS_
                                           ;	.line	743; "123.c"	GV_SetYearSingleDig++;
0009cd   663b     incr    0x3b             	INCR	_GV_SetYearSingleDig
                                           ;;unsigned compare: left < lit(0xA=10), size=1
                                           ;	.line	744; "123.c"	if(GV_SetYearSingleDig >= 10)
0009ce   3c0a     movai   0xa              	MOVAI	0x0a
0009cf   483b     rsubar  0x3b             	RSUBAR	_GV_SetYearSingleDig
0009d0   e187     jbset   0x187, 0         	JBSET	PFLAG,0
0009d1   a9d4     goto    0x9d4            	GOTO	_00328_DS_
                                           ;;genSkipc:3195: created from rifx:00DE608C
                                           ;	.line	746; "123.c"	GV_SetYearSingleDig = 0;
0009d2   763b     clrr    0x3b             	CLRR	_GV_SetYearSingleDig
                                           ;	.line	747; "123.c"	GV_SetYearTenDig++;
0009d3   663c     incr    0x3c             	INCR	_GV_SetYearTenDig
                                           _00328_DS_
                                           ;	.line	749; "123.c"	if((GV_SetYearSingleDig == 0)&&(GV_SetYearTenDig >= 10))
0009d4   3c00     movai   0                	MOVAI	0x00
0009d5   5c3b     orar    0x3b             	ORAR	_GV_SetYearSingleDig
0009d6   e587     jbset   0x187, 0x2       	JBSET	PFLAG,2
0009d7   aad7     goto    0xad7            	GOTO	_00407_DS_
                                           ;;unsigned compare: left < lit(0xA=10), size=1
0009d8   3c0a     movai   0xa              	MOVAI	0x0a
0009d9   483c     rsubar  0x3c             	RSUBAR	_GV_SetYearTenDig
0009da   e187     jbset   0x187, 0         	JBSET	PFLAG,0
0009db   aad7     goto    0xad7            	GOTO	_00407_DS_
                                           ;;genSkipc:3195: created from rifx:00DE608C
                                           ;	.line	751; "123.c"	GV_SetYearSingleDig = 0;
0009dc   763b     clrr    0x3b             	CLRR	_GV_SetYearSingleDig
                                           ;	.line	752; "123.c"	GV_SetYearTenDig = 0;
0009dd   763c     clrr    0x3c             	CLRR	_GV_SetYearTenDig
0009de   aad7     goto    0xad7            	GOTO	_00407_DS_
                                           _00405_DS_
                                           ;	.line	755; "123.c"	else if(GV_RealTimeClockSetStep==1)
0009df   5835     movar   0x35             	MOVAR	_GV_RealTimeClockSetStep
0009e0   3901     xorai   0x1              	XORAI	0x01
0009e1   e587     jbset   0x187, 0x2       	JBSET	PFLAG,2
0009e2   a9f6     goto    0x9f6            	GOTO	_00402_DS_
                                           ;	.line	757; "123.c"	GV_SetMonthSingleDig++;
0009e3   6643     incr    0x43             	INCR	_GV_SetMonthSingleDig
                                           ;;unsigned compare: left < lit(0xA=10), size=1
                                           ;	.line	758; "123.c"	if(GV_SetMonthSingleDig >= 10)
0009e4   3c0a     movai   0xa              	MOVAI	0x0a
0009e5   4843     rsubar  0x43             	RSUBAR	_GV_SetMonthSingleDig
0009e6   e187     jbset   0x187, 0         	JBSET	PFLAG,0
0009e7   a9ea     goto    0x9ea            	GOTO	_00333_DS_
                                           ;;genSkipc:3195: created from rifx:00DE608C
                                           ;	.line	760; "123.c"	GV_SetMonthSingleDig = 0;
0009e8   7643     clrr    0x43             	CLRR	_GV_SetMonthSingleDig
                                           ;	.line	761; "123.c"	GV_SetMonthTenDig++;
0009e9   6644     incr    0x44             	INCR	_GV_SetMonthTenDig
                                           ;;unsigned compare: left < lit(0x3=3), size=1
                                           _00333_DS_
                                           ;	.line	763; "123.c"	if((GV_SetMonthSingleDig >= 3)&&(GV_SetMonthTenDig >= 1))
0009ea   3c03     movai   0x3              	MOVAI	0x03
0009eb   4843     rsubar  0x43             	RSUBAR	_GV_SetMonthSingleDig
0009ec   e187     jbset   0x187, 0         	JBSET	PFLAG,0
0009ed   aad7     goto    0xad7            	GOTO	_00407_DS_
                                           ;;genSkipc:3195: created from rifx:00DE608C
                                           ;;unsigned compare: left < lit(0x1=1), size=1
0009ee   3c01     movai   0x1              	MOVAI	0x01
0009ef   4844     rsubar  0x44             	RSUBAR	_GV_SetMonthTenDig
0009f0   e187     jbset   0x187, 0         	JBSET	PFLAG,0
0009f1   aad7     goto    0xad7            	GOTO	_00407_DS_
                                           ;;genSkipc:3195: created from rifx:00DE608C
                                           ;	.line	765; "123.c"	GV_SetMonthSingleDig = 1;
0009f2   3c01     movai   0x1              	MOVAI	0x01
0009f3   5643     movra   0x43             	MOVRA	_GV_SetMonthSingleDig
                                           ;	.line	766; "123.c"	GV_SetMonthTenDig = 0;
0009f4   7644     clrr    0x44             	CLRR	_GV_SetMonthTenDig
0009f5   aad7     goto    0xad7            	GOTO	_00407_DS_
                                           _00402_DS_
                                           ;	.line	769; "123.c"	else if(GV_RealTimeClockSetStep==2)
0009f6   5835     movar   0x35             	MOVAR	_GV_RealTimeClockSetStep
0009f7   3902     xorai   0x2              	XORAI	0x02
0009f8   e587     jbset   0x187, 0x2       	JBSET	PFLAG,2
0009f9   aaa6     goto    0xaa6            	GOTO	_00399_DS_
                                           ;	.line	771; "123.c"	Sub_Read1302(C_DS1302_Year);//C_DS1302_Year
0009fa   3c8c     movai   0x8c             	MOVAI	0x8c
0009fb   8c50     call    0xc50            	CALL	_Sub_Read1302
                                           ;	.line	772; "123.c"	LV_TempA = GV_GetByteFromDs1302;
0009fc   5839     movar   0x39             	MOVAR	_GV_GetByteFromDs1302
0009fd   566b     movra   0x6b             	MOVRA	_LV_TempA
                                           ;	.line	773; "123.c"	LV_TempB = (LV_TempA>>4)*10;//BCD_TO_HEX
0009fe   446b     swapar  0x6b             	SWAPAR	_LV_TempA
0009ff   3e0f     andai   0xf              	ANDAI	0x0f
000a00   560b     movra   0xb              	MOVRA	r0x1050
000a01   3c0a     movai   0xa              	MOVAI	0x0a
000a02   5606     movra   0x6              	MOVRA	STK00
000a03   580b     movar   0xb              	MOVAR	r0x1050
000a04   8c7e     call    0xc7e            	CALL	__mulchar
000a05   566c     movra   0x6c             	MOVRA	_LV_TempB
                                           ;	.line	774; "123.c"	LV_TempYear = LV_TempA & 0x0f;
000a06   3c0f     movai   0xf              	MOVAI	0x0f
000a07   786b     andar   0x6b             	ANDAR	_LV_TempA
000a08   560b     movra   0xb              	MOVRA	r0x1050
                                           ;	.line	775; "123.c"	LV_TempYear = LV_TempYear + LV_TempB;
000a09   586c     movar   0x6c             	MOVAR	_LV_TempB
000a0a   7e0b     addra   0xb              	ADDRA	r0x1050
                                           ;	.line	777; "123.c"	Sub_Read1302(C_DS1302_Month);//C_DS1302_Month
000a0b   3c88     movai   0x88             	MOVAI	0x88
000a0c   8c50     call    0xc50            	CALL	_Sub_Read1302
                                           ;	.line	778; "123.c"	LV_TempA = GV_GetByteFromDs1302;
000a0d   5839     movar   0x39             	MOVAR	_GV_GetByteFromDs1302
000a0e   566b     movra   0x6b             	MOVRA	_LV_TempA
                                           ;	.line	779; "123.c"	LV_TempB = (LV_TempA>>4)*10;//BCD_TO_HEX
000a0f   446b     swapar  0x6b             	SWAPAR	_LV_TempA
000a10   3e0f     andai   0xf              	ANDAI	0x0f
000a11   560c     movra   0xc              	MOVRA	r0x1051
000a12   3c0a     movai   0xa              	MOVAI	0x0a
000a13   5606     movra   0x6              	MOVRA	STK00
000a14   580c     movar   0xc              	MOVAR	r0x1051
000a15   8c7e     call    0xc7e            	CALL	__mulchar
000a16   566c     movra   0x6c             	MOVRA	_LV_TempB
                                           ;	.line	780; "123.c"	LV_TempMonth = LV_TempA & 0x0f;
000a17   3c0f     movai   0xf              	MOVAI	0x0f
000a18   786b     andar   0x6b             	ANDAR	_LV_TempA
000a19   560c     movra   0xc              	MOVRA	r0x1051
                                           ;	.line	781; "123.c"	LV_TempMonth = LV_TempMonth + LV_TempB;
000a1a   586c     movar   0x6c             	MOVAR	_LV_TempB
000a1b   7e0c     addra   0xc              	ADDRA	r0x1051
                                           ;	.line	783; "123.c"	GV_SetDaySingleDig++; 
000a1c   6647     incr    0x47             	INCR	_GV_SetDaySingleDig
                                           ;	.line	785; "123.c"	if(LV_TempMonth==0)
000a1d   3c00     movai   0                	MOVAI	0x00
000a1e   5c0c     orar    0xc              	ORAR	r0x1051
000a1f   f587     jbclr   0x187, 0x2       	JBCLR	PFLAG,2
000a20   aad7     goto    0xad7            	GOTO	_00407_DS_
                                           ;	.line	789; "123.c"	else if((LV_TempMonth==1)||(LV_TempMonth==3)||(LV_TempMonth==5)||(LV_TempMonth==7)||(LV_TempMonth==8)||(LV_TempMonth==10)||(LV_TempMonth==12))
000a21   580c     movar   0xc              	MOVAR	r0x1051
000a22   3901     xorai   0x1              	XORAI	0x01
000a23   e587     jbset   0x187, 0x2       	JBSET	PFLAG,2
000a24   aa26     goto    0xa26            	GOTO	_00498_DS_
000a25   aa43     goto    0xa43            	GOTO	_00368_DS_
                                           _00498_DS_
000a26   580c     movar   0xc              	MOVAR	r0x1051
000a27   3903     xorai   0x3              	XORAI	0x03
000a28   e587     jbset   0x187, 0x2       	JBSET	PFLAG,2
000a29   aa2b     goto    0xa2b            	GOTO	_00499_DS_
000a2a   aa43     goto    0xa43            	GOTO	_00368_DS_
                                           _00499_DS_
000a2b   580c     movar   0xc              	MOVAR	r0x1051
000a2c   3905     xorai   0x5              	XORAI	0x05
000a2d   e587     jbset   0x187, 0x2       	JBSET	PFLAG,2
000a2e   aa30     goto    0xa30            	GOTO	_00500_DS_
000a2f   aa43     goto    0xa43            	GOTO	_00368_DS_
                                           _00500_DS_
000a30   580c     movar   0xc              	MOVAR	r0x1051
000a31   3907     xorai   0x7              	XORAI	0x07
000a32   e587     jbset   0x187, 0x2       	JBSET	PFLAG,2
000a33   aa35     goto    0xa35            	GOTO	_00501_DS_
000a34   aa43     goto    0xa43            	GOTO	_00368_DS_
                                           _00501_DS_
000a35   580c     movar   0xc              	MOVAR	r0x1051
000a36   3908     xorai   0x8              	XORAI	0x08
000a37   e587     jbset   0x187, 0x2       	JBSET	PFLAG,2
000a38   aa3a     goto    0xa3a            	GOTO	_00502_DS_
000a39   aa43     goto    0xa43            	GOTO	_00368_DS_
                                           _00502_DS_
000a3a   580c     movar   0xc              	MOVAR	r0x1051
000a3b   390a     xorai   0xa              	XORAI	0x0a
000a3c   e587     jbset   0x187, 0x2       	JBSET	PFLAG,2
000a3d   aa3f     goto    0xa3f            	GOTO	_00503_DS_
000a3e   aa43     goto    0xa43            	GOTO	_00368_DS_
                                           _00503_DS_
000a3f   580c     movar   0xc              	MOVAR	r0x1051
000a40   390c     xorai   0xc              	XORAI	0x0c
000a41   e587     jbset   0x187, 0x2       	JBSET	PFLAG,2
000a42   aa55     goto    0xa55            	GOTO	_00369_DS_
                                           ;;unsigned compare: left < lit(0xA=10), size=1
                                           _00368_DS_
                                           ;	.line	791; "123.c"	if(GV_SetDaySingleDig >= 10)
000a43   3c0a     movai   0xa              	MOVAI	0x0a
000a44   4847     rsubar  0x47             	RSUBAR	_GV_SetDaySingleDig
000a45   e187     jbset   0x187, 0         	JBSET	PFLAG,0
000a46   aa49     goto    0xa49            	GOTO	_00338_DS_
                                           ;;genSkipc:3195: created from rifx:00DE608C
                                           ;	.line	793; "123.c"	GV_SetDaySingleDig = 0;
000a47   7647     clrr    0x47             	CLRR	_GV_SetDaySingleDig
                                           ;	.line	794; "123.c"	GV_SetDayTenDig++;
000a48   6648     incr    0x48             	INCR	_GV_SetDayTenDig
                                           ;;unsigned compare: left < lit(0x2=2), size=1
                                           _00338_DS_
                                           ;	.line	796; "123.c"	if((GV_SetDaySingleDig >= 2)&&(GV_SetDayTenDig >= 3))
000a49   3c02     movai   0x2              	MOVAI	0x02
000a4a   4847     rsubar  0x47             	RSUBAR	_GV_SetDaySingleDig
000a4b   e187     jbset   0x187, 0         	JBSET	PFLAG,0
000a4c   aad7     goto    0xad7            	GOTO	_00407_DS_
                                           ;;genSkipc:3195: created from rifx:00DE608C
                                           ;;unsigned compare: left < lit(0x3=3), size=1
000a4d   3c03     movai   0x3              	MOVAI	0x03
000a4e   4848     rsubar  0x48             	RSUBAR	_GV_SetDayTenDig
000a4f   e187     jbset   0x187, 0         	JBSET	PFLAG,0
000a50   aad7     goto    0xad7            	GOTO	_00407_DS_
                                           ;;genSkipc:3195: created from rifx:00DE608C
                                           ;	.line	798; "123.c"	GV_SetDaySingleDig = 1;
000a51   3c01     movai   0x1              	MOVAI	0x01
000a52   5647     movra   0x47             	MOVRA	_GV_SetDaySingleDig
                                           ;	.line	799; "123.c"	GV_SetDayTenDig = 0;
000a53   7648     clrr    0x48             	CLRR	_GV_SetDayTenDig
000a54   aad7     goto    0xad7            	GOTO	_00407_DS_
                                           _00369_DS_
                                           ;	.line	802; "123.c"	else if(LV_TempMonth==2)
000a55   580c     movar   0xc              	MOVAR	r0x1051
000a56   3902     xorai   0x2              	XORAI	0x02
000a57   e587     jbset   0x187, 0x2       	JBSET	PFLAG,2
000a58   aa81     goto    0xa81            	GOTO	_00366_DS_
                                           ;	.line	804; "123.c"	if(LV_TempYear % 4)//4(229),(228)
000a59   580b     movar   0xb              	MOVAR	r0x1050
000a5a   3e03     andai   0x3              	ANDAI	0x03
000a5b   f587     jbclr   0x187, 0x2       	JBCLR	PFLAG,2
000a5c   aa6f     goto    0xa6f            	GOTO	_00353_DS_
                                           ;;unsigned compare: left < lit(0xA=10), size=1
                                           ;	.line	806; "123.c"	if(GV_SetDaySingleDig >= 10)
000a5d   3c0a     movai   0xa              	MOVAI	0x0a
000a5e   4847     rsubar  0x47             	RSUBAR	_GV_SetDaySingleDig
000a5f   e187     jbset   0x187, 0         	JBSET	PFLAG,0
000a60   aa63     goto    0xa63            	GOTO	_00343_DS_
                                           ;;genSkipc:3195: created from rifx:00DE608C
                                           ;	.line	808; "123.c"	GV_SetDaySingleDig = 0;
000a61   7647     clrr    0x47             	CLRR	_GV_SetDaySingleDig
                                           ;	.line	809; "123.c"	GV_SetDayTenDig++;
000a62   6648     incr    0x48             	INCR	_GV_SetDayTenDig
                                           _00343_DS_
                                           ;	.line	811; "123.c"	if((GV_SetDaySingleDig == 0)&&(GV_SetDayTenDig >= 3))
000a63   3c00     movai   0                	MOVAI	0x00
000a64   5c47     orar    0x47             	ORAR	_GV_SetDaySingleDig
000a65   e587     jbset   0x187, 0x2       	JBSET	PFLAG,2
000a66   aad7     goto    0xad7            	GOTO	_00407_DS_
                                           ;;unsigned compare: left < lit(0x3=3), size=1
000a67   3c03     movai   0x3              	MOVAI	0x03
000a68   4848     rsubar  0x48             	RSUBAR	_GV_SetDayTenDig
000a69   e187     jbset   0x187, 0         	JBSET	PFLAG,0
000a6a   aad7     goto    0xad7            	GOTO	_00407_DS_
                                           ;;genSkipc:3195: created from rifx:00DE608C
                                           ;	.line	813; "123.c"	GV_SetDaySingleDig = 1;
000a6b   3c01     movai   0x1              	MOVAI	0x01
000a6c   5647     movra   0x47             	MOVRA	_GV_SetDaySingleDig
                                           ;	.line	814; "123.c"	GV_SetDayTenDig = 0;
000a6d   7648     clrr    0x48             	CLRR	_GV_SetDayTenDig
000a6e   aad7     goto    0xad7            	GOTO	_00407_DS_
                                           ;;unsigned compare: left < lit(0xA=10), size=1
                                           _00353_DS_
                                           ;	.line	819; "123.c"	if(GV_SetDaySingleDig >= 10)
000a6f   3c0a     movai   0xa              	MOVAI	0x0a
000a70   4847     rsubar  0x47             	RSUBAR	_GV_SetDaySingleDig
000a71   e187     jbset   0x187, 0         	JBSET	PFLAG,0
000a72   aa75     goto    0xa75            	GOTO	_00348_DS_
                                           ;;genSkipc:3195: created from rifx:00DE608C
                                           ;	.line	821; "123.c"	GV_SetDaySingleDig = 0;
000a73   7647     clrr    0x47             	CLRR	_GV_SetDaySingleDig
                                           ;	.line	822; "123.c"	GV_SetDayTenDig++;
000a74   6648     incr    0x48             	INCR	_GV_SetDayTenDig
                                           ;;unsigned compare: left < lit(0x9=9), size=1
                                           _00348_DS_
                                           ;	.line	824; "123.c"	if((GV_SetDaySingleDig >= 9)&&(GV_SetDayTenDig >= 2))
000a75   3c09     movai   0x9              	MOVAI	0x09
000a76   4847     rsubar  0x47             	RSUBAR	_GV_SetDaySingleDig
000a77   e187     jbset   0x187, 0         	JBSET	PFLAG,0
000a78   aad7     goto    0xad7            	GOTO	_00407_DS_
                                           ;;genSkipc:3195: created from rifx:00DE608C
                                           ;;unsigned compare: left < lit(0x2=2), size=1
000a79   3c02     movai   0x2              	MOVAI	0x02
000a7a   4848     rsubar  0x48             	RSUBAR	_GV_SetDayTenDig
000a7b   e187     jbset   0x187, 0         	JBSET	PFLAG,0
000a7c   aad7     goto    0xad7            	GOTO	_00407_DS_
                                           ;;genSkipc:3195: created from rifx:00DE608C
                                           ;	.line	826; "123.c"	GV_SetDaySingleDig = 1;
000a7d   3c01     movai   0x1              	MOVAI	0x01
000a7e   5647     movra   0x47             	MOVRA	_GV_SetDaySingleDig
                                           ;	.line	827; "123.c"	GV_SetDayTenDig = 0;
000a7f   7648     clrr    0x48             	CLRR	_GV_SetDayTenDig
000a80   aad7     goto    0xad7            	GOTO	_00407_DS_
                                           _00366_DS_
                                           ;	.line	831; "123.c"	else if((LV_TempMonth==4)||(LV_TempMonth==6)||(LV_TempMonth==9)||(LV_TempMonth==11))
000a81   580c     movar   0xc              	MOVAR	r0x1051
000a82   3904     xorai   0x4              	XORAI	0x04
000a83   e587     jbset   0x187, 0x2       	JBSET	PFLAG,2
000a84   aa86     goto    0xa86            	GOTO	_00513_DS_
000a85   aa94     goto    0xa94            	GOTO	_00360_DS_
                                           _00513_DS_
000a86   580c     movar   0xc              	MOVAR	r0x1051
000a87   3906     xorai   0x6              	XORAI	0x06
000a88   e587     jbset   0x187, 0x2       	JBSET	PFLAG,2
000a89   aa8b     goto    0xa8b            	GOTO	_00514_DS_
000a8a   aa94     goto    0xa94            	GOTO	_00360_DS_
                                           _00514_DS_
000a8b   580c     movar   0xc              	MOVAR	r0x1051
000a8c   3909     xorai   0x9              	XORAI	0x09
000a8d   e587     jbset   0x187, 0x2       	JBSET	PFLAG,2
000a8e   aa90     goto    0xa90            	GOTO	_00515_DS_
000a8f   aa94     goto    0xa94            	GOTO	_00360_DS_
                                           _00515_DS_
000a90   580c     movar   0xc              	MOVAR	r0x1051
000a91   390b     xorai   0xb              	XORAI	0x0b
000a92   e587     jbset   0x187, 0x2       	JBSET	PFLAG,2
000a93   aad7     goto    0xad7            	GOTO	_00407_DS_
                                           ;;unsigned compare: left < lit(0xA=10), size=1
                                           _00360_DS_
                                           ;	.line	833; "123.c"	if(GV_SetDaySingleDig >= 10)
000a94   3c0a     movai   0xa              	MOVAI	0x0a
000a95   4847     rsubar  0x47             	RSUBAR	_GV_SetDaySingleDig
000a96   e187     jbset   0x187, 0         	JBSET	PFLAG,0
000a97   aa9a     goto    0xa9a            	GOTO	_00356_DS_
                                           ;;genSkipc:3195: created from rifx:00DE608C
                                           ;	.line	835; "123.c"	GV_SetDaySingleDig = 0;
000a98   7647     clrr    0x47             	CLRR	_GV_SetDaySingleDig
                                           ;	.line	836; "123.c"	GV_SetDayTenDig++;
000a99   6648     incr    0x48             	INCR	_GV_SetDayTenDig
                                           ;;unsigned compare: left < lit(0x1=1), size=1
                                           _00356_DS_
                                           ;	.line	838; "123.c"	if((GV_SetDaySingleDig >= 1)&&(GV_SetDayTenDig >= 3))
000a9a   3c01     movai   0x1              	MOVAI	0x01
000a9b   4847     rsubar  0x47             	RSUBAR	_GV_SetDaySingleDig
000a9c   e187     jbset   0x187, 0         	JBSET	PFLAG,0
000a9d   aad7     goto    0xad7            	GOTO	_00407_DS_
                                           ;;genSkipc:3195: created from rifx:00DE608C
                                           ;;unsigned compare: left < lit(0x3=3), size=1
000a9e   3c03     movai   0x3              	MOVAI	0x03
000a9f   4848     rsubar  0x48             	RSUBAR	_GV_SetDayTenDig
000aa0   e187     jbset   0x187, 0         	JBSET	PFLAG,0
000aa1   aad7     goto    0xad7            	GOTO	_00407_DS_
                                           ;;genSkipc:3195: created from rifx:00DE608C
                                           ;	.line	840; "123.c"	GV_SetDaySingleDig = 1;
000aa2   3c01     movai   0x1              	MOVAI	0x01
000aa3   5647     movra   0x47             	MOVRA	_GV_SetDaySingleDig
                                           ;	.line	841; "123.c"	GV_SetDayTenDig = 0;
000aa4   7648     clrr    0x48             	CLRR	_GV_SetDayTenDig
000aa5   aad7     goto    0xad7            	GOTO	_00407_DS_
                                           _00399_DS_
                                           ;	.line	850; "123.c"	else if(GV_RealTimeClockSetStep==3)
000aa6   5835     movar   0x35             	MOVAR	_GV_RealTimeClockSetStep
000aa7   3903     xorai   0x3              	XORAI	0x03
000aa8   e587     jbset   0x187, 0x2       	JBSET	PFLAG,2
000aa9   aac2     goto    0xac2            	GOTO	_00396_DS_
                                           ;	.line	852; "123.c"	GV_SetRealTimeClockHrSingleDig++;
000aaa   664b     incr    0x4b             	INCR	_GV_SetRealTimeClockHrSingleDig
                                           ;;unsigned compare: left < lit(0xA=10), size=1
                                           ;	.line	853; "123.c"	if(GV_SetRealTimeClockHrSingleDig >= 10)
000aab   3c0a     movai   0xa              	MOVAI	0x0a
000aac   484b     rsubar  0x4b             	RSUBAR	_GV_SetRealTimeClockHrSingleDig
000aad   e187     jbset   0x187, 0         	JBSET	PFLAG,0
000aae   aab1     goto    0xab1            	GOTO	_00381_DS_
                                           ;;genSkipc:3195: created from rifx:00DE608C
                                           ;	.line	855; "123.c"	GV_SetRealTimeClockHrSingleDig = 0;
000aaf   764b     clrr    0x4b             	CLRR	_GV_SetRealTimeClockHrSingleDig
                                           ;	.line	856; "123.c"	GV_SetRealTimeClockHrTenDig++;
000ab0   664c     incr    0x4c             	INCR	_GV_SetRealTimeClockHrTenDig
                                           ;;unsigned compare: left < lit(0x3=3), size=1
                                           _00381_DS_
                                           ;	.line	858; "123.c"	if((GV_SetRealTimeClockHrSingleDig >= 3)&&(GV_SetRealTimeClockHrTenDig >= 1))
000ab1   3c03     movai   0x3              	MOVAI	0x03
000ab2   484b     rsubar  0x4b             	RSUBAR	_GV_SetRealTimeClockHrSingleDig
000ab3   e187     jbset   0x187, 0         	JBSET	PFLAG,0
000ab4   aad7     goto    0xad7            	GOTO	_00407_DS_
                                           ;;genSkipc:3195: created from rifx:00DE608C
                                           ;;unsigned compare: left < lit(0x1=1), size=1
000ab5   3c01     movai   0x1              	MOVAI	0x01
000ab6   484c     rsubar  0x4c             	RSUBAR	_GV_SetRealTimeClockHrTenDig
000ab7   e187     jbset   0x187, 0         	JBSET	PFLAG,0
000ab8   aad7     goto    0xad7            	GOTO	_00407_DS_
                                           ;;genSkipc:3195: created from rifx:00DE608C
                                           ;	.line	860; "123.c"	GV_SetRealTimeClockHrSingleDig = 1;
000ab9   3c01     movai   0x1              	MOVAI	0x01
000aba   564b     movra   0x4b             	MOVRA	_GV_SetRealTimeClockHrSingleDig
                                           ;	.line	861; "123.c"	GV_SetRealTimeClockHrTenDig = 0;
000abb   764c     clrr    0x4c             	CLRR	_GV_SetRealTimeClockHrTenDig
                                           ;	.line	862; "123.c"	if(BF_SetRealTimeClockAM_PM)
000abc   e427     jbset   0x27, 0x2        	JBSET	_UserFlag,2
000abd   aac0     goto    0xac0            	GOTO	_00383_DS_
                                           ;	.line	864; "123.c"	BF_SetRealTimeClockAM_PM = 0;
000abe   d427     bclr    0x27, 0x2        	BCLR	_UserFlag,2
000abf   aad7     goto    0xad7            	GOTO	_00407_DS_
                                           _00383_DS_
                                           ;	.line	868; "123.c"	BF_SetRealTimeClockAM_PM = 1;
000ac0   c427     bset    0x27, 0x2        	BSET	_UserFlag,2
000ac1   aad7     goto    0xad7            	GOTO	_00407_DS_
                                           _00396_DS_
                                           ;	.line	872; "123.c"	else if(GV_RealTimeClockSetStep==4)
000ac2   5835     movar   0x35             	MOVAR	_GV_RealTimeClockSetStep
000ac3   3904     xorai   0x4              	XORAI	0x04
000ac4   e587     jbset   0x187, 0x2       	JBSET	PFLAG,2
000ac5   aad7     goto    0xad7            	GOTO	_00407_DS_
                                           ;	.line	874; "123.c"	GV_SetRealTimeClockMinSingleDig++;
000ac6   664d     incr    0x4d             	INCR	_GV_SetRealTimeClockMinSingleDig
                                           ;;unsigned compare: left < lit(0xA=10), size=1
                                           ;	.line	875; "123.c"	if(GV_SetRealTimeClockMinSingleDig >= 10)
000ac7   3c0a     movai   0xa              	MOVAI	0x0a
000ac8   484d     rsubar  0x4d             	RSUBAR	_GV_SetRealTimeClockMinSingleDig
000ac9   e187     jbset   0x187, 0         	JBSET	PFLAG,0
000aca   aacd     goto    0xacd            	GOTO	_00389_DS_
                                           ;;genSkipc:3195: created from rifx:00DE608C
                                           ;	.line	877; "123.c"	GV_SetRealTimeClockMinSingleDig = 0;
000acb   764d     clrr    0x4d             	CLRR	_GV_SetRealTimeClockMinSingleDig
                                           ;	.line	878; "123.c"	GV_SetRealTimeClockMinTenDig++;
000acc   664e     incr    0x4e             	INCR	_GV_SetRealTimeClockMinTenDig
                                           _00389_DS_
                                           ;	.line	880; "123.c"	if((GV_SetRealTimeClockMinSingleDig == 0)&&(GV_SetRealTimeClockMinTenDig >= 6))
000acd   3c00     movai   0                	MOVAI	0x00
000ace   5c4d     orar    0x4d             	ORAR	_GV_SetRealTimeClockMinSingleDig
000acf   e587     jbset   0x187, 0x2       	JBSET	PFLAG,2
000ad0   aad7     goto    0xad7            	GOTO	_00407_DS_
                                           ;;unsigned compare: left < lit(0x6=6), size=1
000ad1   3c06     movai   0x6              	MOVAI	0x06
000ad2   484e     rsubar  0x4e             	RSUBAR	_GV_SetRealTimeClockMinTenDig
000ad3   e187     jbset   0x187, 0         	JBSET	PFLAG,0
000ad4   aad7     goto    0xad7            	GOTO	_00407_DS_
                                           ;;genSkipc:3195: created from rifx:00DE608C
                                           ;	.line	882; "123.c"	GV_SetRealTimeClockMinSingleDig = 0;
000ad5   764d     clrr    0x4d             	CLRR	_GV_SetRealTimeClockMinSingleDig
                                           ;	.line	883; "123.c"	GV_SetRealTimeClockMinTenDig = 0;
000ad6   764e     clrr    0x4e             	CLRR	_GV_SetRealTimeClockMinTenDig
                                           _00407_DS_
000ad7   000c     return                   	RETURN	
                                           ; exit point of _Sub_RealTimeClockAdd
                                           
                                           ;***
                                           ;  pBlock Stats: dbName = C
                                           ;***
                                           ;entry:  _Sub_Up_AlShortLongKeyAlarmSet	;Function start
                                           ; 2 exit points
                                           ;has an exit
                                           ;functions called:
                                           ;   _Sub_SetAlarmAddTimer
                                           ;   _Sub_SetAlarmAddTimer
                                           ;   _Sub_SetAlarmAddTimer
                                           ;   _Sub_SetAlarmAddTimer
                                           ;2 compiler assigned registers:
                                           ;   r0x1050
                                           ;   r0x1051
                                           ;; Starting pCode block
                                           _Sub_Up_AlShortLongKeyAlarmSet	;Function start
                                           ; 2 exit points
                                           ;	.line	690; "123.c"	if(GV_AlarmClockSetStep==0)
000ad8   3c00     movai   0                	MOVAI	0x00
000ad9   5c36     orar    0x36             	ORAR	_GV_AlarmClockSetStep
000ada   e587     jbset   0x187, 0x2       	JBSET	PFLAG,2
000adb   aaec     goto    0xaec            	GOTO	_00304_DS_
                                           ;	.line	692; "123.c"	BF_SetAlarmOnOff = !BF_SetAlarmOnOff;//0 = Set alarm off; 1 = Set alarm on
000adc   760b     clrr    0xb              	CLRR	r0x1050
000add   fa28     jbclr   0x28, 0x5        	JBCLR	_UserFlag1,5
000ade   660b     incr    0xb              	INCR	r0x1050
000adf   580b     movar   0xb              	MOVAR	r0x1050
000ae0   3c00     movai   0                	MOVAI	0x00
000ae1   f587     jbclr   0x187, 0x2       	JBCLR	PFLAG,2
000ae2   3c01     movai   0x1              	MOVAI	0x01
000ae3   560b     movra   0xb              	MOVRA	r0x1050
                                           ;;1	MOVRA	r0x1051
                                           ;;99	MOVAR	r0x1051
000ae4   4c0b     rrar    0xb              	RRAR	r0x1050
000ae5   e187     jbset   0x187, 0         	JBSET	PFLAG,0
000ae6   da28     bclr    0x28, 0x5        	BCLR	_UserFlag1,5
000ae7   f187     jbclr   0x187, 0         	JBCLR	PFLAG,0
000ae8   ca28     bset    0x28, 0x5        	BSET	_UserFlag1,5
                                           ;	.line	693; "123.c"	GV_PreKey = GV_CurKey;
000ae9   5833     movar   0x33             	MOVAR	_GV_CurKey
000aea   5632     movra   0x32             	MOVRA	_GV_PreKey
000aeb   ab18     goto    0xb18            	GOTO	_00306_DS_
                                           _00304_DS_
                                           ;	.line	695; "123.c"	else if(GV_AlarmClockSetStep==1)
000aec   5836     movar   0x36             	MOVAR	_GV_AlarmClockSetStep
000aed   3901     xorai   0x1              	XORAI	0x01
000aee   e587     jbset   0x187, 0x2       	JBSET	PFLAG,2
000aef   aaf1     goto    0xaf1            	GOTO	_00320_DS_
000af0   ab18     goto    0xb18            	GOTO	_00306_DS_
                                           _00320_DS_
                                           ;	.line	699; "123.c"	else if(GV_AlarmClockSetStep==2)
000af1   5836     movar   0x36             	MOVAR	_GV_AlarmClockSetStep
000af2   3902     xorai   0x2              	XORAI	0x02
000af3   e587     jbset   0x187, 0x2       	JBSET	PFLAG,2
000af4   ab18     goto    0xb18            	GOTO	_00306_DS_
                                           ;	.line	701; "123.c"	BF_Up_AlKeyPressesd = 1;
000af5   c827     bset    0x27, 0x4        	BSET	_UserFlag,4
                                           ;	.line	702; "123.c"	if(BF_Up_AlLongKeyPressesd)//
000af6   ea27     jbset   0x27, 0x5        	JBSET	_UserFlag,5
000af7   ab08     goto    0xb08            	GOTO	_00296_DS_
                                           ;	.line	704; "123.c"	if(++GV_LongKeyTimer < 125) return;//125*2ms=250ms
000af8   6621     incr    0x21             	INCR	_GV_LongKeyTimer
000af9   f587     jbclr   0x187, 0x2       	JBCLR	PFLAG,2
000afa   6622     incr    0x22             	INCR	(_GV_LongKeyTimer + 1)
                                           ;;unsigned compare: left < lit(0x7D=125), size=2
000afb   3c00     movai   0                	MOVAI	0x00
000afc   4822     rsubar  0x22             	RSUBAR	(_GV_LongKeyTimer + 1)
000afd   e587     jbset   0x187, 0x2       	JBSET	PFLAG,2
000afe   ab01     goto    0xb01            	GOTO	_00321_DS_
000aff   3c7d     movai   0x7d             	MOVAI	0x7d
000b00   4821     rsubar  0x21             	RSUBAR	_GV_LongKeyTimer
                                           _00321_DS_
000b01   f187     jbclr   0x187, 0         	JBCLR	PFLAG,0
000b02   ab04     goto    0xb04            	GOTO	_00292_DS_
                                           ;;genSkipc:3195: created from rifx:00DE608C
000b03   ab18     goto    0xb18            	GOTO	_00306_DS_
                                           _00292_DS_
                                           ;	.line	706; "123.c"	GV_LongKeyTimer = 0;
000b04   7621     clrr    0x21             	CLRR	_GV_LongKeyTimer
000b05   7622     clrr    0x22             	CLRR	(_GV_LongKeyTimer + 1)
                                           ;	.line	707; "123.c"	Sub_SetAlarmAddTimer();
000b06   8b19     call    0xb19            	CALL	_Sub_SetAlarmAddTimer
000b07   ab18     goto    0xb18            	GOTO	_00306_DS_
                                           _00296_DS_
                                           ;	.line	712; "123.c"	if(++GV_LongKeyTimer < 500) return;//500*2ms=1s
000b08   6621     incr    0x21             	INCR	_GV_LongKeyTimer
000b09   f587     jbclr   0x187, 0x2       	JBCLR	PFLAG,2
000b0a   6622     incr    0x22             	INCR	(_GV_LongKeyTimer + 1)
                                           ;;unsigned compare: left < lit(0x1F4=500), size=2
000b0b   3c01     movai   0x1              	MOVAI	0x01
000b0c   4822     rsubar  0x22             	RSUBAR	(_GV_LongKeyTimer + 1)
000b0d   e587     jbset   0x187, 0x2       	JBSET	PFLAG,2
000b0e   ab11     goto    0xb11            	GOTO	_00322_DS_
000b0f   3cf4     movai   0xf4             	MOVAI	0xf4
000b10   4821     rsubar  0x21             	RSUBAR	_GV_LongKeyTimer
                                           _00322_DS_
000b11   f187     jbclr   0x187, 0         	JBCLR	PFLAG,0
000b12   ab14     goto    0xb14            	GOTO	_00294_DS_
                                           ;;genSkipc:3195: created from rifx:00DE608C
000b13   ab18     goto    0xb18            	GOTO	_00306_DS_
                                           _00294_DS_
                                           ;	.line	714; "123.c"	GV_LongKeyTimer = 0;
000b14   7621     clrr    0x21             	CLRR	_GV_LongKeyTimer
000b15   7622     clrr    0x22             	CLRR	(_GV_LongKeyTimer + 1)
                                           ;	.line	715; "123.c"	BF_Up_AlLongKeyPressesd = 1;
000b16   ca27     bset    0x27, 0x5        	BSET	_UserFlag,5
                                           ;	.line	716; "123.c"	Sub_SetAlarmAddTimer();
000b17   8b19     call    0xb19            	CALL	_Sub_SetAlarmAddTimer
                                           _00306_DS_
000b18   000c     return                   	RETURN	
                                           ; exit point of _Sub_Up_AlShortLongKeyAlarmSet
                                           
                                           ;***
                                           ;  pBlock Stats: dbName = C
                                           ;***
                                           ;entry:  _Sub_SetAlarmAddTimer	;Function start
                                           ; 2 exit points
                                           ;has an exit
                                           ;; Starting pCode block
                                           _Sub_SetAlarmAddTimer	;Function start
                                           ; 2 exit points
                                           ;	.line	630; "123.c"	if(GV_AlarmClockSetStep==0)
000b19   3c00     movai   0                	MOVAI	0x00
000b1a   5c36     orar    0x36             	ORAR	_GV_AlarmClockSetStep
000b1b   f587     jbclr   0x187, 0x2       	JBCLR	PFLAG,2
000b1c   ab4e     goto    0xb4e            	GOTO	_00286_DS_
                                           ;	.line	634; "123.c"	else if(GV_AlarmClockSetStep==1)
000b1d   5836     movar   0x36             	MOVAR	_GV_AlarmClockSetStep
000b1e   3901     xorai   0x1              	XORAI	0x01
000b1f   e587     jbset   0x187, 0x2       	JBSET	PFLAG,2
000b20   ab39     goto    0xb39            	GOTO	_00281_DS_
                                           ;	.line	636; "123.c"	if(++GV_SetAlarmClockHrSingleDig >= 10)
000b21   6653     incr    0x53             	INCR	_GV_SetAlarmClockHrSingleDig
                                           ;;unsigned compare: left < lit(0xA=10), size=1
000b22   3c0a     movai   0xa              	MOVAI	0x0a
000b23   4853     rsubar  0x53             	RSUBAR	_GV_SetAlarmClockHrSingleDig
000b24   e187     jbset   0x187, 0         	JBSET	PFLAG,0
000b25   ab28     goto    0xb28            	GOTO	_00266_DS_
                                           ;;genSkipc:3195: created from rifx:00DE608C
                                           ;	.line	638; "123.c"	GV_SetAlarmClockHrSingleDig = 0;
000b26   7653     clrr    0x53             	CLRR	_GV_SetAlarmClockHrSingleDig
                                           ;	.line	639; "123.c"	GV_SetAlarmClockHrTenDig++;
000b27   6654     incr    0x54             	INCR	_GV_SetAlarmClockHrTenDig
                                           ;;unsigned compare: left < lit(0x3=3), size=1
                                           _00266_DS_
                                           ;	.line	641; "123.c"	if((GV_SetAlarmClockHrSingleDig >= 3)&&(GV_SetAlarmClockHrTenDig >= 1))
000b28   3c03     movai   0x3              	MOVAI	0x03
000b29   4853     rsubar  0x53             	RSUBAR	_GV_SetAlarmClockHrSingleDig
000b2a   e187     jbset   0x187, 0         	JBSET	PFLAG,0
000b2b   ab4e     goto    0xb4e            	GOTO	_00286_DS_
                                           ;;genSkipc:3195: created from rifx:00DE608C
                                           ;;unsigned compare: left < lit(0x1=1), size=1
000b2c   3c01     movai   0x1              	MOVAI	0x01
000b2d   4854     rsubar  0x54             	RSUBAR	_GV_SetAlarmClockHrTenDig
000b2e   e187     jbset   0x187, 0         	JBSET	PFLAG,0
000b2f   ab4e     goto    0xb4e            	GOTO	_00286_DS_
                                           ;;genSkipc:3195: created from rifx:00DE608C
                                           ;	.line	643; "123.c"	if(BF_SetAlarmAM_PM)
000b30   e428     jbset   0x28, 0x2        	JBSET	_UserFlag1,2
000b31   ab34     goto    0xb34            	GOTO	_00268_DS_
                                           ;	.line	645; "123.c"	BF_SetAlarmAM_PM = 0;
000b32   d428     bclr    0x28, 0x2        	BCLR	_UserFlag1,2
000b33   ab35     goto    0xb35            	GOTO	_00269_DS_
                                           _00268_DS_
                                           ;	.line	649; "123.c"	BF_SetAlarmAM_PM = 1;
000b34   c428     bset    0x28, 0x2        	BSET	_UserFlag1,2
                                           _00269_DS_
                                           ;	.line	652; "123.c"	GV_SetAlarmClockHrTenDig = 0x00;
000b35   7654     clrr    0x54             	CLRR	_GV_SetAlarmClockHrTenDig
                                           ;	.line	653; "123.c"	GV_SetAlarmClockHrSingleDig = 0x01;
000b36   3c01     movai   0x1              	MOVAI	0x01
000b37   5653     movra   0x53             	MOVRA	_GV_SetAlarmClockHrSingleDig
000b38   ab4e     goto    0xb4e            	GOTO	_00286_DS_
                                           _00281_DS_
                                           ;	.line	656; "123.c"	else if(GV_AlarmClockSetStep==2)
000b39   5836     movar   0x36             	MOVAR	_GV_AlarmClockSetStep
000b3a   3902     xorai   0x2              	XORAI	0x02
000b3b   e587     jbset   0x187, 0x2       	JBSET	PFLAG,2
000b3c   ab4e     goto    0xb4e            	GOTO	_00286_DS_
                                           ;	.line	658; "123.c"	if(++GV_SetAlarmClockMinSingleDig >= 10)
000b3d   6655     incr    0x55             	INCR	_GV_SetAlarmClockMinSingleDig
                                           ;;unsigned compare: left < lit(0xA=10), size=1
000b3e   3c0a     movai   0xa              	MOVAI	0x0a
000b3f   4855     rsubar  0x55             	RSUBAR	_GV_SetAlarmClockMinSingleDig
000b40   e187     jbset   0x187, 0         	JBSET	PFLAG,0
000b41   ab44     goto    0xb44            	GOTO	_00274_DS_
                                           ;;genSkipc:3195: created from rifx:00DE608C
                                           ;	.line	660; "123.c"	GV_SetAlarmClockMinSingleDig = 0;
000b42   7655     clrr    0x55             	CLRR	_GV_SetAlarmClockMinSingleDig
                                           ;	.line	661; "123.c"	GV_SetAlarmClockMinTenDig++;
000b43   6656     incr    0x56             	INCR	_GV_SetAlarmClockMinTenDig
                                           _00274_DS_
                                           ;	.line	663; "123.c"	if((GV_SetAlarmClockMinSingleDig == 0)&&(GV_SetAlarmClockMinTenDig >= 6))
000b44   3c00     movai   0                	MOVAI	0x00
000b45   5c55     orar    0x55             	ORAR	_GV_SetAlarmClockMinSingleDig
000b46   e587     jbset   0x187, 0x2       	JBSET	PFLAG,2
000b47   ab4e     goto    0xb4e            	GOTO	_00286_DS_
                                           ;;unsigned compare: left < lit(0x6=6), size=1
000b48   3c06     movai   0x6              	MOVAI	0x06
000b49   4856     rsubar  0x56             	RSUBAR	_GV_SetAlarmClockMinTenDig
000b4a   e187     jbset   0x187, 0         	JBSET	PFLAG,0
000b4b   ab4e     goto    0xb4e            	GOTO	_00286_DS_
                                           ;;genSkipc:3195: created from rifx:00DE608C
                                           ;	.line	665; "123.c"	GV_SetAlarmClockMinSingleDig = 0;
000b4c   7655     clrr    0x55             	CLRR	_GV_SetAlarmClockMinSingleDig
                                           ;	.line	666; "123.c"	GV_SetAlarmClockMinTenDig = 0;
000b4d   7656     clrr    0x56             	CLRR	_GV_SetAlarmClockMinTenDig
                                           _00286_DS_
000b4e   000c     return                   	RETURN	
                                           ; exit point of _Sub_SetAlarmAddTimer
                                           
                                           ;***
                                           ;  pBlock Stats: dbName = C
                                           ;***
                                           ;entry:  _Sub_Up_AlLongKeyGetAlarmSetMode	;Function start
                                           ; 2 exit points
                                           ;has an exit
                                           ;2 compiler assigned registers:
                                           ;   r0x1050
                                           ;   r0x1051
                                           ;; Starting pCode block
                                           _Sub_Up_AlLongKeyGetAlarmSetMode	;Function start
                                           ; 2 exit points
                                           ;	.line	604; "123.c"	if(++GV_LongKeyTimer < 1500) return;//1500*2ms=3s
000b4f   6621     incr    0x21             	INCR	_GV_LongKeyTimer
000b50   f587     jbclr   0x187, 0x2       	JBCLR	PFLAG,2
000b51   6622     incr    0x22             	INCR	(_GV_LongKeyTimer + 1)
                                           ;;unsigned compare: left < lit(0x5DC=1500), size=2
000b52   3c05     movai   0x5              	MOVAI	0x05
000b53   4822     rsubar  0x22             	RSUBAR	(_GV_LongKeyTimer + 1)
000b54   e587     jbset   0x187, 0x2       	JBSET	PFLAG,2
000b55   ab58     goto    0xb58            	GOTO	_00260_DS_
000b56   3cdc     movai   0xdc             	MOVAI	0xdc
000b57   4821     rsubar  0x21             	RSUBAR	_GV_LongKeyTimer
                                           _00260_DS_
000b58   f187     jbclr   0x187, 0         	JBCLR	PFLAG,0
000b59   ab5b     goto    0xb5b            	GOTO	_00255_DS_
                                           ;;genSkipc:3195: created from rifx:00DE608C
000b5a   ab72     goto    0xb72            	GOTO	_00256_DS_
                                           _00255_DS_
                                           ;	.line	605; "123.c"	GV_PreKey = GV_CurKey;
000b5b   5833     movar   0x33             	MOVAR	_GV_CurKey
000b5c   5632     movra   0x32             	MOVRA	_GV_PreKey
                                           ;	.line	607; "123.c"	GV_SetAlarmClockMinSingleDig = GV_RunAlarmClockMinSingleDig;
000b5d   5859     movar   0x59             	MOVAR	_GV_RunAlarmClockMinSingleDig
000b5e   5655     movra   0x55             	MOVRA	_GV_SetAlarmClockMinSingleDig
                                           ;	.line	608; "123.c"	GV_SetAlarmClockMinTenDig = GV_RunAlarmClockMinTenDig;
000b5f   585a     movar   0x5a             	MOVAR	_GV_RunAlarmClockMinTenDig
000b60   5656     movra   0x56             	MOVRA	_GV_SetAlarmClockMinTenDig
                                           ;	.line	610; "123.c"	GV_SetAlarmClockHrSingleDig = GV_RunAlarmClockHrSingleDig;
000b61   5857     movar   0x57             	MOVAR	_GV_RunAlarmClockHrSingleDig
000b62   5653     movra   0x53             	MOVRA	_GV_SetAlarmClockHrSingleDig
                                           ;	.line	611; "123.c"	GV_SetAlarmClockHrTenDig = GV_RunAlarmClockHrTenDig;   	
000b63   5858     movar   0x58             	MOVAR	_GV_RunAlarmClockHrTenDig
000b64   5654     movra   0x54             	MOVRA	_GV_SetAlarmClockHrTenDig
                                           ;	.line	613; "123.c"	BF_SetAlarmOnOff = BF_RunAlarmOnOff;
000b65   760b     clrr    0xb              	CLRR	r0x1050
000b66   fc28     jbclr   0x28, 0x6        	JBCLR	_UserFlag1,6
000b67   660b     incr    0xb              	INCR	r0x1050
000b68   580b     movar   0xb              	MOVAR	r0x1050
000b69   560c     movra   0xc              	MOVRA	r0x1051
000b6a   4c0c     rrar    0xc              	RRAR	r0x1051
000b6b   e187     jbset   0x187, 0         	JBSET	PFLAG,0
000b6c   da28     bclr    0x28, 0x5        	BCLR	_UserFlag1,5
000b6d   f187     jbclr   0x187, 0         	JBCLR	PFLAG,0
000b6e   ca28     bset    0x28, 0x5        	BSET	_UserFlag1,5
                                           ;	.line	614; "123.c"	GV_AlarmClockSetStep = 0;
000b6f   7636     clrr    0x36             	CLRR	_GV_AlarmClockSetStep
                                           ;	.line	615; "123.c"	GV_Mode = 2;//2=Alarm set mode
000b70   3c02     movai   0x2              	MOVAI	0x02
000b71   5634     movra   0x34             	MOVRA	_GV_Mode
                                           _00256_DS_
000b72   000c     return                   	RETURN	
                                           ; exit point of _Sub_Up_AlLongKeyGetAlarmSetMode
                                           
                                           ;***
                                           ;  pBlock Stats: dbName = C
                                           ;***
                                           ;entry:  _Sub_Initial	;Function start
                                           ; 2 exit points
                                           ;has an exit
                                           ;functions called:
                                           ;   _Sub_IoInitial
                                           ;   _Sub_TC2Initial
                                           ;   _Sub_Write1302
                                           ;   _Sub_Write1302
                                           ;   _Sub_Write1302
                                           ;   _Sub_Write1302
                                           ;   _Sub_Write1302
                                           ;   _Sub_Write1302
                                           ;   _Sub_Write1302
                                           ;   _Sub_Write1302
                                           ;   _Sub_PT6964PowerOnAllDisp2s
                                           ;   _Sub_IoInitial
                                           ;   _Sub_TC2Initial
                                           ;   _Sub_Write1302
                                           ;   _Sub_Write1302
                                           ;   _Sub_Write1302
                                           ;   _Sub_Write1302
                                           ;   _Sub_Write1302
                                           ;   _Sub_Write1302
                                           ;   _Sub_Write1302
                                           ;   _Sub_Write1302
                                           ;   _Sub_PT6964PowerOnAllDisp2s
                                           ;1 compiler assigned register :
                                           ;   STK00
                                           ;; Starting pCode block
                                           _Sub_Initial	;Function start
                                           ; 2 exit points
                                           ;	.line	537; "123.c"	Sub_IoInitial();
000b73   8bd5     call    0xbd5            	CALL	_Sub_IoInitial
                                           ;	.line	539; "123.c"	Sub_TC2Initial();
000b74   8bb3     call    0xbb3            	CALL	_Sub_TC2Initial
                                           ;	.line	542; "123.c"	GIE = 1;  //FGIE = 1;  //Enable interrupt
000b75   cf88     bset    0x188, 0x7       	BSET	_MCRbits,7
                                           ;	.line	544; "123.c"	Sub_Write1302(C_DS1302_WriteProtect,C_DS1302_DisableWriteProtect); //Disable write protect
000b76   3c00     movai   0                	MOVAI	0x00
000b77   5606     movra   0x6              	MOVRA	STK00
000b78   3c8e     movai   0x8e             	MOVAI	0x8e
000b79   8c22     call    0xc22            	CALL	_Sub_Write1302
                                           ;	.line	545; "123.c"	Sub_Write1302(C_DS1302_Second,0x00);
000b7a   3c00     movai   0                	MOVAI	0x00
000b7b   5606     movra   0x6              	MOVRA	STK00
000b7c   3c80     movai   0x80             	MOVAI	0x80
000b7d   8c22     call    0xc22            	CALL	_Sub_Write1302
                                           ;	.line	546; "123.c"	Sub_Write1302(C_DS1302_Minute,0x00);   	
000b7e   3c00     movai   0                	MOVAI	0x00
000b7f   5606     movra   0x6              	MOVRA	STK00
000b80   3c82     movai   0x82             	MOVAI	0x82
000b81   8c22     call    0xc22            	CALL	_Sub_Write1302
                                           ;	.line	547; "123.c"	Sub_Write1302(C_DS1302_Hour,C_DS1302_AM12HrData);//(RTCBit7=024Bit7=11212Bit50=AM1=PM)	
000b82   3c92     movai   0x92             	MOVAI	0x92
000b83   5606     movra   0x6              	MOVRA	STK00
000b84   3c84     movai   0x84             	MOVAI	0x84
000b85   8c22     call    0xc22            	CALL	_Sub_Write1302
                                           ;	.line	548; "123.c"	Sub_Write1302(C_DS1302_Day,0x01);  	   	
000b86   3c01     movai   0x1              	MOVAI	0x01
000b87   5606     movra   0x6              	MOVRA	STK00
000b88   3c86     movai   0x86             	MOVAI	0x86
000b89   8c22     call    0xc22            	CALL	_Sub_Write1302
                                           ;	.line	549; "123.c"	Sub_Write1302(C_DS1302_Month,0x01);	   	   	
000b8a   3c01     movai   0x1              	MOVAI	0x01
000b8b   5606     movra   0x6              	MOVRA	STK00
000b8c   3c88     movai   0x88             	MOVAI	0x88
000b8d   8c22     call    0xc22            	CALL	_Sub_Write1302
                                           ;	.line	550; "123.c"	Sub_Write1302(C_DS1302_Year,0x00);
000b8e   3c00     movai   0                	MOVAI	0x00
000b8f   5606     movra   0x6              	MOVRA	STK00
000b90   3c8c     movai   0x8c             	MOVAI	0x8c
000b91   8c22     call    0xc22            	CALL	_Sub_Write1302
                                           ;	.line	551; "123.c"	Sub_Write1302(C_DS1302_WriteProtect,C_DS1302_EnableWriteProtect); //Enable write protect
000b92   3c80     movai   0x80             	MOVAI	0x80
000b93   5606     movra   0x6              	MOVRA	STK00
000b94   3c8e     movai   0x8e             	MOVAI	0x8e
000b95   8c22     call    0xc22            	CALL	_Sub_Write1302
                                           ;	.line	554; "123.c"	GV_RunAlarmClockHrSingleDig = 2;
000b96   3c02     movai   0x2              	MOVAI	0x02
000b97   5657     movra   0x57             	MOVRA	_GV_RunAlarmClockHrSingleDig
                                           ;	.line	555; "123.c"	GV_RunAlarmClockHrTenDig = 1;
000b98   3c01     movai   0x1              	MOVAI	0x01
000b99   5658     movra   0x58             	MOVRA	_GV_RunAlarmClockHrTenDig
                                           ;	.line	557; "123.c"	BF_SetAlarmAM_PM = 0;
000b9a   d428     bclr    0x28, 0x2        	BCLR	_UserFlag1,2
                                           ;	.line	558; "123.c"	BF_SetAlarmOnOff = 0;
000b9b   da28     bclr    0x28, 0x5        	BCLR	_UserFlag1,5
                                           ;	.line	559; "123.c"	BF_RunAlarmAM_PM = 0;
000b9c   d628     bclr    0x28, 0x3        	BCLR	_UserFlag1,3
                                           ;	.line	560; "123.c"	BF_RunAlarmOnOff = 0;
000b9d   dc28     bclr    0x28, 0x6        	BCLR	_UserFlag1,6
                                           ;	.line	562; "123.c"	BF_SetRealTimeClockAM_PM = 0;
000b9e   d427     bclr    0x27, 0x2        	BCLR	_UserFlag,2
                                           ;	.line	565; "123.c"	GV_200msClock = 100;
000b9f   3c64     movai   0x64             	MOVAI	0x64
000ba0   562c     movra   0x2c             	MOVRA	_GV_200msClock
                                           _00246_DS_
                                           ;	.line	566; "123.c"	while(GV_200msClock)
000ba1   3c00     movai   0                	MOVAI	0x00
000ba2   5c2c     orar    0x2c             	ORAR	_GV_200msClock
000ba3   f587     jbclr   0x187, 0x2       	JBCLR	PFLAG,2
000ba4   abb2     goto    0xbb2            	GOTO	_00249_DS_
                                           ;	.line	568; "123.c"	ClrWdt();   //(feed the doggie )
000ba5   000e     clrwdt                   	clrwdt
                                           ;	.line	569; "123.c"	if(BF_TccClock2ms)  //
000ba6   e027     jbset   0x27, 0          	JBSET	_UserFlag,0
000ba7   aba1     goto    0xba1            	GOTO	_00246_DS_
                                           ;	.line	571; "123.c"	BF_TccClock2ms = 0;
000ba8   d027     bclr    0x27, 0          	BCLR	_UserFlag,0
                                           ;	.line	572; "123.c"	if(++GV_10msClock>=5)
000ba9   662a     incr    0x2a             	INCR	_GV_10msClock
                                           ;;unsigned compare: left < lit(0x5=5), size=1
000baa   3c05     movai   0x5              	MOVAI	0x05
000bab   482a     rsubar  0x2a             	RSUBAR	_GV_10msClock
000bac   e187     jbset   0x187, 0         	JBSET	PFLAG,0
000bad   aba1     goto    0xba1            	GOTO	_00246_DS_
                                           ;;genSkipc:3195: created from rifx:00DE608C
                                           ;	.line	574; "123.c"	GV_10msClock = 0;
000bae   762a     clrr    0x2a             	CLRR	_GV_10msClock
                                           ;	.line	575; "123.c"	Sub_PT6964PowerOnAllDisp2s();
000baf   807f     call    0x7f             	CALL	_Sub_PT6964PowerOnAllDisp2s
                                           ;	.line	576; "123.c"	GV_200msClock--;
000bb0   6e2c     decr    0x2c             	DECR	_GV_200msClock
000bb1   aba1     goto    0xba1            	GOTO	_00246_DS_
                                           _00249_DS_
000bb2   000c     return                   	RETURN	
                                           ; exit point of _Sub_Initial
                                           
                                           ;***
                                           ;  pBlock Stats: dbName = C
                                           ;***
                                           ;entry:  _Sub_TC2Initial	;Function start
                                           ; 2 exit points
                                           ;has an exit
                                           ;; Starting pCode block
                                           _Sub_TC2Initial	;Function start
                                           ; 2 exit points
                                           ;	.line	513; "123.c"	T0IE=0;//FTC2IEN = 0;      	// Disable TC2 interrupt service
000bb3   d18a     bclr    0x18a, 0         	BCLR	_INTEbits,0
                                           ;	.line	514; "123.c"	TC0EN=0;//FTC2ENB = 0;     	// Disable TC2 timer
000bb4   dfa0     bclr    0x1a0, 0x7       	BCLR	_T0CRbits,7
                                           ;	.line	515; "123.c"	T0CR=0x0a;//TC2M = 0x34;   	// Set TC2 clock = Foscu / 4
000bb5   3c0a     movai   0xa              	MOVAI	0x0a
000bb6   57a0     movra   0x1a0            	MOVRA	_T0CR
                                           ;	.line	516; "123.c"	T0LOAD=0x8b;//TC2R = 0x8B;     	// 0x8B;Set TC2 interval = 125us
000bb7   3c8b     movai   0x8b             	MOVAI	0x8b
000bb8   57a2     movra   0x1a2            	MOVRA	_T0LOAD
                                           ;	.line	517; "123.c"	T0IE=1;//FTC2IEN = 1;      	// Enable TC2 interrupt service
000bb9   c18a     bset    0x18a, 0         	BSET	_INTEbits,0
                                           ;	.line	518; "123.c"	T0IF=0;//FTC2IRQ = 0;      	// Clear TC2 interrupt request flag
000bba   d18b     bclr    0x18b, 0         	BCLR	_INTFbits,0
                                           ;	.line	519; "123.c"	TC0EN=1;//FTC2ENB = 1;     	// Enable TC2 timer
000bbb   cfa0     bset    0x1a0, 0x7       	BSET	_T0CRbits,7
000bbc   000c     return                   	RETURN	
                                           ; exit point of _Sub_TC2Initial
                                           
                                           ;***
                                           ;  pBlock Stats: dbName = C
                                           ;***
                                           ;entry:  _Sub_LoopDelay	;Function start
                                           ; 2 exit points
                                           ;has an exit
                                           ;; Starting pCode block
                                           _Sub_LoopDelay	;Function start
                                           ; 2 exit points
                                           ;	.line	480; "123.c"	LV_Temp=0;
000bbd   7625     clrr    0x25             	CLRR	_LV_Temp
000bbe   7626     clrr    0x26             	CLRR	(_LV_Temp + 1)
                                           ;;unsigned compare: left < lit(0x1388=5000), size=2
                                           _00224_DS_
                                           ;	.line	481; "123.c"	while(LV_Temp<5000)
000bbf   3c13     movai   0x13             	MOVAI	0x13
000bc0   4826     rsubar  0x26             	RSUBAR	(_LV_Temp + 1)
000bc1   e587     jbset   0x187, 0x2       	JBSET	PFLAG,2
000bc2   abc5     goto    0xbc5            	GOTO	_00233_DS_
000bc3   3c88     movai   0x88             	MOVAI	0x88
000bc4   4825     rsubar  0x25             	RSUBAR	_LV_Temp
                                           _00233_DS_
000bc5   f187     jbclr   0x187, 0         	JBCLR	PFLAG,0
000bc6   abd4     goto    0xbd4            	GOTO	_00227_DS_
                                           ;;genSkipc:3195: created from rifx:00DE608C
                                           ;	.line	483; "123.c"	Nop();
000bc7   0000     nop                      	nop
                                           ;	.line	484; "123.c"	Nop();
000bc8   0000     nop                      	nop
                                           ;	.line	485; "123.c"	Nop();
000bc9   0000     nop                      	nop
                                           ;	.line	486; "123.c"	Nop();
000bca   0000     nop                      	nop
                                           ;	.line	487; "123.c"	Nop();
000bcb   0000     nop                      	nop
                                           ;	.line	488; "123.c"	Nop();
000bcc   0000     nop                      	nop
                                           ;	.line	489; "123.c"	Nop();
000bcd   0000     nop                      	nop
                                           ;	.line	490; "123.c"	Nop();
000bce   0000     nop                      	nop
                                           ;	.line	492; "123.c"	LV_Temp++;
000bcf   6625     incr    0x25             	INCR	_LV_Temp
000bd0   f587     jbclr   0x187, 0x2       	JBCLR	PFLAG,2
000bd1   6626     incr    0x26             	INCR	(_LV_Temp + 1)
                                           ;	.line	493; "123.c"	ClrWdt();//WDTR = 0x5a;
000bd2   000e     clrwdt                   	clrwdt
000bd3   abbf     goto    0xbbf            	GOTO	_00224_DS_
                                           _00227_DS_
000bd4   000c     return                   	RETURN	
                                           ; exit point of _Sub_LoopDelay
                                           
                                           ;***
                                           ;  pBlock Stats: dbName = C
                                           ;***
                                           ;entry:  _Sub_IoInitial	;Function start
                                           ; 2 exit points
                                           ;has an exit
                                           ;; Starting pCode block
                                           _Sub_IoInitial	;Function start
                                           ; 2 exit points
                                           ;	.line	442; "123.c"	IOP0=0XFF;//P0  = 0xFF; //1111 1111B;  //0=low; 1=high;
000bd5   3cff     movai   0xff             	MOVAI	0xff
000bd6   5790     movra   0x190            	MOVRA	_IOP0
                                           ;	.line	443; "123.c"	OEP0=0X00;//P0M = 0x00; //0000 0000B;  //1=Output,0=input
000bd7   7791     clrr    0x191            	CLRR	_OEP0
                                           ;	.line	444; "123.c"	PUP0=0XFF;//P0UR = 0xFF; //1111 1111B; //1=Enable,0=Disable Pull High
000bd8   3cff     movai   0xff             	MOVAI	0xff
000bd9   5792     movra   0x192            	MOVRA	_PUP0
                                           ;	.line	445; "123.c"	IOP0=0XFF;//P0  = 0xFF; //1111 1111B;  //0=low; 1=high
000bda   3cff     movai   0xff             	MOVAI	0xff
000bdb   5790     movra   0x190            	MOVRA	_IOP0
                                           ;	.line	447; "123.c"	IOP1=0XFF;//P1  = 0xFF; //0000 0000B;  //0=low; 1=high;24c02(FP13:SCL, FP12:SDA = high.)
000bdc   3cff     movai   0xff             	MOVAI	0xff
000bdd   5794     movra   0x194            	MOVRA	_IOP1
                                           ;	.line	448; "123.c"	OEP1=0XBC;//P1M = 0x00; //0000 0000B;  //1=Output,0=input
000bde   3cbc     movai   0xbc             	MOVAI	0xbc
000bdf   5795     movra   0x195            	MOVRA	_OEP1
                                           ;	.line	449; "123.c"	PUP1=0X43;//P1UR = 0xFF;//1111 1111B;  //1=Enable,0=Disable Pull High
000be0   3c43     movai   0x43             	MOVAI	0x43
000be1   5796     movra   0x196            	MOVRA	_PUP1
                                           ;	.line	450; "123.c"	IOP1=0XFF;//P1  = 0xFF; //1111 1111B;  //0=low; 1=high
000be2   3cff     movai   0xff             	MOVAI	0xff
000be3   5794     movra   0x194            	MOVRA	_IOP1
                                           ;	.line	452; "123.c"	IOP2=0XFF;//P4  = 0x1F; //0001 1111B;  //0=low; 1=high;24c02(FP43:SCL, FP42:SDA = high.)
000be4   3cff     movai   0xff             	MOVAI	0xff
000be5   5798     movra   0x198            	MOVRA	_IOP2
                                           ;	.line	453; "123.c"	OEP2=0X0A;//P4M = 0x3F; //0011 1111B;  //1=Output,0=input
000be6   3c0a     movai   0xa              	MOVAI	0x0a
000be7   5799     movra   0x199            	MOVRA	_OEP2
                                           ;	.line	454; "123.c"	PUP2=0XF5;//P4UR = 0xC0;//1100 0000B;  //1=Enable,0=Disable Pull High
000be8   3cf5     movai   0xf5             	MOVAI	0xf5
000be9   579a     movra   0x19a            	MOVRA	_PUP2
                                           ;	.line	455; "123.c"	IOP2=0XFF;//P4  = 0x1F; //0001 1111B;  //0=low; 1=high
000bea   3cff     movai   0xff             	MOVAI	0xff
000beb   5798     movra   0x198            	MOVRA	_IOP2
                                           ;	.line	462; "123.c"	DisableBuzzer();
000bec   d399     bclr    0x199, 0x1       	BCLR	_OEP2bits,1
000bed   000c     return                   	RETURN	
                                           ; exit point of _Sub_IoInitial
                                           
                                           ;***
                                           ;  pBlock Stats: dbName = C
                                           ;***
                                           ;entry:  _Sub_AlarmEvent	;Function start
                                           ; 2 exit points
                                           ;has an exit
                                           ;2 compiler assigned registers:
                                           ;   r0x1058
                                           ;   r0x1059
                                           ;; Starting pCode block
                                           _Sub_AlarmEvent	;Function start
                                           ; 2 exit points
                                           ;	.line	402; "123.c"	BF_BuzzerBBB = 0;
000bee   d828     bclr    0x28, 0x4        	BCLR	_UserFlag1,4
                                           ;	.line	404; "123.c"	if(GV_Mode) return;
000bef   3c00     movai   0                	MOVAI	0x00
000bf0   5c34     orar    0x34             	ORAR	_GV_Mode
000bf1   f587     jbclr   0x187, 0x2       	JBCLR	PFLAG,2
000bf2   abf4     goto    0xbf4            	GOTO	_00178_DS_
000bf3   ac21     goto    0xc21            	GOTO	_00193_DS_
                                           _00178_DS_
                                           ;	.line	405; "123.c"	if(BF_RunAlarmOnOff == 0) return;
000bf4   fc28     jbclr   0x28, 0x6        	JBCLR	_UserFlag1,6
000bf5   abf7     goto    0xbf7            	GOTO	_00180_DS_
000bf6   ac21     goto    0xc21            	GOTO	_00193_DS_
                                           _00180_DS_
                                           ;	.line	406; "123.c"	if(GV_SnoozeTimer) return;
000bf7   3c00     movai   0                	MOVAI	0x00
000bf8   5c5d     orar    0x5d             	ORAR	_GV_SnoozeTimer
000bf9   f587     jbclr   0x187, 0x2       	JBCLR	PFLAG,2
000bfa   abfc     goto    0xbfc            	GOTO	_00182_DS_
000bfb   ac21     goto    0xc21            	GOTO	_00193_DS_
                                           _00182_DS_
                                           ;	.line	407; "123.c"	if(BF_RunRealTimeClockAM_PM != BF_RunAlarmAM_PM) return;
000bfc   760e     clrr    0xe              	CLRR	r0x1058
000bfd   f627     jbclr   0x27, 0x3        	JBCLR	_UserFlag,3
000bfe   660e     incr    0xe              	INCR	r0x1058
000bff   760f     clrr    0xf              	CLRR	r0x1059
000c00   f628     jbclr   0x28, 0x3        	JBCLR	_UserFlag1,3
000c01   660f     incr    0xf              	INCR	r0x1059
000c02   580f     movar   0xf              	MOVAR	r0x1059
000c03   400e     xorar   0xe              	XORAR	r0x1058
000c04   e587     jbset   0x187, 0x2       	JBSET	PFLAG,2
000c05   ac07     goto    0xc07            	GOTO	_00211_DS_
000c06   ac08     goto    0xc08            	GOTO	_00184_DS_
                                           _00211_DS_
000c07   ac21     goto    0xc21            	GOTO	_00193_DS_
                                           _00184_DS_
                                           ;	.line	408; "123.c"	if(GV_RunAlarmClockHrTenDig != GV_RunRealTimeClockHrTenDig) return;
000c08   5850     movar   0x50             	MOVAR	_GV_RunRealTimeClockHrTenDig
000c09   4058     xorar   0x58             	XORAR	_GV_RunAlarmClockHrTenDig
000c0a   e587     jbset   0x187, 0x2       	JBSET	PFLAG,2
000c0b   ac0d     goto    0xc0d            	GOTO	_00212_DS_
000c0c   ac0e     goto    0xc0e            	GOTO	_00186_DS_
                                           _00212_DS_
000c0d   ac21     goto    0xc21            	GOTO	_00193_DS_
                                           _00186_DS_
                                           ;	.line	409; "123.c"	if(GV_RunAlarmClockHrSingleDig != GV_RunRealTimeClockHrSingleDig) return;
000c0e   584f     movar   0x4f             	MOVAR	_GV_RunRealTimeClockHrSingleDig
000c0f   4057     xorar   0x57             	XORAR	_GV_RunAlarmClockHrSingleDig
000c10   e587     jbset   0x187, 0x2       	JBSET	PFLAG,2
000c11   ac13     goto    0xc13            	GOTO	_00213_DS_
000c12   ac14     goto    0xc14            	GOTO	_00188_DS_
                                           _00213_DS_
000c13   ac21     goto    0xc21            	GOTO	_00193_DS_
                                           _00188_DS_
                                           ;	.line	410; "123.c"	if(GV_RunAlarmClockMinTenDig != GV_RunRealTimeClockMinTenDig) return;
000c14   5852     movar   0x52             	MOVAR	_GV_RunRealTimeClockMinTenDig
000c15   405a     xorar   0x5a             	XORAR	_GV_RunAlarmClockMinTenDig
000c16   e587     jbset   0x187, 0x2       	JBSET	PFLAG,2
000c17   ac19     goto    0xc19            	GOTO	_00214_DS_
000c18   ac1a     goto    0xc1a            	GOTO	_00190_DS_
                                           _00214_DS_
000c19   ac21     goto    0xc21            	GOTO	_00193_DS_
                                           _00190_DS_
                                           ;	.line	411; "123.c"	if(GV_RunAlarmClockMinSingleDig != GV_RunRealTimeClockMinSingleDig) return;
000c1a   5851     movar   0x51             	MOVAR	_GV_RunRealTimeClockMinSingleDig
000c1b   4059     xorar   0x59             	XORAR	_GV_RunAlarmClockMinSingleDig
000c1c   e587     jbset   0x187, 0x2       	JBSET	PFLAG,2
000c1d   ac1f     goto    0xc1f            	GOTO	_00215_DS_
000c1e   ac20     goto    0xc20            	GOTO	_00192_DS_
                                           _00215_DS_
000c1f   ac21     goto    0xc21            	GOTO	_00193_DS_
                                           _00192_DS_
                                           ;	.line	413; "123.c"	BF_BuzzerBBB = 1;
000c20   c828     bset    0x28, 0x4        	BSET	_UserFlag1,4
                                           _00193_DS_
000c21   000c     return                   	RETURN	
                                           ; exit point of _Sub_AlarmEvent
                                           
                                           ;***
                                           ;  pBlock Stats: dbName = C
                                           ;***
                                           ;entry:  _Sub_Write1302	;Function start
                                           ; 2 exit points
                                           ;has an exit
                                           ;4 compiler assigned registers:
                                           ;   r0x1050
                                           ;   STK00
                                           ;   r0x1051
                                           ;   r0x1052
                                           ;; Starting pCode block
                                           _Sub_Write1302	;Function start
                                           ; 2 exit points
                                           ;	.line	342; "123.c"	void Sub_Write1302(unsigned char LV_Addr,unsigned char LV_Data) // DS1302
000c22   560b     movra   0xb              	MOVRA	r0x1050
000c23   5806     movar   0x6              	MOVAR	STK00
000c24   560c     movra   0xc              	MOVRA	r0x1051
                                           ;	.line	345; "123.c"	PO_1381A_SCLK =0;  	
000c25   d594     bclr    0x194, 0x2       	BCLR	_IOP1bits,2
                                           ;	.line	346; "123.c"	Enable1381A_RESET();
000c26   cf94     bset    0x194, 0x7       	BSET	_IOP1bits,7
                                           ;	.line	351; "123.c"	Set1381A_I_O_ForOutput();
000c27   c795     bset    0x195, 0x3       	BSET	_OEP1bits,3
                                           ;	.line	352; "123.c"	for(i=8; i>0; i--)
000c28   3c08     movai   0x8              	MOVAI	0x08
000c29   560d     movra   0xd              	MOVRA	r0x1052
                                           _00153_DS_
000c2a   3c00     movai   0                	MOVAI	0x00
000c2b   5c0d     orar    0xd              	ORAR	r0x1052
000c2c   f587     jbclr   0x187, 0x2       	JBCLR	PFLAG,2
000c2d   ac3b     goto    0xc3b            	GOTO	_00172_DS_
                                           ;	.line	354; "123.c"	PO_1381A_SCLK = 0; 	   	
000c2e   d594     bclr    0x194, 0x2       	BCLR	_IOP1bits,2
                                           ;	.line	356; "123.c"	if(LV_TempE & 0x01)
000c2f   e00b     jbset   0xb, 0           	JBSET	r0x1050,0
000c30   ac33     goto    0xc33            	GOTO	_00148_DS_
                                           ;	.line	357; "123.c"	{PO_1381A_DAT = 1;} 
000c31   c794     bset    0x194, 0x3       	BSET	_IOP1bits,3
000c32   ac34     goto    0xc34            	GOTO	_00149_DS_
                                           _00148_DS_
                                           ;	.line	359; "123.c"	{PO_1381A_DAT = 0;}
000c33   d794     bclr    0x194, 0x3       	BCLR	_IOP1bits,3
                                           _00149_DS_
                                           ;	.line	360; "123.c"	Nop();
000c34   0000     nop                      	nop
                                           ;	.line	361; "123.c"	Nop();
000c35   0000     nop                      	nop
                                           ;;shiftRight_Left2ResultLit:5216: shCount=1, size=1, sign=0, same=1, offr=0
                                           ;	.line	362; "123.c"	LV_Addr >>= 1;
000c36   d187     bclr    0x187, 0         	BCLR	PFLAG,0
000c37   4e0b     rrr     0xb              	RRR	r0x1050
                                           ;	.line	363; "123.c"	PO_1381A_SCLK = 1; 	
000c38   c594     bset    0x194, 0x2       	BSET	_IOP1bits,2
                                           ;	.line	352; "123.c"	for(i=8; i>0; i--)
000c39   6e0d     decr    0xd              	DECR	r0x1052
000c3a   ac2a     goto    0xc2a            	GOTO	_00153_DS_
                                           _00172_DS_
                                           ;	.line	366; "123.c"	for(i=8;i>0;i--)
000c3b   3c08     movai   0x8              	MOVAI	0x08
000c3c   560b     movra   0xb              	MOVRA	r0x1050
                                           _00157_DS_
000c3d   3c00     movai   0                	MOVAI	0x00
000c3e   5c0b     orar    0xb              	ORAR	r0x1050
000c3f   f587     jbclr   0x187, 0x2       	JBCLR	PFLAG,2
000c40   ac4e     goto    0xc4e            	GOTO	_00160_DS_
                                           ;	.line	368; "123.c"	PO_1381A_SCLK = 0; 	   	
000c41   d594     bclr    0x194, 0x2       	BCLR	_IOP1bits,2
                                           ;	.line	370; "123.c"	if(LV_TempE & 0x01)
000c42   e00c     jbset   0xc, 0           	JBSET	r0x1051,0
000c43   ac46     goto    0xc46            	GOTO	_00151_DS_
                                           ;	.line	371; "123.c"	{PO_1381A_DAT = 1;} 
000c44   c794     bset    0x194, 0x3       	BSET	_IOP1bits,3
000c45   ac47     goto    0xc47            	GOTO	_00152_DS_
                                           _00151_DS_
                                           ;	.line	373; "123.c"	{PO_1381A_DAT = 0;}
000c46   d794     bclr    0x194, 0x3       	BCLR	_IOP1bits,3
                                           _00152_DS_
                                           ;	.line	374; "123.c"	Nop();
000c47   0000     nop                      	nop
                                           ;	.line	375; "123.c"	Nop();
000c48   0000     nop                      	nop
                                           ;;shiftRight_Left2ResultLit:5216: shCount=1, size=1, sign=0, same=1, offr=0
                                           ;	.line	376; "123.c"	LV_Data >>= 1;
000c49   d187     bclr    0x187, 0         	BCLR	PFLAG,0
000c4a   4e0c     rrr     0xc              	RRR	r0x1051
                                           ;	.line	377; "123.c"	PO_1381A_SCLK = 1; 	
000c4b   c594     bset    0x194, 0x2       	BSET	_IOP1bits,2
                                           ;	.line	366; "123.c"	for(i=8;i>0;i--)
000c4c   6e0b     decr    0xb              	DECR	r0x1050
000c4d   ac3d     goto    0xc3d            	GOTO	_00157_DS_
                                           _00160_DS_
                                           ;	.line	379; "123.c"	Disable1381A_RESET();
000c4e   df94     bclr    0x194, 0x7       	BCLR	_IOP1bits,7
000c4f   000c     return                   	RETURN	
                                           ; exit point of _Sub_Write1302
                                           
                                           ;***
                                           ;  pBlock Stats: dbName = C
                                           ;***
                                           ;entry:  _Sub_Read1302	;Function start
                                           ; 2 exit points
                                           ;has an exit
                                           ;2 compiler assigned registers:
                                           ;   r0x104B
                                           ;   r0x104C
                                           ;; Starting pCode block
                                           _Sub_Read1302	;Function start
                                           ; 2 exit points
                                           ;	.line	293; "123.c"	void Sub_Read1302(unsigned char	LV_Addr) // DS1302
000c50   5609     movra   0x9              	MOVRA	r0x104B
                                           ;	.line	296; "123.c"	PO_1381A_SCLK = 0; 	
000c51   d594     bclr    0x194, 0x2       	BCLR	_IOP1bits,2
                                           ;	.line	297; "123.c"	Enable1381A_RESET();
000c52   cf94     bset    0x194, 0x7       	BSET	_IOP1bits,7
                                           ;	.line	299; "123.c"	LV_Addr=(LV_Addr|0x01); //  
000c53   c009     bset    0x9, 0           	BSET	r0x104B,0
                                           ;	.line	300; "123.c"	PO_1381A_DAT = 0;
000c54   d794     bclr    0x194, 0x3       	BCLR	_IOP1bits,3
                                           ;	.line	301; "123.c"	Set1381A_I_O_ForOutput();
000c55   c795     bset    0x195, 0x3       	BSET	_OEP1bits,3
                                           ;	.line	302; "123.c"	for(i=8;i>0;i--)
000c56   3c08     movai   0x8              	MOVAI	0x08
000c57   560a     movra   0xa              	MOVRA	r0x104C
                                           _00135_DS_
000c58   3c00     movai   0                	MOVAI	0x00
000c59   5c0a     orar    0xa              	ORAR	r0x104C
000c5a   f587     jbclr   0x187, 0x2       	JBCLR	PFLAG,2
000c5b   ac69     goto    0xc69            	GOTO	_00138_DS_
                                           ;	.line	304; "123.c"	PO_1381A_SCLK = 0; 	   	
000c5c   d594     bclr    0x194, 0x2       	BCLR	_IOP1bits,2
                                           ;	.line	306; "123.c"	if(LV_TempE & 0x01)
000c5d   e009     jbset   0x9, 0           	JBSET	r0x104B,0
000c5e   ac61     goto    0xc61            	GOTO	_00131_DS_
                                           ;	.line	307; "123.c"	{PO_1381A_DAT = 1;} 
000c5f   c794     bset    0x194, 0x3       	BSET	_IOP1bits,3
000c60   ac62     goto    0xc62            	GOTO	_00132_DS_
                                           _00131_DS_
                                           ;	.line	309; "123.c"	{PO_1381A_DAT = 0;}
000c61   d794     bclr    0x194, 0x3       	BCLR	_IOP1bits,3
                                           _00132_DS_
                                           ;	.line	310; "123.c"	Nop();
000c62   0000     nop                      	nop
                                           ;	.line	311; "123.c"	Nop();
000c63   0000     nop                      	nop
                                           ;;shiftRight_Left2ResultLit:5216: shCount=1, size=1, sign=0, same=1, offr=0
                                           ;	.line	312; "123.c"	LV_Addr >>= 1;
000c64   d187     bclr    0x187, 0         	BCLR	PFLAG,0
000c65   4e09     rrr     0x9              	RRR	r0x104B
                                           ;	.line	313; "123.c"	PO_1381A_SCLK = 1; 	
000c66   c594     bset    0x194, 0x2       	BSET	_IOP1bits,2
                                           ;	.line	302; "123.c"	for(i=8;i>0;i--)
000c67   6e0a     decr    0xa              	DECR	r0x104C
000c68   ac58     goto    0xc58            	GOTO	_00135_DS_
                                           _00138_DS_
                                           ;	.line	316; "123.c"	Set1381A_I_O_ForInput();
000c69   d795     bclr    0x195, 0x3       	BCLR	_OEP1bits,3
                                           ;	.line	317; "123.c"	for(i=8;i>0;i--)
000c6a   3c08     movai   0x8              	MOVAI	0x08
000c6b   5609     movra   0x9              	MOVRA	r0x104B
                                           _00139_DS_
000c6c   3c00     movai   0                	MOVAI	0x00
000c6d   5c09     orar    0x9              	ORAR	r0x104B
000c6e   f587     jbclr   0x187, 0x2       	JBCLR	PFLAG,2
000c6f   ac7b     goto    0xc7b            	GOTO	_00142_DS_
                                           ;	.line	319; "123.c"	if(PI_PD2_DAT)
000c70   e794     jbset   0x194, 0x3       	JBSET	_IOP1bits,3
000c71   ac73     goto    0xc73            	GOTO	_00134_DS_
                                           ;	.line	320; "123.c"	{GV_GetByteFromDs1302 = GV_GetByteFromDs1302|0x80;} 
000c72   ce39     bset    0x39, 0x7        	BSET	_GV_GetByteFromDs1302,7
                                           _00134_DS_
                                           ;	.line	321; "123.c"	PO_1381A_SCLK = 1;
000c73   c594     bset    0x194, 0x2       	BSET	_IOP1bits,2
                                           ;	.line	322; "123.c"	Nop();
000c74   0000     nop                      	nop
                                           ;	.line	323; "123.c"	Nop();
000c75   0000     nop                      	nop
                                           ;;shiftRight_Left2ResultLit:5216: shCount=1, size=1, sign=0, same=1, offr=0
                                           ;	.line	324; "123.c"	GV_GetByteFromDs1302 = GV_GetByteFromDs1302 >> 1;  	   	   	   	
000c76   d187     bclr    0x187, 0         	BCLR	PFLAG,0
000c77   4e39     rrr     0x39             	RRR	_GV_GetByteFromDs1302
                                           ;	.line	325; "123.c"	PO_1381A_SCLK = 0;
000c78   d594     bclr    0x194, 0x2       	BCLR	_IOP1bits,2
                                           ;	.line	317; "123.c"	for(i=8;i>0;i--)
000c79   6e09     decr    0x9              	DECR	r0x104B
000c7a   ac6c     goto    0xc6c            	GOTO	_00139_DS_
                                           _00142_DS_
                                           ;	.line	327; "123.c"	PO_1381A_SCLK = 0;
000c7b   d594     bclr    0x194, 0x2       	BCLR	_IOP1bits,2
                                           ;	.line	328; "123.c"	Disable1381A_RESET();
000c7c   df94     bclr    0x194, 0x7       	BCLR	_IOP1bits,7
000c7d   000c     return                   	RETURN	
                                           ; exit point of _Sub_Read1302
                                           
                                           
                                           ;	code size estimation:
                                           ;	 3106+    0 =  3106 instructions ( 6212 byte)
                                           
                                           	end


MEMORY USAGE MAP ('X' = Used,  '-' = Unused)

0000 : XX-------------- XXXXXXXXXXXXXXXX XXXXXXXXXXXXXXXX XXXXXXXXXXXXXXXX
0040 : XXXXXXXXXXXXXXXX XXXXXXXXXXXXXXXX XXXXXXXXXXXXXXXX XXXXXXXXXXXXXXXX
0080 : XXXXXXXXXXXXXXXX XXXXXXXXXXXXXXXX XXXXXXXXXXXXXXXX XXXXXXXXXXXXXXXX
00C0 : XXXXXXXXXXXXXXXX XXXXXXXXXXXXXXXX XXXXXXXXXXXXXXXX XXXXXXXXXXXXXXXX
0100 : XXXXXXXXXXXXXXXX XXXXXXXXXXXXXXXX XXXXXXXXXXXXXXXX XXXXXXXXXXXXXXXX
0140 : XXXXXXXXXXXXXXXX XXXXXXXXXXXXXXXX XXXXXXXXXXXXXXXX XXXXXXXXXXXXXXXX
0180 : XXXXXXXXXXXXXXXX XXXXXXXXXXXXXXXX XXXXXXXXXXXXXXXX XXXXXXXXXXXXXXXX
01C0 : XXXXXXXXXXXXXXXX XXXXXXXXXXXXXXXX XXXXXXXXXXXXXXXX XXXXXXXXXXXXXXXX
0200 : XXXXXXXXXXXXXXXX XXXXXXXXXXXXXXXX XXXXXXXXXXXXXXXX XXXXXXXXXXXXXXXX
0240 : XXXXXXXXXXXXXXXX XXXXXXXXXXXXXXXX XXXXXXXXXXXXXXXX XXXXXXXXXXXXXXXX
0280 : XXXXXXXXXXXXXXXX XXXXXXXXXXXXXXXX XXXXXXXXXXXXXXXX XXXXXXXXXXXXXXXX
02C0 : XXXXXXXXXXXXXXXX XXXXXXXXXXXXXXXX XXXXXXXXXXXXXXXX XXXXXXXXXXXXXXXX
0300 : XXXXXXXXXXXXXXXX XXXXXXXXXXXXXXXX XXXXXXXXXXXXXXXX XXXXXXXXXXXXXXXX
0340 : XXXXXXXXXXXXXXXX XXXXXXXXXXXXXXXX XXXXXXXXXXXXXXXX XXXXXXXXXXXXXXXX
0380 : XXXXXXXXXXXXXXXX XXXXXXXXXXXXXXXX XXXXXXXXXXXXXXXX XXXXXXXXXXXXXXXX
03C0 : XXXXXXXXXXXXXXXX XXXXXXXXXXXXXXXX XXXXXXXXXXXXXXXX XXXXXXXXXXXXXXXX
0400 : XXXXXXXXXXXXXXXX XXXXXXXXXXXXXXXX XXXXXXXXXXXXXXXX XXXXXXXXXXXXXXXX
0440 : XXXXXXXXXXXXXXXX XXXXXXXXXXXXXXXX XXXXXXXXXXXXXXXX XXXXXXXXXXXXXXXX
0480 : XXXXXXXXXXXXXXXX XXXXXXXXXXXXXXXX XXXXXXXXXXXXXXXX XXXXXXXXXXXXXXXX
04C0 : XXXXXXXXXXXXXXXX XXXXXXXXXXXXXXXX XXXXXXXXXXXXXXXX XXXXXXXXXXXXXXXX
0500 : XXXXXXXXXXXXXXXX XXXXXXXXXXXXXXXX XXXXXXXXXXXXXXXX XXXXXXXXXXXXXXXX
0540 : XXXXXXXXXXXXXXXX XXXXXXXXXXXXXXXX XXXXXXXXXXXXXXXX XXXXXXXXXXXXXXXX
0580 : XXXXXXXXXXXXXXXX XXXXXXXXXXXXXXXX XXXXXXXXXXXXXXXX XXXXXXXXXXXXXXXX
05C0 : XXXXXXXXXXXXXXXX XXXXXXXXXXXXXXXX XXXXXXXXXXXXXXXX XXXXXXXXXXXXXXXX
0600 : XXXXXXXXXXXXXXXX XXXXXXXXXXXXXXXX XXXXXXXXXXXXXXXX XXXXXXXXXXXXXXXX
0640 : XXXXXXXXXXXXXXXX XXXXXXXXXXXXXXXX XXXXXXXXXXXXXXXX XXXXXXXXXXXXXXXX
0680 : XXXXXXXXXXXXXXXX XXXXXXXXXXXXXXXX XXXXXXXXXXXXXXXX XXXXXXXXXXXXXXXX
06C0 : XXXXXXXXXXXXXXXX XXXXXXXXXXXXXXXX XXXXXXXXXXXXXXXX XXXXXXXXXXXXXXXX
0700 : XXXXXXXXXXXXXXXX XXXXXXXXXXXXXXXX XXXXXXXXXXXXXXXX XXXXXXXXXXXXXXXX
0740 : XXXXXXXXXXXXXXXX XXXXXXXXXXXXXXXX XXXXXXXXXXXXXXXX XXXXXXXXXXXXXXXX
0780 : XXXXXXXXXXXXXXXX XXXXXXXXXXXXXXXX XXXXXXXXXXXXXXXX XXXXXXXXXXXXXXXX
07C0 : XXXXXXXXXXXXXXXX XXXXXXXXXXXXXXXX XXXXXXXXXXXXXXXX XXXXXXXXXXXXXXXX
0800 : XXXXXXXXXXXXXXXX XXXXXXXXXXXXXXXX XXXXXXXXXXXXXXXX XXXXXXXXXXXXXXXX
0840 : XXXXXXXXXXXXXXXX XXXXXXXXXXXXXXXX XXXXXXXXXXXXXXXX XXXXXXXXXXXXXXXX
0880 : XXXXXXXXXXXXXXXX XXXXXXXXXXXXXXXX XXXXXXXXXXXXXXXX XXXXXXXXXXXXXXXX
08C0 : XXXXXXXXXXXXXXXX XXXXXXXXXXXXXXXX XXXXXXXXXXXXXXXX XXXXXXXXXXXXXXXX
0900 : XXXXXXXXXXXXXXXX XXXXXXXXXXXXXXXX XXXXXXXXXXXXXXXX XXXXXXXXXXXXXXXX
0940 : XXXXXXXXXXXXXXXX XXXXXXXXXXXXXXXX XXXXXXXXXXXXXXXX XXXXXXXXXXXXXXXX
0980 : XXXXXXXXXXXXXXXX XXXXXXXXXXXXXXXX XXXXXXXXXXXXXXXX XXXXXXXXXXXXXXXX
09C0 : XXXXXXXXXXXXXXXX XXXXXXXXXXXXXXXX XXXXXXXXXXXXXXXX XXXXXXXXXXXXXXXX
0A00 : XXXXXXXXXXXXXXXX XXXXXXXXXXXXXXXX XXXXXXXXXXXXXXXX XXXXXXXXXXXXXXXX
0A40 : XXXXXXXXXXXXXXXX XXXXXXXXXXXXXXXX XXXXXXXXXXXXXXXX XXXXXXXXXXXXXXXX
0A80 : XXXXXXXXXXXXXXXX XXXXXXXXXXXXXXXX XXXXXXXXXXXXXXXX XXXXXXXXXXXXXXXX
0AC0 : XXXXXXXXXXXXXXXX XXXXXXXXXXXXXXXX XXXXXXXXXXXXXXXX XXXXXXXXXXXXXXXX
0B00 : XXXXXXXXXXXXXXXX XXXXXXXXXXXXXXXX XXXXXXXXXXXXXXXX XXXXXXXXXXXXXXXX
0B40 : XXXXXXXXXXXXXXXX XXXXXXXXXXXXXXXX XXXXXXXXXXXXXXXX XXXXXXXXXXXXXXXX
0B80 : XXXXXXXXXXXXXXXX XXXXXXXXXXXXXXXX XXXXXXXXXXXXXXXX XXXXXXXXXXXXXXXX
0BC0 : XXXXXXXXXXXXXXXX XXXXXXXXXXXXXXXX XXXXXXXXXXXXXXXX XXXXXXXXXXXXXXXX
0C00 : XXXXXXXXXXXXXXXX XXXXXXXXXXXXXXXX XXXXXXXXXXXXXXXX XXXXXXXXXXXXXXXX
0C40 : XXXXXXXXXXXXXXXX XXXXXXXXXXXXXXXX XXXXXXXXXXXXXXXX XXXXXXXXXXXXXXXX
0C80 : XXXXXXXXXXXXXXXX XXXXXXXXXXXXXXXX XXXXXXXXXXXXXXXX XXXXXXXXXXXXXXXX
0CC0 : XXXXXXXXXXXXXXXX XXXXXXXXXXXXXXXX XXXXXXXXXXXXXXXX XXXXXXXXXXXXXXXX
0D00 : XXXXXXXXXXXXXXXX XXXXXXXXXXXXXXXX XXXXXXXXXXXXXXXX XXXXXXXXXXXXXXXX
0D40 : XXXXXXXXXXXXXXXX XXXXXXXXXXXXXXXX XXXXXXXXXXXXXXXX XXXXXXXXXXXXXXXX
0D80 : XXXXXXXXXXXXXXXX XXXXXXXXXXXXXXXX XXXXXXXXXXXXXXXX XXXXXXXXXXXXXXXX
0DC0 : XXXXXXXXXXXXXXXX XXXXXXXXXXXXXXXX XXXXXXXXXXXXXXXX XXXXXXXXXXXXXXXX
0E00 : XXXXXXXXXXXXXXXX XXXXXXXXXXXXXXXX XXXXXXXXXXXXXXXX XXXXXXXXXXXXXXXX
0E40 : XXXXXXXXXXXXXXXX XXXXXXXXXXXXXXXX XXXXXXXXXXXXXXXX XXXXXXXXXXXXXXXX
0E80 : XXXXXXXXXXXXXXXX XXXXXXXXXXXXXXXX XXXXXXXXXXXXXXXX XXXXXXXXXXXXXXXX
0EC0 : XXXXXXXXXXXXXXXX XXXXXXXXXXXXXXXX XXXXXXXXXXXXXXXX XXXXXXXXXXXXXXXX
0F00 : XXXXXXXXXXXXXXXX XXXXXXXXXXXXXXXX XXXXXXXXXXXXXXXX XXXXXXXXXXXXXXXX
0F40 : XXXXXXXXXXXXXXXX XXXXXXXXXXXXXXXX XXXXXXXXXXXXXXXX XXXXXXXXXXXXXXXX
0F80 : XXXXXXXXXXXXXXXX XXXXXXXXXXXXXXXX XXXXXXXXXXXXXXXX XXXXXXXXXXXXXXXX
0FC0 : XXXXXXXXXXXXXXXX XXXXXXXXXXXXXXXX XXXXXXXXXXXXXXXX XXXXXXXXXXXXXXXX
1000 : XXXXXXXXXXXXXXXX XXXXXXXXXXXXXXXX XXXXXXXXXXXXXXXX XXXXXXXXXXXXXXXX
1040 : XXXXXXXXXXXXXXXX XXXXXXXXXXXXXXXX XXXXXXXXXXXXXXXX XXXXXXXXXXXXXXXX
1080 : XXXXXXXXXXXXXXXX XXXXXXXXXXXXXXXX XXXXXXXXXXXXXXXX XXXXXXXXXXXXXXXX
10C0 : XXXXXXXXXXXXXXXX XXXXXXXXXXXXXXXX XXXXXXXXXXXXXXXX XXXXXXXXXXXXXXXX
1100 : XXXXXXXXXXXXXXXX XXXXXXXXXXXXXXXX XXXXXXXXXXXXXXXX XXXXXXXXXXXXXXXX
1140 : XXXXXXXXXXXXXXXX XXXXXXXXXXXXXXXX XXXXXXXXXXXXXXXX XXXXXXXXXXXXXXXX
1180 : XXXXXXXXXXXXXXXX XXXXXXXXXXXXXXXX XXXXXXXXXXXXXXXX XXXXXXXXXXXXXXXX
11C0 : XXXXXXXXXXXXXXXX XXXXXXXXXXXXXXXX XXXXXXXXXXXXXXXX XXXXXXXXXXXXXXXX
1200 : XXXXXXXXXXXXXXXX XXXXXXXXXXXXXXXX XXXXXXXXXXXXXXXX XXXXXXXXXXXXXXXX
1240 : XXXXXXXXXXXXXXXX XXXXXXXXXXXXXXXX XXXXXXXXXXXXXXXX XXXXXXXXXXXXXXXX
1280 : XXXXXXXXXXXXXXXX XXXXXXXXXXXXXXXX XXXXXXXXXXXXXXXX XXXXXXXXXXXXXXXX
12C0 : XXXXXXXXXXXXXXXX XXXXXXXXXXXXXXXX XXXXXXXXXXXXXXXX XXXXXXXXXXXXXXXX
1300 : XXXXXXXXXXXXXXXX XXXXXXXXXXXXXXXX XXXXXXXXXXXXXXXX XXXXXXXXXXXXXXXX
1340 : XXXXXXXXXXXXXXXX XXXXXXXXXXXXXXXX XXXXXXXXXXXXXXXX XXXXXXXXXXXXXXXX
1380 : XXXXXXXXXXXXXXXX XXXXXXXXXXXXXXXX XXXXXXXXXXXXXXXX XXXXXXXXXXXXXXXX
13C0 : XXXXXXXXXXXXXXXX XXXXXXXXXXXXXXXX XXXXXXXXXXXXXXXX XXXXXXXXXXXXXXXX
1400 : XXXXXXXXXXXXXXXX XXXXXXXXXXXXXXXX XXXXXXXXXXXXXXXX XXXXXXXXXXXXXXXX
1440 : XXXXXXXXXXXXXXXX XXXXXXXXXXXXXXXX XXXXXXXXXXXXXXXX XXXXXXXXXXXXXXXX
1480 : XXXXXXXXXXXXXXXX XXXXXXXXXXXXXXXX XXXXXXXXXXXXXXXX XXXXXXXXXXXXXXXX
14C0 : XXXXXXXXXXXXXXXX XXXXXXXXXXXXXXXX XXXXXXXXXXXXXXXX XXXXXXXXXXXXXXXX
1500 : XXXXXXXXXXXXXXXX XXXXXXXXXXXXXXXX XXXXXXXXXXXXXXXX XXXXXXXXXXXXXXXX
1540 : XXXXXXXXXXXXXXXX XXXXXXXXXXXXXXXX XXXXXXXXXXXXXXXX XXXXXXXXXXXXXXXX
1580 : XXXXXXXXXXXXXXXX XXXXXXXXXXXXXXXX XXXXXXXXXXXXXXXX XXXXXXXXXXXXXXXX
15C0 : XXXXXXXXXXXXXXXX XXXXXXXXXXXXXXXX XXXXXXXXXXXXXXXX XXXXXXXXXXXXXXXX
1600 : XXXXXXXXXXXXXXXX XXXXXXXXXXXXXXXX XXXXXXXXXXXXXXXX XXXXXXXXXXXXXXXX
1640 : XXXXXXXXXXXXXXXX XXXXXXXXXXXXXXXX XXXXXXXXXXXXXXXX XXXXXXXXXXXXXXXX
1680 : XXXXXXXXXXXXXXXX XXXXXXXXXXXXXXXX XXXXXXXXXXXXXXXX XXXXXXXXXXXXXXXX
16C0 : XXXXXXXXXXXXXXXX XXXXXXXXXXXXXXXX XXXXXXXXXXXXXXXX XXXXXXXXXXXXXXXX
1700 : XXXXXXXXXXXXXXXX XXXXXXXXXXXXXXXX XXXXXXXXXXXXXXXX XXXXXXXXXXXXXXXX
1740 : XXXXXXXXXXXXXXXX XXXXXXXXXXXXXXXX XXXXXXXXXXXXXXXX XXXXXXXXXXXXXXXX
1780 : XXXXXXXXXXXXXXXX XXXXXXXXXXXXXXXX XXXXXXXXXXXXXXXX XXXXXXXXXXXXXXXX
17C0 : XXXXXXXXXXXXXXXX XXXXXXXXXXXXXXXX XXXXXXXXXXXXXXXX XXXXXXXXXXXXXXXX
1800 : XXXXXXXXXXXXXXXX XXXXXXXXXXXXXXXX XXXXXXXXXXXXXXXX XXXXXXXXXXXXXXXX
1840 : XXXXXXXXXXXXXXXX XXXXXXXXXXXXXXXX XXXXXXXXXXXXXXXX XXXXXXXXXXXXXXXX
1880 : XXXXXXXXXXXXXXXX XXXXXXXXXXXXXXXX XXXXXXXXXXXXXXXX XXXXXXXXXXXXXXXX
18C0 : XXXXXXXXXXXXXXXX XXXXXXXXXXXXXXXX XXXXXXXXXXXXXXXX XXXXXXXXXXXXXXXX
1900 : XXXXXXXXXXXXXXXX XXXXXXXXXXXXXXXX XXXXXXXXXXXXXXXX XXXXXXXXXXXXXXXX
1940 : XXXXXXXXXXXXXXXX XXXXXXXX-------- ---------------- ----------------
1FC0 : ---------------- ---------------- XXXXXXXXXXXXXXXX XXXXXXXX--------

All other memory blocks unused.

Program Memory Words Used:  3249

